EXPORTS
    DFile @1 DATA
    DelayFile @2 DATA
    EnFile @3 DATA
    FFile @4 DATA
    OFile @5 DATA
    PFile @6 DATA
    RFile @7 DATA
    RsFile @8 DATA
    SAFile @9 DATA
    SAMFile @10 DATA
    SRFile @11 DATA
    Track @12 DATA
    UAFile @13 DATA
    UEFile @14 DATA
    UFile @15 DATA
    UMFile @16 DATA
    USFile @17 DATA
    UTFile @18 DATA
    UTsFile @19 DATA
    VFile @20 DATA
    VIFile @21 DATA
    VIRFile @22 DATA
    VeFile @23 DATA
    _Z10aToRlcTypeNSt7__cxx1112basic_stringIcSt11char_traitsIcESaIcEEE @24
    _Z10d2dModeToAB5cxx1110LteD2DMode @25
    _Z10dBToLineard @26
    _Z10getAllCarsB5cxx11v @27
    _Z10getModule_t @28
    _Z10idToMacCidtt @29
    _Z10linearToDbd @30
    _Z10rlcTypeToAB5cxx1110LteRlcType @31
    _Z10showCircledN4inet5CoordEPN7omnetpp7cModuleEPNS1_11cOvalFigureE @32
    _Z10writeToCSVN7omnetpp7SimTimeENSt7__cxx1112basic_stringIcSt11char_traitsIcESaIcEEEdddddddddddddddddPNS_7cModuleEddd @33
    _Z10writetoCSVN7omnetpp7SimTimeEdddd @34
    _Z11aToNodeTypeNSt7__cxx1112basic_stringIcSt11char_traitsIcESaIcEEE @35
    _Z11dBmToLineard @36
    _Z11getCellInfot @37
    _Z11linearToDBmd @38
    _Z11nodeTypeToAB5cxx1111RanNodeType @39
    _Z12MacCidToLcidj @40
    _Z12getNeighborsNSt7__cxx114listItSaItEEEdPN7omnetpp7cModuleE @41
    _Z13calculateMeanRKSt6vectorIdSaIdEE @42
    _Z13isBaseStation12CoreNodeType @43
    _Z14MacCidToNodeIdj @44
    _Z14cStringToLowerPc @45
    _Z14ctrlInfoToUeIdN4inet12IntrusivePtrI14LteControlInfoEE @46
    _Z14exponentialGend @47
    _Z14getCoordinatest @48
    _Z14periodicityToAB5cxx1113FbPeriodicity @49
    _Z15aToPhyFrameTypeNSt7__cxx1112basic_stringIcSt11char_traitsIcESaIcEEE @50
    _Z15calculateStdDevRKSt6vectorIdSaIdEEd @51
    _Z15getCoordinates_PN7omnetpp7cModuleE @52
    _Z15getCqiFromTabled @53
    _Z15getFeedbackTypeNSt7__cxx1112basic_stringIcSt11char_traitsIcESaIcEEE @54
    _Z15getNodeTypeByIdt @55
    _Z15phyFrameTypeToAB5cxx1115LtePhyFrameType @56
    _Z15readCoordinatesRKNSt7__cxx1112basic_stringIcSt11char_traitsIcESaIcEEE @57
    _Z16ctrlInfoToMacCidN4inet12IntrusivePtrI14LteControlInfoEE @58
    _Z16poissonGeneratord @59
    _Z16readBaseStationsRKNSt7__cxx1112basic_stringIcSt11char_traitsIcESaIcEEE @60
    _Z16uniformGeneratorii @61
    _Z17allocationTypeToAB5cxx1116RbAllocationType @62
    _Z17checkIfHeaderTypeI16LteRlcPduNewDataEbPKN4inet6PacketEb @63
    _Z17getMacByMacNodeIdt @64
    _Z17getPhyByMacNodeIdt @65
    _Z17getRlcByMacNodeIdt10LteRlcType @66
    _Z18aToApplicationTypeNSt7__cxx1112basic_stringIcSt11char_traitsIcESaIcEEE @67
    _Z18aToLteTrafficClassNSt7__cxx1112basic_stringIcSt11char_traitsIcESaIcEEE @68
    _Z18aToSchedDisciplineNSt7__cxx1112basic_stringIcSt11char_traitsIcESaIcEEE @69
    _Z18applicationTypeToAB5cxx1115ApplicationType @70
    _Z18fbGeneratorTypeToAB5cxx1121FeedbackGeneratorType @71
    _Z18getPdcpByMacNodeIdt @72
    _Z18getTagsWithInheritI14LteControlInfoESt6vectorIT_SaIS2_EEPN4inet6PacketE @73
    _Z18lteTrafficClassToAB5cxx1115LteTrafficClass @74
    _Z18schedDisciplineToAB5cxx1115SchedDiscipline @75
    _Z19getRbAllocationTypeNSt7__cxx1112basic_stringIcSt11char_traitsIcESaIcEEE @76
    _Z19removeAllSimu5GTagsPN4inet6PacketE @77
    _Z20exponentialGeneratord @78
    _Z20getParametersFromXMLPN7omnetpp11cXMLElementERSt3mapINSt7__cxx1112basic_stringIcSt11char_traitsIcESaIcEEENS_7cMsgParESt4lessIS8_ESaISt4pairIKS8_S9_EEE @79
    _Z20get_next_time_packeti @80
    _Z20get_packet_dimensionv @81
    _Z21DeploymentScenarioToAB5cxx1118DeploymentScenario @82
    _Z21aToDeploymentScenarioNSt7__cxx1112basic_stringIcSt11char_traitsIcESaIcEEE @83
    _Z21getMyCurrentPosition_PN7omnetpp7cModuleE @84
    _Z21initializeAllChannelsPN7omnetpp7cModuleE @85
    _Z21isMulticastConnectionP14LteControlInfo @86
    _Z21parseStringToIntArrayNSt7__cxx1112basic_stringIcSt11char_traitsIcESaIcEEEPiii @87
    _Z23removeFirstLineFromFileRKNSt7__cxx1112basic_stringIcSt11char_traitsIcESaIcEEE @88
    _Z24getFeedbackGeneratorTypeNSt7__cxx1112basic_stringIcSt11char_traitsIcESaIcEEE @89
    _Z28calculateLoadBalancingDegreeRKSt6vectorISt5tupleIJPN7omnetpp7cModuleEddddEESaIS4_EE @90
    _Z6aToDasNSt7__cxx1112basic_stringIcSt11char_traitsIcESaIcEEE @91
    _Z6dasToAB5cxx116Remote @92
    _Z6dirToAB5cxx119Direction @93
    _Z6isNrUet @94
    _Z6modToAB5cxx116LteMod @95
    _Z8getMacUet @96
    _Z8getcoordPN7omnetpp7cModuleE @97
    _Z8itbs2tbs6LteMod6TxModehh @98
    _Z8planeToAB5cxx115Plane @99
    _Z9aToTxModeNSt7__cxx1112basic_stringIcSt11char_traitsIcESaIcEEE @100
    _Z9cwMappingRK6TxModeRKtj @101
    _Z9getBinderv @102
    _Z9getCoord_PN7omnetpp7cModuleE @103
    _Z9txModeToAB5cxx116TxMode @104
    _ZN10CellUEInfoC1EP16UeStatsCollectorRK4Ecgi @105
    _ZN10CellUEInfoC1EP16UeStatsCollectorRKN3mec4EcgiE @106
    _ZN10CellUEInfoC1Ev @107
    _ZN10CellUEInfoC2EP16UeStatsCollectorRK4Ecgi @108
    _ZN10CellUEInfoC2EP16UeStatsCollectorRKN3mec4EcgiE @109
    _ZN10CellUEInfoC2Ev @110
    _ZN10CellUEInfoD0Ev @111
    _ZN10CellUEInfoD1Ev @112
    _ZN10CellUEInfoD2Ev @113
    _ZN10DataPacket10setIDframeEj @114
    _ZN10DataPacket12parsimUnpackEPN7omnetpp11cCommBufferE @115
    _ZN10DataPacket12setUeOmnetIDEi @116
    _ZN10DataPacket18setCenterPositionXEd @117
    _ZN10DataPacket18setCenterPositionYEd @118
    _ZN10DataPacket18setCenterPositionZEd @119
    _ZN10DataPacket19setPayloadTimestampEN7omnetpp7SimTimeE @120
    _ZN10DataPacket4copyERKS_ @121
    _ZN10DataPacket7setdataEPKc @122
    _ZN10DataPacket9setRadiusEd @123
    _ZN10DataPacketC1ERKS_ @124
    _ZN10DataPacketC1Ev @125
    _ZN10DataPacketC2ERKS_ @126
    _ZN10DataPacketC2Ev @127
    _ZN10DataPacketD0Ev @128
    _ZN10DataPacketD1Ev @129
    _ZN10DataPacketD2Ev @130
    _ZN10DataPacketaSERKS_ @131
    _ZN10GtpUserMsg12parsimUnpackEPN7omnetpp11cCommBufferE @132
    _ZN10GtpUserMsg4copyERKS_ @133
    _ZN10GtpUserMsg7setTeidEj @134
    _ZN10GtpUserMsgC1ERKS_ @135
    _ZN10GtpUserMsgC1Ev @136
    _ZN10GtpUserMsgC2ERKS_ @137
    _ZN10GtpUserMsgC2Ev @138
    _ZN10GtpUserMsgD0Ev @139
    _ZN10GtpUserMsgD1Ev @140
    _ZN10GtpUserMsgD2Ev @141
    _ZN10GtpUserMsgaSERKS_ @142
    _ZN10L2MeasBase11computeMeanEv @143
    _ZN10L2MeasBase12getLastValueEv @144
    _ZN10L2MeasBase4initENSt7__cxx1112basic_stringIcSt11char_traitsIcESaIcEEEib @145
    _ZN10L2MeasBase5resetEv @146
    _ZN10L2MeasBase7getMeanEv @147
    _ZN10L2MeasBase8addValueEd @148
    _ZN10L2MeasBaseC1Ev @149
    _ZN10L2MeasBaseC2Ev @150
    _ZN10L2MeasBaseD0Ev @151
    _ZN10L2MeasBaseD1Ev @152
    _ZN10L2MeasBaseD2Ev @153
    _ZN10LteMacBase10initializeEi @154
    _ZN10LteMacBase12deleteModuleEv @155
    _ZN10LteMacBase12deleteQueuesEt @156
    _ZN10LteMacBase12insertMacPduEPKN4inet6PacketE @157
    _ZN10LteMacBase12isD2DCapableEv @158
    _ZN10LteMacBase12macHandleRacEPN7omnetpp7cPacketE @159
    _ZN10LteMacBase13discardMacPduEPKN4inet6PacketE @160
    _ZN10LteMacBase13discardRlcPduEN4inet12IntrusivePtrIK15UserControlInfoEEj @161
    _ZN10LteMacBase13handleMessageEPN7omnetpp8cMessageE @162
    _ZN10LteMacBase14macHandleGrantEPN7omnetpp7cPacketE @163
    _ZN10LteMacBase15bufferizePacketEPN7omnetpp7cPacketE @164
    _ZN10LteMacBase16getHarqErrorRateE9Direction @165
    _ZN10LteMacBase16sendLowerPacketsEPN7omnetpp7cPacketE @166
    _ZN10LteMacBase16sendUpperPacketsEPN7omnetpp7cPacketE @167
    _ZN10LteMacBase18handleUpperMessageEPN7omnetpp7cPacketE @168
    _ZN10LteMacBase19recordHarqErrorRateEj9Direction @169
    _ZN10LteMacBase20harqAckToFlowManagerEN4inet12IntrusivePtrIK15UserControlInfoEENS1_IK9LteMacPduEE @170
    _ZN10LteMacBase20macHandleFeedbackPktEPN7omnetpp7cPacketE @171
    _ZN10LteMacBase22unregisterHarqBufferRxEt @172
    _ZN10LteMacBase31decreaseNumerologyPeriodCounterEv @173
    _ZN10LteMacBase6finishEv @174
    _ZN10LteMacBase7fromPhyEPN7omnetpp7cPacketE @175
    _ZN10LteMacBase7fromRlcEPN7omnetpp7cPacketE @176
    _ZN10LteMacBaseC2Ev @177
    _ZN10LteMacBaseD0Ev @178
    _ZN10LteMacBaseD1Ev @179
    _ZN10LteMacBaseD2Ev @180
    _ZN10LtePdcpPdu12parsimUnpackEPN7omnetpp11cCommBufferE @181
    _ZN10LtePdcpPdu4copyERKS_ @182
    _ZN10LtePdcpPduC1ERKS_ @183
    _ZN10LtePdcpPduC1Ev @184
    _ZN10LtePdcpPduC2ERKS_ @185
    _ZN10LtePdcpPduC2Ev @186
    _ZN10LtePdcpPduD0Ev @187
    _ZN10LtePdcpPduD1Ev @188
    _ZN10LtePdcpPduD2Ev @189
    _ZN10LtePdcpPduaSERKS_ @190
    _ZN10LtePhyBase10initializeEi @191
    _ZN10LtePhyBase11sendUnicastEP11LteAirFrame @192
    _ZN10LtePhyBase12getAmcModuleEt @193
    _ZN10LtePhyBase13handleMessageEPN7omnetpp8cMessageE @194
    _ZN10LtePhyBase13sendBroadcastEP11LteAirFrame @195
    _ZN10LtePhyBase13sendMulticastEP11LteAirFrame @196
    _ZN10LtePhyBase16handleControlMsgEP11LteAirFrameP15UserControlInfo @197
    _ZN10LtePhyBase17airFramePriority_E @198 DATA
    _ZN10LtePhyBase18handleUpperMessageEPN7omnetpp8cMessageE @199
    _ZN10LtePhyBase19updateDisplayStringEv @200
    _ZN10LtePhyBase21createHandoverMessageEv @201
    _ZN10LtePhyBase22initializeChannelModelEv @202
    _ZN10LtePhyBase8getTxPwrE9Direction @203
    _ZN10LtePhyBaseC2Ev @204
    _ZN10LtePhyBaseD0Ev @205
    _ZN10LtePhyBaseD1Ev @206
    _ZN10LtePhyBaseD2Ev @207
    _ZN10LteRohcPdu12parsimUnpackEPN7omnetpp11cCommBufferE @208
    _ZN10LteRohcPdu19setOrigSizeIpHeaderEN4inet5units5valueIxNS1_8intscaleINS1_5units1bELi1ELi8EEEEE @209
    _ZN10LteRohcPdu26setOrigSizeTransportHeaderEN4inet5units5valueIxNS1_8intscaleINS1_5units1bELi1ELi8EEEEE @210
    _ZN10LteRohcPdu4copyERKS_ @211
    _ZN10LteRohcPduC1ERKS_ @212
    _ZN10LteRohcPduC1Ev @213
    _ZN10LteRohcPduC2ERKS_ @214
    _ZN10LteRohcPduC2Ev @215
    _ZN10LteRohcPduD0Ev @216
    _ZN10LteRohcPduD1Ev @217
    _ZN10LteRohcPduD2Ev @218
    _ZN10LteRohcPduaSERKS_ @219
    _ZN10MecAppBase10initializeEi @220
    _ZN10MecAppBase12addNewSocketEv @221
    _ZN10MecAppBase12removeSocketEPN4inet9TcpSocketE @222
    _ZN10MecAppBase12socketClosedEPN4inet9TcpSocketE @223
    _ZN10MecAppBase13handleMessageEPN7omnetpp8cMessageE @224
    _ZN10MecAppBase13socketDeletedEPN4inet9TcpSocketE @225
    _ZN10MecAppBase13socketFailureEPN4inet9TcpSocketEi @226
    _ZN10MecAppBase15scheduleNextMsgEPN7omnetpp8cMessageE @227
    _ZN10MecAppBase15socketAvailableEPN4inet9TcpSocketEPNS0_16TcpAvailableInfoE @228
    _ZN10MecAppBase16socketPeerClosedEPN4inet9TcpSocketE @229
    _ZN10MecAppBase17socketDataArrivedEPN4inet9TcpSocketEPNS0_6PacketEb @230
    _ZN10MecAppBase17socketEstablishedEPN4inet9TcpSocketE @231
    _ZN10MecAppBase19socketStatusArrivedEPN4inet9TcpSocketEPNS0_13TcpStatusInfoE @232
    _ZN10MecAppBase22handleProcessedMessageEPN7omnetpp8cMessageE @233
    _ZN10MecAppBase6finishEv @234
    _ZN10MecAppBase7connectEPN4inet9TcpSocketERKNS0_9L3AddressEi @235
    _ZN10MecAppBaseC2Ev @236
    _ZN10MecAppBaseD0Ev @237
    _ZN10MecAppBaseD1Ev @238
    _ZN10MecAppBaseD2Ev @239
    _ZN10NRMcsTable11getMaxIndexE6LteMod @240
    _ZN10NRMcsTable11getMinIndexE6LteMod @241
    _ZN10NRMcsTableC1Eb @242
    _ZN10NRMcsTableC2Eb @243
    _ZN10RNIService10initializeEi @244
    _ZN10RNIService16handleGETRequestEPK18HttpRequestMessagePN4inet9TcpSocketE @245
    _ZN10RNIService16handlePUTRequestEPK18HttpRequestMessagePN4inet9TcpSocketE @246
    _ZN10RNIService17handlePOSTRequestEPK18HttpRequestMessagePN4inet9TcpSocketE @247
    _ZN10RNIService19handleDELETERequestEPK18HttpRequestMessagePN4inet9TcpSocketE @248
    _ZN10RNIService6finishEv @249
    _ZN10RNIServiceC1Ev @250
    _ZN10RNIServiceC2Ev @251
    _ZN10RNIServiceD0Ev @252
    _ZN10RNIServiceD1Ev @253
    _ZN10RNIServiceD2Ev @254
    _ZN10UmRxEntity10initializeEv @255
    _ZN10UmRxEntity10reassembleEj @256
    _ZN10UmRxEntity11handleBurstENS_10BurstCheckE @257
    _ZN10UmRxEntity12moveRxWindowEi @258
    _ZN10UmRxEntity13handleMessageEPN7omnetpp8cMessageE @259
    _ZN10UmRxEntity16clearBufferedSduEv @260
    _ZN10UmRxEntity19totalCellRcvdBytes_E @261 DATA
    _ZN10UmRxEntity22rlcHandleD2DModeSwitchEbbb @262
    _ZN10UmRxEntity22totalCellPduRcvdBytes_E @263 DATA
    _ZN10UmRxEntity5enqueEPN7omnetpp7cPacketE @264
    _ZN10UmRxEntity6toPdcpEPN4inet6PacketE @265
    _ZN10UmRxEntityC1Ev @266
    _ZN10UmRxEntityC2Ev @267
    _ZN10UmRxEntityD0Ev @268
    _ZN10UmRxEntityD1Ev @269
    _ZN10UmRxEntityD2Ev @270
    _ZN10UmTxEntity10clearQueueEv @271
    _ZN10UmTxEntity10initializeEv @272
    _ZN10UmTxEntity10rlcPduMakeEi @273
    _ZN10UmTxEntity19enqueHoldingPacketsEPN7omnetpp7cPacketE @274
    _ZN10UmTxEntity19removeDataFromQueueEv @275
    _ZN10UmTxEntity22rlcHandleD2DModeSwitchEbb @276
    _ZN10UmTxEntity25resumeDownstreamInPacketsEv @277
    _ZN10UmTxEntity28isHoldingDownstreamInPacketsEv @278
    _ZN10UmTxEntity5enqueEPN7omnetpp7cPacketE @279
    _ZN10UmTxEntityD0Ev @280
    _ZN10UmTxEntityD2Ev @281
    _ZN10VoIPSender10initializeEi @282
    _ZN10VoIPSender11initTrafficEv @283
    _ZN10VoIPSender13handleMessageEPN7omnetpp8cMessageE @284
    _ZN10VoIPSender14sendVoIPPacketEv @285
    _ZN10VoIPSender16selectPeriodTimeEv @286
    _ZN10VoIPSender9talkspurtEN7omnetpp7SimTimeE @287
    _ZN10VoIPSenderC1Ev @288
    _ZN10VoIPSenderC2Ev @289
    _ZN10VoIPSenderD0Ev @290
    _ZN10VoIPSenderD1Ev @291
    _ZN10VoIPSenderD2Ev @292
    _ZN10VoipPacket10setIDframeEj @293
    _ZN10VoipPacket10setNframesEj @294
    _ZN10VoipPacket12parsimUnpackEPN7omnetpp11cCommBufferE @295
    _ZN10VoipPacket14setArrivalTimeEN7omnetpp7SimTimeE @296
    _ZN10VoipPacket14setPayloadSizeEj @297
    _ZN10VoipPacket14setPlayoutTimeEN7omnetpp7SimTimeE @298
    _ZN10VoipPacket19setPayloadTimestampEN7omnetpp7SimTimeE @299
    _ZN10VoipPacket4copyERKS_ @300
    _ZN10VoipPacket9setIDtalkEj @301
    _ZN10VoipPacketC1ERKS_ @302
    _ZN10VoipPacketC1Ev @303
    _ZN10VoipPacketC2ERKS_ @304
    _ZN10VoipPacketC2Ev @305
    _ZN10VoipPacketD0Ev @306
    _ZN10VoipPacketD1Ev @307
    _ZN10VoipPacketD2Ev @308
    _ZN10VoipPacketaSERKS_ @309
    _ZN11AlertPacket12parsimUnpackEPN7omnetpp11cCommBufferE @310
    _ZN11AlertPacket19setPayloadTimestampEN7omnetpp7SimTimeE @311
    _ZN11AlertPacket4copyERKS_ @312
    _ZN11AlertPacket6setSnoEj @313
    _ZN11AlertPacketC1ERKS_ @314
    _ZN11AlertPacketC1Ev @315
    _ZN11AlertPacketC2ERKS_ @316
    _ZN11AlertPacketC2Ev @317
    _ZN11AlertPacketD0Ev @318
    _ZN11AlertPacketD1Ev @319
    _ZN11AlertPacketD2Ev @320
    _ZN11AlertPacketaSERKS_ @321
    _ZN11AlertSender10initializeEi @322
    _ZN11AlertSender13handleMessageEPN7omnetpp8cMessageE @323
    _ZN11AlertSender15sendAlertPacketEv @324
    _ZN11AlertSenderC1Ev @325
    _ZN11AlertSenderC2Ev @326
    _ZN11AlertSenderD0Ev @327
    _ZN11AlertSenderD1Ev @328
    _ZN11AlertSenderD2Ev @329
    _ZN11AmcPilotD2D14getUsableBandsEtRPSt6vectorItSaItEE @330
    _ZN11AmcPilotD2D14setUsableBandsEtSt6vectorItSaItEE @331
    _ZN11AmcPilotD2D15computeTxParamsEt9Directiond @332
    _ZN11AmcPilotD2D15getMultiBandCqiEt9Directiond @333
    _ZN11AmcPilotD2D24setPreconfiguredTxParamsEt @334
    _ZN11AmcPilotD2DC2EP6LteAmc @335
    _ZN11AmcPilotD2DD0Ev @336
    _ZN11AssociateId14setAssociateIdERKN3mec11AssociateIdE @337
    _ZN11AssociateId7setTypeENSt7__cxx1112basic_stringIcSt11char_traitsIcESaIcEEE @338
    _ZN11AssociateId8setValueENSt7__cxx1112basic_stringIcSt11char_traitsIcESaIcEEE @339
    _ZN11AssociateId9getNodeIdEv @340
    _ZN11AssociateIdC1ERN3mec11AssociateIdE @341
    _ZN11AssociateIdC1ERNSt7__cxx1112basic_stringIcSt11char_traitsIcESaIcEEES6_ @342
    _ZN11AssociateIdC1Ev @343
    _ZN11AssociateIdC2ERN3mec11AssociateIdE @344
    _ZN11AssociateIdC2ERNSt7__cxx1112basic_stringIcSt11char_traitsIcESaIcEEES6_ @345
    _ZN11AssociateIdC2Ev @346
    _ZN11AssociateIdD0Ev @347
    _ZN11AssociateIdD1Ev @348
    _ZN11AssociateIdD2Ev @349
    _ZN11BurstPacket12parsimUnpackEPN7omnetpp11cCommBufferE @350
    _ZN11BurstPacket14setArrivalTimeEN7omnetpp7SimTimeE @351
    _ZN11BurstPacket14setPayloadSizeEj @352
    _ZN11BurstPacket19setPayloadTimestampEN7omnetpp7SimTimeE @353
    _ZN11BurstPacket4copyERKS_ @354
    _ZN11BurstPacket8setMsgIdEj @355
    _ZN11BurstPacketC1ERKS_ @356
    _ZN11BurstPacketC1Ev @357
    _ZN11BurstPacketC2ERKS_ @358
    _ZN11BurstPacketC2Ev @359
    _ZN11BurstPacketD0Ev @360
    _ZN11BurstPacketD1Ev @361
    _ZN11BurstPacketD2Ev @362
    _ZN11BurstPacketaSERKS_ @363
    _ZN11BurstSender10initializeEi @364
    _ZN11BurstSender10sendPacketEv @365
    _ZN11BurstSender11initTrafficEv @366
    _ZN11BurstSender13handleMessageEPN7omnetpp8cMessageE @367
    _ZN11BurstSender9sendBurstEv @368
    _ZN11BurstSenderC1Ev @369
    _ZN11BurstSenderC2Ev @370
    _ZN11BurstSenderD0Ev @371
    _ZN11BurstSenderD1Ev @372
    _ZN11BurstSenderD2Ev @373
    _ZN11CarrierInfoD2Ev @374
    _ZN11CategoryRefC1ERKNSt7__cxx1112basic_stringIcSt11char_traitsIcESaIcEEES7_S7_S7_ @375
    _ZN11CategoryRefC2ERKNSt7__cxx1112basic_stringIcSt11char_traitsIcESaIcEEES7_S7_S7_ @376
    _ZN11CategoryRefC2ERKS_ @377
    _ZN11CategoryRefD0Ev @378
    _ZN11CategoryRefD2Ev @379
    _ZN11CbrReceiver10initializeEi @380
    _ZN11CbrReceiver13handleMessageEPN7omnetpp8cMessageE @381
    _ZN11CbrReceiver16cbrJitterSignal_E @382 DATA
    _ZN11CbrReceiver19cbrFrameLossSignal_E @383 DATA
    _ZN11CbrReceiver20cbrFrameDelaySignal_E @384 DATA
    _ZN11CbrReceiver23cbrReceivedBytesSignal_E @385 DATA
    _ZN11CbrReceiver23cbrReceivedThroughtput_E @386 DATA
    _ZN11CbrReceiver6finishEv @387
    _ZN11CbrReceiverD0Ev @388
    _ZN11CbrReceiverD2Ev @389
    _ZN11LteAirFrame26addRemoteUnitPhyDataVectorE17RemoteUnitPhyData @390
    _ZN11LteAirFrame26getRemoteUnitPhyDataVectorEv @391
    _ZN11LteAirFrameC2ERKS_ @392
    _ZN11LteAirFrameD0Ev @393
    _ZN11LteAirFrameD2Ev @394
    _ZN11LteFeedback13setPerBandCqiESt6vectorItSaItEEt @395
    _ZN11LteFeedback5resetEv @396
    _ZN11LteFeedbackC1Ev @397
    _ZN11LteFeedbackC2ERKS_ @398
    _ZN11LteFeedbackC2Ev @399
    _ZN11LteFeedbackD2Ev @400
    _ZN11LteMacQueue19isEnqueueablePacketEPN4inet6PacketE @401
    _ZN11LteMacQueue7popBackEv @402
    _ZN11LteMacQueue8popFrontEv @403
    _ZN11LteMacQueue8pushBackEPN7omnetpp7cPacketE @404
    _ZN11LteMacQueue9pushFrontEPN7omnetpp7cPacketE @405
    _ZN11LteMacQueueC1ERKS_ @406
    _ZN11LteMacQueueC1Ei @407
    _ZN11LteMacQueueC2ERKS_ @408
    _ZN11LteMacQueueC2Ei @409
    _ZN11LteMacQueueD0Ev @410
    _ZN11LteMacQueueaSERKS_ @411
    _ZN11LteMacUeD2D10doHandoverEt @412
    _ZN11LteMacUeD2D10initializeEi @413
    _ZN11LteMacUeD2D10macPduMakeEj @414
    _ZN11LteMacUeD2D10triggerBsrEj @415
    _ZN11LteMacUeD2D12isD2DCapableEv @416
    _ZN11LteMacUeD2D12macHandleRacEPN7omnetpp7cPacketE @417
    _ZN11LteMacUeD2D13handleMessageEPN7omnetpp8cMessageE @418
    _ZN11LteMacUeD2D14macHandleGrantEPN7omnetpp7cPacketE @419
    _ZN11LteMacUeD2D17handleSelfMessageEv @420
    _ZN11LteMacUeD2D22macHandleD2DModeSwitchEPN7omnetpp7cPacketE @421
    _ZN11LteMacUeD2D24getPreconfiguredTxParamsEv @422
    _ZN11LteMacUeD2D7makeBsrEi @423
    _ZN11LteMacUeD2D8checkRACEv @424
    _ZN11LteMacUeD2DC1Ev @425
    _ZN11LteMacUeD2DC2Ev @426
    _ZN11LteMacUeD2DD0Ev @427
    _ZN11LteMacUeD2DD1Ev @428
    _ZN11LteMacUeD2DD2Ev @429
    _ZN11LtePhyUeD2D10doHandoverEv @430
    _ZN11LtePhyUeD2D10initializeEi @431
    _ZN11LtePhyUeD2D12sendFeedbackESt6vectorIS0_I11LteFeedbackSaIS1_EESaIS3_EES5_15FeedbackRequest @432
    _ZN11LtePhyUeD2D13storeAirFrameEP11LteAirFrame @433
    _ZN11LtePhyUeD2D14decodeAirFrameEP11LteAirFrameP15UserControlInfo @434
    _ZN11LtePhyUeD2D14handleAirFrameEPN7omnetpp8cMessageE @435
    _ZN11LtePhyUeD2D15extractAirFrameEv @436
    _ZN11LtePhyUeD2D15triggerHandoverEv @437
    _ZN11LtePhyUeD2D17handleSelfMessageEPN7omnetpp8cMessageE @438
    _ZN11LtePhyUeD2D18handleUpperMessageEPN7omnetpp8cMessageE @439
    _ZN11LtePhyUeD2D6finishEv @440
    _ZN11LtePhyUeD2D8getTxPwrE9Direction @441
    _ZN11LtePhyUeD2DC1Ev @442
    _ZN11LtePhyUeD2DC2Ev @443
    _ZN11LtePhyUeD2DD0Ev @444
    _ZN11LtePhyUeD2DD1Ev @445
    _ZN11LtePhyUeD2DD2Ev @446
    _ZN11LteProtocol3gtpE @447 DATA
    _ZN11LteProtocol3rlcE @448 DATA
    _ZN11LteProtocol4pdcpE @449 DATA
    _ZN11LteProtocol4x2apE @450 DATA
    _ZN11LteProtocol6ipv4uuE @451 DATA
    _ZN11LteProtocol6ltemacE @452 DATA
    _ZN11LteRlcAmPdu11eraseBitmapEy @453
    _ZN11LteRlcAmPdu12appendBitmapEb @454
    _ZN11LteRlcAmPdu12getBitmapVecEv @455
    _ZN11LteRlcAmPdu12insertBitmapEyb @456
    _ZN11LteRlcAmPdu12setBitmapVecESt6vectorIbSaIbEE @457
    _ZN11LteRlcAmPdu18setBitmapArraySizeEy @458
    _ZN11LteRlcAmPdu9setBitmapEyb @459
    _ZN11LteRlcAmPduD0Ev @460
    _ZN11LteRlcAmPduD2Ev @461
    _ZN11LteRlcAmSdu12parsimUnpackEPN7omnetpp11cCommBufferE @462
    _ZN11LteRlcAmSdu4copyERKS_ @463
    _ZN11LteRlcAmSduC1ERKS_ @464
    _ZN11LteRlcAmSduC1Ev @465
    _ZN11LteRlcAmSduC2ERKS_ @466
    _ZN11LteRlcAmSduC2Ev @467
    _ZN11LteRlcAmSduD0Ev @468
    _ZN11LteRlcAmSduD1Ev @469
    _ZN11LteRlcAmSduD2Ev @470
    _ZN11LteRlcAmSduaSERKS_ @471
    _ZN11LteRlcUmD2D11getTxBufferEN4inet12IntrusivePtrI15FlowControlInfoEE @472
    _ZN11LteRlcUmD2D12deleteQueuesEt @473
    _ZN11LteRlcUmD2D18handleLowerMessageEPN7omnetpp7cPacketE @474
    _ZN11LteRlcUmD2D18isEmptyingTxBufferEt @475
    _ZN11LteRlcUmD2D25resumeDownstreamInPacketsEt @476
    _ZN11LteRlcUmD2DD0Ev @477
    _ZN11LteRlcUmD2DD2Ev @478
    _ZN11MEAppPacket10setUeAppIDEi @479
    _ZN11MEAppPacket12parsimUnpackEPN7omnetpp11cCommBufferE @480
    _ZN11MEAppPacket12setTimestampEN7omnetpp7SimTimeE @481
    _ZN11MEAppPacket13setSourcePortEi @482
    _ZN11MEAppPacket14setRequiredCpuEd @483
    _ZN11MEAppPacket14setRequiredRamEd @484
    _ZN11MEAppPacket15setMEModuleNameEPKc @485
    _ZN11MEAppPacket15setMEModuleTypeEPKc @486
    _ZN11MEAppPacket15setRequiredDiskEd @487
    _ZN11MEAppPacket16setSourceAddressEPKc @488
    _ZN11MEAppPacket18setDestinationPortEi @489
    _ZN11MEAppPacket18setRequiredServiceEPKc @490
    _ZN11MEAppPacket21setDestinationAddressEPKc @491
    _ZN11MEAppPacket24setDestinationMecAppPortEi @492
    _ZN11MEAppPacket27setDestinationMecAppAddressEPKc @493
    _ZN11MEAppPacket4copyERKS_ @494
    _ZN11MEAppPacket6setSnoEj @495
    _ZN11MEAppPacket7setTypeEPKc @496
    _ZN11MEAppPacketC1ERKS_ @497
    _ZN11MEAppPacketC1Ev @498
    _ZN11MEAppPacketC2ERKS_ @499
    _ZN11MEAppPacketC2Ev @500
    _ZN11MEAppPacketD0Ev @501
    _ZN11MEAppPacketD1Ev @502
    _ZN11MEAppPacketD2Ev @503
    _ZN11MEAppPacketaSERKS_ @504
    _ZN11MultihopD2D10initializeEi @505
    _ZN11MultihopD2D10sendPacketEv @506
    _ZN11MultihopD2D11handleEventEj @507
    _ZN11MultihopD2D11relayPacketEPN7omnetpp8cMessageE @508
    _ZN11MultihopD2D13handleMessageEPN7omnetpp8cMessageE @509
    _ZN11MultihopD2D13markAsRelayedEj @510
    _ZN11MultihopD2D14markAsReceivedEj @511
    _ZN11MultihopD2D16handleRcvdPacketEPN7omnetpp8cMessageE @512
    _ZN11MultihopD2D16isAlreadyRelayedEj @513
    _ZN11MultihopD2D17isAlreadyReceivedEj @514
    _ZN11MultihopD2D18handleTrickleTimerEPN7omnetpp8cMessageE @515
    _ZN11MultihopD2D18numMultihopD2DAppsE @516 DATA
    _ZN11MultihopD2D21isWithinBroadcastAreaEN4inet5CoordEd @517
    _ZN11MultihopD2D6finishEv @518
    _ZN11MultihopD2DC1Ev @519
    _ZN11MultihopD2DC2Ev @520
    _ZN11MultihopD2DD0Ev @521
    _ZN11MultihopD2DD1Ev @522
    _ZN11MultihopD2DD2Ev @523
    _ZN11NRPdcpRrcUe10initializeEi @524
    _ZN11NRPdcpRrcUe11getNrNodeIdEv @525
    _ZN11NRPdcpRrcUe11getRxEntityEj @526
    _ZN11NRPdcpRrcUe11getTxEntityEj @527
    _ZN11NRPdcpRrcUe12fromDataPortEPN7omnetpp7cPacketE @528
    _ZN11NRPdcpRrcUe14deleteEntitiesEt @529
    _ZN11NRPdcpRrcUe16sendToLowerLayerEPN4inet6PacketE @530
    _ZN11NRPdcpRrcUe25isDualConnectivityEnabledEv @531
    _ZN11NRPdcpRrcUe9getDestIdEN4inet12IntrusivePtrI15FlowControlInfoEE @532
    _ZN11NRPdcpRrcUeD0Ev @533
    _ZN11PhyPisaData10getChannelEj @534
    _ZN11PhyPisaData7getBlerEiii @535
    _ZN11PhyPisaDataC1Ev @536
    _ZN11PhyPisaDataC2Ev @537
    _ZN11PhyPisaDataD0Ev @538
    _ZN11PhyPisaDataD1Ev @539
    _ZN11PhyPisaDataD2Ev @540
    _ZN11RNICellInfoC1EP25BaseStationStatsCollector @541
    _ZN11RNICellInfoC1Ev @542
    _ZN11RNICellInfoC2EP25BaseStationStatsCollector @543
    _ZN11RNICellInfoC2Ev @544
    _ZN11RNICellInfoD0Ev @545
    _ZN11RNICellInfoD1Ev @546
    _ZN11RNICellInfoD2Ev @547
    _ZN11ServiceInfoC1ERKNSt7__cxx1112basic_stringIcSt11char_traitsIcESaIcEEES7_RK11CategoryRefS7_S7_RK13TransportInfoS7_S7_S7_bb @548
    _ZN11ServiceInfoC2ERKNSt7__cxx1112basic_stringIcSt11char_traitsIcESaIcEEES7_RK11CategoryRefS7_S7_RK13TransportInfoS7_S7_S7_bb @549
    _ZN11ServiceInfoC2ERKS_ @550
    _ZN11ServiceInfoD0Ev @551
    _ZN11ServiceInfoD2Ev @552
    _ZN11TMultiTimer3addEN7omnetpp7SimTimeEj @553
    _ZN11TMultiTimer6handleEj @554
    _ZN11TMultiTimer6removeEj @555
    _ZN11TMultiTimerD0Ev @556
    _ZN11TMultiTimerD2Ev @557
    _ZN11UESafetyApp10initializeEi @558
    _ZN11UESafetyApp13handleMessageEPN7omnetpp8cMessageE @559
    _ZN11UESafetyApp14sendDataPacketEN7omnetpp7SimTimeE @560
    _ZN11UESafetyApp22sendCircleInformationsEv @561
    _ZN11UESafetyApp25handleNotificationMessageEPN7omnetpp8cMessageE @562
    _ZN11UESafetyApp25sendStopMEWarningAlertAppEv @563
    _ZN11UESafetyApp26sendStartMEWarningAlertAppEv @564
    _ZN11UESafetyApp27handleInfoMEWarningAlertAppEPN7omnetpp8cMessageE @565
    _ZN11UESafetyApp29failed_to_start_mecApp_SignalE @566 DATA
    _ZN11UESafetyApp30handleAckStopMEWarningAlertAppEPN7omnetpp8cMessageE @567
    _ZN11UESafetyApp31handleAckStartMEWarningAlertAppEPN7omnetpp8cMessageE @568
    _ZN11UESafetyApp6finishEv @569
    _ZN11UESafetyAppC1Ev @570
    _ZN11UESafetyAppC2Ev @571
    _ZN11UESafetyAppD0Ev @572
    _ZN11UESafetyAppD1Ev @573
    _ZN11UESafetyAppD2Ev @574
    _ZN11X2AppClient10initializeEi @575
    _ZN11X2AppClient17socketDataArrivedEPN4inet10SctpSocketEPNS0_6PacketEb @576
    _ZN11X2AppClient17socketEstablishedEPN4inet10SctpSocketEm @577
    _ZN11X2AppClientD0Ev @578
    _ZN11X2AppServer10initializeEi @579
    _ZN11X2AppServer11handleTimerEPN7omnetpp8cMessageE @580
    _ZN11X2AppServer13handleMessageEPN7omnetpp8cMessageE @581
    _ZN11X2AppServer15generateAndSendEPN4inet6PacketE @582
    _ZN11X2AppServerD0Ev @583
    _ZN12AmcPilotAuto14getUsableBandsEtRPSt6vectorItSaItEE @584
    _ZN12AmcPilotAuto14setUsableBandsEtSt6vectorItSaItEE @585
    _ZN12AmcPilotAuto15computeTxParamsEt9Directiond @586
    _ZN12AmcPilotAuto15getMultiBandCqiEt9Directiond @587
    _ZN12AmcPilotAutoC2EP6LteAmc @588
    _ZN12AmcPilotAutoD0Ev @589
    _ZN12CircularListIjEaSERKS0_ @590
    _ZN12EndPointInfoC1ERKNSt7__cxx1112basic_stringIcSt11char_traitsIcESaIcEEEi @591
    _ZN12EndPointInfoC2ERKNSt7__cxx1112basic_stringIcSt11char_traitsIcESaIcEEEi @592
    _ZN12EndPointInfoD0Ev @593
    _ZN12EndPointInfoD2Ev @594
    _ZN12LcgScheduler16setUeUlSchedulerEP16LteSchedulerUeUl @595
    _ZN12LcgScheduler21getScheduledBytesListEv @596
    _ZN12LcgScheduler8scheduleEj9Direction @597
    _ZN12LcgSchedulerC1EP8LteMacUe @598
    _ZN12LcgSchedulerC2EP8LteMacUe @599
    _ZN12LcgSchedulerD0Ev @600
    _ZN12LcgSchedulerD1Ev @601
    _ZN12LcgSchedulerD2Ev @602
    _ZN12LcgScheduleraSERKS_ @603
    _ZN12LocationInfoC1ERKN4inet5CoordE @604
    _ZN12LocationInfoC1ERKN4inet5CoordES3_ @605
    _ZN12LocationInfoC1Ev @606
    _ZN12LocationInfoC2ERKN4inet5CoordE @607
    _ZN12LocationInfoC2ERKN4inet5CoordES3_ @608
    _ZN12LocationInfoC2Ev @609
    _ZN12LocationInfoD0Ev @610
    _ZN12LocationInfoD1Ev @611
    _ZN12LocationInfoD2Ev @612
    _ZN12LteMacBuffer12setProcessedEj @613
    _ZN12LteMacBuffer5frontEv @614
    _ZN12LteMacBuffer7popBackEv @615
    _ZN12LteMacBuffer8popFrontEv @616
    _ZN12LteMacBuffer8pushBackESt4pairIiN7omnetpp7SimTimeEE @617
    _ZN12LteMacBuffer9pushFrontESt4pairIiN7omnetpp7SimTimeEE @618
    _ZN12LteMacBufferC1ERK11LteMacQueue @619
    _ZN12LteMacBufferC1Ev @620
    _ZN12LteMacBufferC2ERK11LteMacQueue @621
    _ZN12LteMacBufferC2Ev @622
    _ZN12LteMacBufferD1Ev @623
    _ZN12LteMacBufferD2Ev @624
    _ZN12LteMacBufferaSERKS_ @625
    _ZN12LteMacEnbD2D10initializeEi @626
    _ZN12LteMacEnbD2D10sendGrantsEPSt3mapIdS0_ISt4pairIjtEjSt4lessIS2_ESaIS1_IKS2_jEEES3_IdESaIS1_IKdS8_EEE @627
    _ZN12LteMacEnbD2D12deleteQueuesEt @628
    _ZN12LteMacEnbD2D12isD2DCapableEv @629
    _ZN12LteMacEnbD2D12macPduUnmakeEPN7omnetpp7cPacketE @630
    _ZN12LteMacEnbD2D13handleMessageEPN7omnetpp8cMessageE @631
    _ZN12LteMacEnbD2D15clearBsrBuffersEt @632
    _ZN12LteMacEnbD2D16flushHarqBuffersEv @633
    _ZN12LteMacEnbD2D16getConflictGraphEv @634
    _ZN12LteMacEnbD2D17handleSelfMessageEv @635
    _ZN12LteMacEnbD2D17isReuseD2DEnabledEv @636
    _ZN12LteMacEnbD2D20macHandleFeedbackPktEPN7omnetpp7cPacketE @637
    _ZN12LteMacEnbD2D22isReuseD2DMultiEnabledEv @638
    _ZN12LteMacEnbD2D22macHandleD2DModeSwitchEPN7omnetpp7cPacketE @639
    _ZN12LteMacEnbD2D23getHarqBuffersMirrorD2DEd @640
    _ZN12LteMacEnbD2D26deleteHarqBuffersMirrorD2DEt @641
    _ZN12LteMacEnbD2D26deleteHarqBuffersMirrorD2DEtt @642
    _ZN12LteMacEnbD2D26sendModeSwitchNotificationEtt10LteD2DModeS0_ @643
    _ZN12LteMacEnbD2D7fromPhyEPN7omnetpp7cPacketE @644
    _ZN12LteMacEnbD2DC1Ev @645
    _ZN12LteMacEnbD2DC2Ev @646
    _ZN12LteMacEnbD2DD0Ev @647
    _ZN12LteMacEnbD2DD1Ev @648
    _ZN12LteMacEnbD2DD2Ev @649
    _ZN12LteMaxCiComp12getBandLimitEPSt6vectorI9BandLimitSaIS1_EEt @650
    _ZN12LteMaxCiComp14commitScheduleEv @651
    _ZN12LteMaxCiComp15prepareScheduleEv @652
    _ZN12LteMaxCiCompD0Ev @653
    _ZN12LteMaxCiCompD1Ev @654
    _ZN12LtePdcpRrcUe10initializeEi @655
    _ZN12LtePdcpRrcUe12getDirectionEv @656
    _ZN12LtePdcpRrcUe14deleteEntitiesEt @657
    _ZN12LtePdcpRrcUe9getDestIdEN4inet12IntrusivePtrI15FlowControlInfoEE @658
    _ZN12LtePdcpRrcUeD0Ev @659
    _ZN12LtePhyEnbD2D10initializeEi @660
    _ZN12LtePhyEnbD2D14handleAirFrameEPN7omnetpp8cMessageE @661
    _ZN12LtePhyEnbD2D15requestFeedbackEP15UserControlInfoP11LteAirFramePN4inet6PacketE @662
    _ZN12LtePhyEnbD2DD0Ev @663
    _ZN12LtePhyEnbD2DD1Ev @664
    _ZN12LtePhyEnbD2DD2Ev @665
    _ZN12LteScheduler12requestGrantEjjRbS0_S0_PSt6vectorI9BandLimitSaIS2_EE @666
    _ZN12LteScheduler14commitScheduleEv @667
    _ZN12LteScheduler15prepareScheduleEv @668
    _ZN12LteScheduler15setEnbSchedulerEP15LteSchedulerEnb @669
    _ZN12LteScheduler19initializeBandLimitEv @670
    _ZN12LteScheduler19scheduleRacRequestsEv @671
    _ZN12LteScheduler19setCarrierFrequencyEd @672
    _ZN12LteScheduler20updateSchedulingInfoEv @673
    _ZN12LteScheduler22notifyActiveConnectionEj @674
    _ZN12LteScheduler22requestGrantBackgroundEjjRbS0_S0_PSt6vectorI9BandLimitSaIS2_EE @675
    _ZN12LteScheduler23scheduleRetransmissionsEv @676
    _ZN12LteScheduler30decreaseSchedulerPeriodCounterEv @677
    _ZN12LteScheduler31buildCarrierActiveConnectionSetEv @678
    _ZN12LteScheduler32initializeSchedulerPeriodCounterEt @679
    _ZN12LteScheduler8scheduleEv @680
    _ZN12LteSchedulerD0Ev @681
    _ZN12LteSchedulerD2Ev @682
    _ZN12LteX2Manager10initializeEi @683
    _ZN12LteX2Manager13handleMessageEPN7omnetpp8cMessageE @684
    _ZN12LteX2Manager6fromX2EPN4inet6PacketE @685
    _ZN12LteX2Manager9fromStackEPN4inet6PacketE @686
    _ZN12LteX2ManagerD0Ev @687
    _ZN12LteX2ManagerD2Ev @688
    _ZN12LteX2Message5popIeEv @689
    _ZN12LteX2Message6pushIeEP20X2InformationElement @690
    _ZN12LteX2MessageD0Ev @691
    _ZN12LteX2MessageD2Ev @692
    _ZN12LteX2MessageaSERKS_ @693
    _ZN12MECSafetyApp10initializeEi @694
    _ZN12MECSafetyApp11establishedEi @695
    _ZN12MECSafetyApp13handleMessageEPN7omnetpp8cMessageE @696
    _ZN12MECSafetyApp14sendDataPacketEPN7omnetpp8cMessageE @697
    _ZN12MECSafetyApp15computationTimeEi @698
    _ZN12MECSafetyApp15handleUeMessageEPN7omnetpp8cMessageE @699
    _ZN12MECSafetyApp15scheduleNextMsgEPN7omnetpp8cMessageE @700
    _ZN12MECSafetyApp16handleMp1MessageEi @701
    _ZN12MECSafetyApp16sendSubscriptionEv @702
    _ZN12MECSafetyApp17handleHttpMessageEi @703
    _ZN12MECSafetyApp17handleSelfMessageEPN7omnetpp8cMessageE @704
    _ZN12MECSafetyApp18modifySubscriptionEv @705
    _ZN12MECSafetyApp20handleServiceMessageEi @706
    _ZN12MECSafetyApp21mecapp_ul_delaySignalE @707 DATA
    _ZN12MECSafetyApp22handleProcessedMessageEPN7omnetpp8cMessageE @708
    _ZN12MECSafetyApp22sendDeleteSubscriptionEv @709
    _ZN12MECSafetyApp24mecapp_pk_rcv_sizeSignalE @710 DATA
    _ZN12MECSafetyApp6finishEv @711
    _ZN12MECSafetyAppC1Ev @712
    _ZN12MECSafetyAppC2Ev @713
    _ZN12MECSafetyAppD0Ev @714
    _ZN12MECSafetyAppD1Ev @715
    _ZN12MECSafetyAppD2Ev @716
    _ZN12NRPdcpRrcEnb10activeUeULEPSt3setItSt4lessItESaItEE @717
    _ZN12NRPdcpRrcEnb10initializeEi @718
    _ZN12NRPdcpRrcEnb11getRxEntityEj @719
    _ZN12NRPdcpRrcEnb11getTxEntityEj @720
    _ZN12NRPdcpRrcEnb12fromDataPortEPN7omnetpp7cPacketE @721
    _ZN12NRPdcpRrcEnb14fromLowerLayerEPN7omnetpp7cPacketE @722
    _ZN12NRPdcpRrcEnb23forwardDataToTargetNodeEPN4inet6PacketEt @723
    _ZN12NRPdcpRrcEnb25isDualConnectivityEnabledEv @724
    _ZN12NRPdcpRrcEnb25receiveDataFromSourceNodeEPN4inet6PacketEt @725
    _ZN12NRPdcpRrcEnb9getDestIdEN4inet12IntrusivePtrI15FlowControlInfoEE @726
    _ZN12NRPdcpRrcEnbD0Ev @727
    _ZN12SafetyPacket12parsimUnpackEPN7omnetpp11cCommBufferE @728
    _ZN12SafetyPacket12setPositionXEd @729
    _ZN12SafetyPacket12setPositionYEd @730
    _ZN12SafetyPacket12setPositionZEd @731
    _ZN12SafetyPacket12setUeOmnetIDEi @732
    _ZN12SafetyPacket19setPayloadTimestampEN7omnetpp7SimTimeE @733
    _ZN12SafetyPacket4copyERKS_ @734
    _ZN12SafetyPacket9setDangerEb @735
    _ZN12SafetyPacketC1ERKS_ @736
    _ZN12SafetyPacketC1Ev @737
    _ZN12SafetyPacketC2ERKS_ @738
    _ZN12SafetyPacketC2Ev @739
    _ZN12SafetyPacketD0Ev @740
    _ZN12SafetyPacketD1Ev @741
    _ZN12SafetyPacketD2Ev @742
    _ZN12SafetyPacketaSERKS_ @743
    _ZN12UERequestApp10initializeEi @744
    _ZN12UERequestApp11sendRequestEv @745
    _ZN12UERequestApp11sendStopAppEv @746
    _ZN12UERequestApp12recvResponseEPN7omnetpp8cMessageE @747
    _ZN12UERequestApp13handleMessageEPN7omnetpp8cMessageE @748
    _ZN12UERequestApp13handleStopAppEPN7omnetpp8cMessageE @749
    _ZN12UERequestApp21sendStopMECRequestAppEv @750
    _ZN12UERequestApp22sendStartMECRequestAppEv @751
    _ZN12UERequestApp26handleAckStopMECRequestAppEPN7omnetpp8cMessageE @752
    _ZN12UERequestApp27handleAckStartMECRequestAppEPN7omnetpp8cMessageE @753
    _ZN12UERequestApp6finishEv @754
    _ZN12UERequestAppC1Ev @755
    _ZN12UERequestAppC2Ev @756
    _ZN12UERequestAppD0Ev @757
    _ZN12UERequestAppD1Ev @758
    _ZN12UERequestAppD2Ev @759
    _ZN12UserTxParams20restoreDefaultValuesEv @760
    _ZN12UserTxParamsC2ERKS_ @761
    _ZN12UserTxParamsD0Ev @762
    _ZN12UserTxParamsD2Ev @763
    _ZN12VoDUDPClient10initializeEi @764
    _ZN12VoDUDPClient13handleMessageEPN7omnetpp8cMessageE @765
    _ZN12VoDUDPClient13receiveStreamEP9VoDPacket @766
    _ZN12VoDUDPClient6finishEv @767
    _ZN12VoDUDPClientD0Ev @768
    _ZN12VoDUDPClientD2Ev @769
    _ZN12VoDUDPServer10initializeEi @770
    _ZN12VoDUDPServer13handleMessageEPN7omnetpp8cMessageE @771
    _ZN12VoDUDPServer16handleSVCMessageEPN7omnetpp8cMessageE @772
    _ZN12VoDUDPServer6finishEv @773
    _ZN12VoDUDPServer9svcPacketC2EOS0_ @774
    _ZN12VoDUDPServer9svcPacketC2ERKS0_ @775
    _ZN12VoDUDPServer9svcPacketD2Ev @776
    _ZN12VoDUDPServerC1Ev @777
    _ZN12VoDUDPServerC2Ev @778
    _ZN12VoDUDPServerD0Ev @779
    _ZN12VoDUDPServerD1Ev @780
    _ZN12VoDUDPServerD2Ev @781
    _ZN12VoIPReceiver10initializeEi @782
    _ZN12VoIPReceiver13handleMessageEPN7omnetpp8cMessageE @783
    _ZN12VoIPReceiver6eModelEN7omnetpp7SimTimeEd @784
    _ZN12VoIPReceiver6finishEv @785
    _ZN12VoIPReceiver7playoutEb @786
    _ZN12VoIPReceiverD0Ev @787
    _ZN12VoIPReceiverD1Ev @788
    _ZN12VoIPReceiverD2Ev @789
    _ZN13AlertReceiver10initializeEi @790
    _ZN13AlertReceiver13handleMessageEPN7omnetpp8cMessageE @791
    _ZN13AlertReceiverD0Ev @792
    _ZN13AlertReceiverD2Ev @793
    _ZN13AttributeBase6toJsonB5cxx11ERKx @794
    _ZN13AttributeBase6toJsonB5cxx11ERS_ @795
    _ZN13AttributeBase6toJsonERKNSt7__cxx1112basic_stringIcSt11char_traitsIcESaIcEEE @796
    _ZN13AttributeBase6toJsonEb @797
    _ZN13AttributeBase6toJsonEd @798
    _ZN13AttributeBase6toJsonEi @799
    _ZN13AttributeBase6toJsonEx @800
    _ZN13AttributeBaseC2Ev @801
    _ZN13AttributeBaseD0Ev @802
    _ZN13AttributeBaseD1Ev @803
    _ZN13AttributeBaseD2Ev @804
    _ZN13BurstReceiver10initializeEi @805
    _ZN13BurstReceiver13handleMessageEPN7omnetpp8cMessageE @806
    _ZN13BurstReceiverD0Ev @807
    _ZN13BurstReceiverD2Ev @808
    _ZN13ChannelAccess10initializeEi @809
    _ZN13ChannelAccess13receiveSignalEPN7omnetpp10cComponentEiPNS0_7cObjectES4_ @810
    _ZN13ChannelAccess13sendToChannelEP8AirFrame @811
    _ZN13ChannelAccess17getChannelControlEv @812
    _ZN13ChannelAccess20getChannelControlParEPKc @813
    _ZN13ChannelAccessD0Ev @814
    _ZN13ChannelAccessD1Ev @815
    _ZN13ChannelAccessD2Ev @816
    _ZN13ConflictGraph18clearConflictGraphEv @817
    _ZN13ConflictGraph18printConflictGraphEv @818
    _ZN13ConflictGraph20computeConflictGraphEv @819
    _ZN13ConflictGraphC2EP12LteMacEnbD2Dbb @820
    _ZN13ConflictGraphD0Ev @821
    _ZN13ConflictGraphD1Ev @822
    _ZN13ConflictGraphD2Ev @823
    _ZN13LocationUtils14getCoordinatesEt @824
    _ZN13LocationUtils8getSpeedEt @825
    _ZN13LteHarqUnitTx10extractPduEv @826
    _ZN13LteHarqUnitTx11getCodewordEv @827
    _ZN13LteHarqUnitTx11getMacPduIdEv @828
    _ZN13LteHarqUnitTx11pduFeedbackE18HarqAcknowledgment @829
    _ZN13LteHarqUnitTx12getPduLengthEv @830
    _ZN13LteHarqUnitTx12markSelectedEv @831
    _ZN13LteHarqUnitTx13forceDropUnitEv @832
    _ZN13LteHarqUnitTx16getTransmissionsEv @833
    _ZN13LteHarqUnitTx6getPduEv @834
    _ZN13LteHarqUnitTx7dropPduEv @835
    _ZN13LteHarqUnitTx7getAcidEv @836
    _ZN13LteHarqUnitTx7isEmptyEv @837
    _ZN13LteHarqUnitTx7isReadyEv @838
    _ZN13LteHarqUnitTx8isMarkedEv @839
    _ZN13LteHarqUnitTx8selfNackEv @840
    _ZN13LteHarqUnitTx9getStatusEv @841
    _ZN13LteHarqUnitTx9getTxTimeEv @842
    _ZN13LteHarqUnitTx9insertPduEPN4inet6PacketE @843
    _ZN13LteHarqUnitTx9resetUnitEv @844
    _ZN13LteHarqUnitTxC1EhtP10LteMacBaseS1_ @845
    _ZN13LteHarqUnitTxC2EhtP10LteMacBaseS1_ @846
    _ZN13LteHarqUnitTxD0Ev @847
    _ZN13LteHarqUnitTxD1Ev @848
    _ZN13LteHarqUnitTxD2Ev @849
    _ZN13LteHarqUnitTxaSERKS_ @850
    _ZN13LteMaxCiOptMB12readSolutionEv @851
    _ZN13LteMaxCiOptMB13launchProblemEv @852
    _ZN13LteMaxCiOptMB14commitScheduleEv @853
    _ZN13LteMaxCiOptMB15applySchedulingEv @854
    _ZN13LteMaxCiOptMB15generateProblemEv @855
    _ZN13LteMaxCiOptMB15prepareScheduleEv @856
    _ZN13LteMaxCiOptMBC1Ev @857
    _ZN13LteMaxCiOptMBC2Ev @858
    _ZN13LteMaxCiOptMBD0Ev @859
    _ZN13LteMaxCiOptMBD1Ev @860
    _ZN13LteMaxCiOptMBD2Ev @861
    _ZN13LtePdcpRrcEnb10initializeEi @862
    _ZN13LtePdcpRrcEnb12getDirectionEv @863
    _ZN13LtePdcpRrcEnb14deleteEntitiesEt @864
    _ZN13LtePdcpRrcEnb9getDestIdEN4inet12IntrusivePtrI15FlowControlInfoEE @865
    _ZN13LtePdcpRrcEnbD0Ev @866
    _ZN13LteRlcDataPdu13getRlcSduListB5cxx11Ev @867
    _ZN13LteRlcDataPdu14getRlcSduSizesB5cxx11Ev @868
    _ZN13LteRlcDataPdu14setFramingInfoEt @869
    _ZN13LteRlcDataPdu20setPduSequenceNumberEj @870
    _ZN13LteRlcDataPdu4copyERKS_ @871
    _ZN13LteRlcDataPdu6popSduERy @872
    _ZN13LteRlcDataPdu7pushSduEPN4inet6PacketE @873
    _ZN13LteRlcDataPdu7pushSduEPN4inet6PacketEi @874
    _ZN13LteRlcDataPduC2ERKS_ @875
    _ZN13LteRlcDataPduC2Ev @876
    _ZN13LteRlcDataPduD0Ev @877
    _ZN13LteRlcDataPduD2Ev @878
    _ZN13MecRequestApp10initializeEi @879
    _ZN13MecRequestApp11requestRTT_E @880 DATA
    _ZN13MecRequestApp11sendRequestEv @881
    _ZN13MecRequestApp12recvResponseEPN7omnetpp8cMessageE @882
    _ZN13MecRequestApp12requestSize_E @883 DATA
    _ZN13MecRequestApp13handleMessageEPN7omnetpp8cMessageE @884
    _ZN13MecRequestApp16recvResponseSno_E @885 DATA
    _ZN13MecRequestApp6finishEv @886
    _ZN13MecRequestAppC1Ev @887
    _ZN13MecRequestAppC2Ev @888
    _ZN13MecRequestAppD0Ev @889
    _ZN13MecRequestAppD1Ev @890
    _ZN13MecRequestAppD2Ev @891
    _ZN13SocketManager10peerClosedEv @892
    _ZN13SocketManager11dataArrivedEPN4inet6PacketEb @893
    _ZN13SocketManager11establishedEv @894
    _ZN13SocketManager12socketClosedEPN4inet9TcpSocketE @895
    _ZN13SocketManager13getHostModuleEv @896
    _ZN13SocketManager13socketDeletedEPN4inet9TcpSocketE @897
    _ZN13SocketManager13socketFailureEPN4inet9TcpSocketEi @898
    _ZN13SocketManager13statusArrivedEPN4inet13TcpStatusInfoE @899
    _ZN13SocketManager15socketAvailableEPN4inet9TcpSocketEPNS0_16TcpAvailableInfoE @900
    _ZN13SocketManager16socketPeerClosedEPN4inet9TcpSocketE @901
    _ZN13SocketManager17socketDataArrivedEPN4inet9TcpSocketEPNS0_6PacketEb @902
    _ZN13SocketManager17socketEstablishedEPN4inet9TcpSocketE @903
    _ZN13SocketManager19socketStatusArrivedEPN4inet9TcpSocketEPNS0_13TcpStatusInfoE @904
    _ZN13SocketManager4initEP14MecServiceBasePN4inet9TcpSocketE @905
    _ZN13SocketManager6closedEv @906
    _ZN13SocketManager7failureEi @907
    _ZN13SocketManager9getSocketEv @908
    _ZN13SocketManagerD0Ev @909
    _ZN13SocketManagerD2Ev @910
    _ZN13TransportInfoC1ERKNSt7__cxx1112basic_stringIcSt11char_traitsIcESaIcEEES7_S7_S7_RK12EndPointInfo @911
    _ZN13TransportInfoC2ERKNSt7__cxx1112basic_stringIcSt11char_traitsIcESaIcEEES7_S7_S7_RK12EndPointInfo @912
    _ZN13TransportInfoC2ERKS_ @913
    _ZN13TransportInfoD0Ev @914
    _ZN13TransportInfoD2Ev @915
    _ZN13UALCMPMessage12parsimUnpackEPN7omnetpp11cCommBufferE @916
    _ZN13UALCMPMessage12setRequestIdEi @917
    _ZN13UALCMPMessage15setConnectionIdEi @918
    _ZN13UALCMPMessage4copyERKS_ @919
    _ZN13UALCMPMessage7setTypeEPKc @920
    _ZN13UALCMPMessageC1EPKcs @921
    _ZN13UALCMPMessageC1ERKS_ @922
    _ZN13UALCMPMessageC2EPKcs @923
    _ZN13UALCMPMessageC2ERKS_ @924
    _ZN13UALCMPMessageD0Ev @925
    _ZN13UALCMPMessageD1Ev @926
    _ZN13UALCMPMessageD2Ev @927
    _ZN13UALCMPMessageaSERKS_ @928
    _ZN14ChannelControl10initializeEv @929
    _ZN14ChannelControl11lookupRadioEPN7omnetpp7cModuleE @930
    _ZN14ChannelControl12checkChannelEi @931
    _ZN14ChannelControl12getNeighborsEPN15IChannelControl10RadioEntryE @932
    _ZN14ChannelControl13registerRadioEPN7omnetpp7cModuleEPNS0_5cGateE @933
    _ZN14ChannelControl13sendToChannelEPN15IChannelControl10RadioEntryEP8AirFrame @934
    _ZN14ChannelControl14calcInterfDistEv @935
    _ZN14ChannelControl14getNumChannelsEv @936
    _ZN14ChannelControl15enableReceptionEPN15IChannelControl10RadioEntryE @937
    _ZN14ChannelControl15setRadioChannelEPN15IChannelControl10RadioEntryEi @938
    _ZN14ChannelControl15unregisterRadioEPN15IChannelControl10RadioEntryE @939
    _ZN14ChannelControl16disableReceptionEPN15IChannelControl10RadioEntryE @940
    _ZN14ChannelControl16setRadioPositionEPN15IChannelControl10RadioEntryERKN4inet5CoordE @941
    _ZN14ChannelControl17updateConnectionsEPN15IChannelControl10RadioEntryE @942
    _ZN14ChannelControl19getPropagationSpeedEv @943
    _ZN14ChannelControl20getInterferenceRangeEPN15IChannelControl10RadioEntryE @944
    _ZN14ChannelControl22addOngoingTransmissionEPN15IChannelControl10RadioEntryEP8AirFrame @945
    _ZN14ChannelControl23getOngoingTransmissionsB5cxx11Ei @946
    _ZN14ChannelControl25purgeOngoingTransmissionsEv @947
    _ZN14ChannelControlC1Ev @948
    _ZN14ChannelControlC2Ev @949
    _ZN14ChannelControlD0Ev @950
    _ZN14ChannelControlD1Ev @951
    _ZN14ChannelControlD2Ev @952
    _ZN14EventGenerator10initializeEv @953
    _ZN14EventGenerator11notifyEventEv @954
    _ZN14EventGenerator12registerNodeEP11MultihopD2Dt @955
    _ZN14EventGenerator13handleMessageEPN7omnetpp8cMessageE @956
    _ZN14EventGenerator14unregisterNodeEP11MultihopD2Dt @957
    _ZN14EventGenerator20computeTargetNodeSetERSt3setItSt4lessItESaItEEtd @958
    _ZN14EventGeneratorC1Ev @959
    _ZN14EventGeneratorC2Ev @960
    _ZN14EventGeneratorD0Ev @961
    _ZN14EventGeneratorD1Ev @962
    _ZN14EventGeneratorD2Ev @963
    _ZN14FeedbackTester10initializeEv @964
    _ZN14FeedbackTester13handleMessageEPN7omnetpp8cMessageE @965
    _ZN14FeedbackTesterD0Ev @966
    _ZN14LteControlInfo10setRlcTypeEt @967
    _ZN14LteControlInfo10setTrafficEt @968
    _ZN14LteControlInfo11setSourceIdEt @969
    _ZN14LteControlInfo12parsimUnpackEPN7omnetpp11cCommBufferE @970
    _ZN14LteControlInfo12setDirectionEt @971
    _ZN14LteControlInfo14setApplicationEt @972
    _ZN14LteControlInfo14setD2dRxPeerIdEt @973
    _ZN14LteControlInfo14setD2dTxPeerIdEt @974
    _ZN14LteControlInfo19setMulticastGroupIdEi @975
    _ZN14LteControlInfo4copyERKS_ @976
    _ZN14LteControlInfo7setLcidEt @977
    _ZN14LteControlInfo9setDestIdEt @978
    _ZN14LteControlInfoC1ERKS_ @979
    _ZN14LteControlInfoC1Ev @980
    _ZN14LteControlInfoC2ERKS_ @981
    _ZN14LteControlInfoC2Ev @982
    _ZN14LteControlInfoD0Ev @983
    _ZN14LteControlInfoD1Ev @984
    _ZN14LteControlInfoD2Ev @985
    _ZN14LteControlInfoaSERKS_ @986
    _ZN14LteFeedbackPkt15setSourceNodeIdEt @987
    _ZN14LteFeedbackPkt28setLteFeedbackDoubleVectorDlESt6vectorIS0_I11LteFeedbackSaIS1_EESaIS3_EE @988
    _ZN14LteFeedbackPkt28setLteFeedbackDoubleVectorUlESt6vectorIS0_I11LteFeedbackSaIS1_EESaIS3_EE @989
    _ZN14LteFeedbackPkt29setLteFeedbackDoubleVectorD2DEtSt6vectorIS0_I11LteFeedbackSaIS1_EESaIS3_EE @990
    _ZN14LteFeedbackPktC2ERKS_ @991
    _ZN14LteFeedbackPktD0Ev @992
    _ZN14LteFeedbackPktD2Ev @993
    _ZN14LteMacPdu_Base11setMacPduIdEl @994
    _ZN14LteMacPdu_Base12parsimUnpackEPN7omnetpp11cCommBufferE @995
    _ZN14LteMacPdu_Base15getSduForUpdateEy @996
    _ZN14LteMacPdu_Base15setHeaderLengthEj @997
    _ZN14LteMacPdu_Base4copyERKS_ @998
    _ZN14LteMacPdu_BaseC2ERKS_ @999
    _ZN14LteMacPdu_BaseC2Ev @1000
    _ZN14LteMacPdu_BaseD0Ev @1001
    _ZN14LteMacPdu_BaseD1Ev @1002
    _ZN14LteMacPdu_BaseD2Ev @1003
    _ZN14LteMacPdu_BaseaSERKS_ @1004
    _ZN14LtePdcpRrcBase10initializeEi @1005
    _ZN14LtePdcpRrcBase10toDataPortEPN7omnetpp7cPacketE @1006
    _ZN14LtePdcpRrcBase11getNrNodeIdEv @1007
    _ZN14LtePdcpRrcBase11getRxEntityEj @1008
    _ZN14LtePdcpRrcBase11getTxEntityEj @1009
    _ZN14LtePdcpRrcBase12fromDataPortEPN7omnetpp7cPacketE @1010
    _ZN14LtePdcpRrcBase13handleMessageEPN7omnetpp8cMessageE @1011
    _ZN14LtePdcpRrcBase14deleteEntitiesEt @1012
    _ZN14LtePdcpRrcBase14fromLowerLayerEPN7omnetpp7cPacketE @1013
    _ZN14LtePdcpRrcBase14headerCompressEPN4inet6PacketE @1014
    _ZN14LtePdcpRrcBase14toEutranRrcSapEPN7omnetpp7cPacketE @1015
    _ZN14LtePdcpRrcBase16fromEutranRrcSapEPN7omnetpp7cPacketE @1016
    _ZN14LtePdcpRrcBase16headerDecompressEPN4inet6PacketE @1017
    _ZN14LtePdcpRrcBase16sendToLowerLayerEPN4inet6PacketE @1018
    _ZN14LtePdcpRrcBase16sendToUpperLayerEPN7omnetpp7cPacketE @1019
    _ZN14LtePdcpRrcBase20getPacketFlowManagerEv @1020
    _ZN14LtePdcpRrcBase20isCompressionEnabledEv @1021
    _ZN14LtePdcpRrcBase21setTrafficInformationEPN7omnetpp7cPacketEN4inet12IntrusivePtrI15FlowControlInfoEE @1022
    _ZN14LtePdcpRrcBase23forwardDataToTargetNodeEPN4inet6PacketEt @1023
    _ZN14LtePdcpRrcBase25isDualConnectivityEnabledEv @1024
    _ZN14LtePdcpRrcBase25receiveDataFromSourceNodeEPN4inet6PacketEt @1025
    _ZN14LtePdcpRrcBase6finishEv @1026
    _ZN14LtePdcpRrcBaseC2Ev @1027
    _ZN14LtePdcpRrcBaseD0Ev @1028
    _ZN14LtePdcpRrcBaseD1Ev @1029
    _ZN14LtePdcpRrcBaseD2Ev @1030
    _ZN14MECResponseApp10initializeEi @1031
    _ZN14MECResponseApp11establishedEi @1032
    _ZN14MECResponseApp11sendStopAckEv @1033
    _ZN14MECResponseApp12sendResponseEv @1034
    _ZN14MECResponseApp12socketClosedEPN4inet9TcpSocketE @1035
    _ZN14MECResponseApp13doComputationEv @1036
    _ZN14MECResponseApp13handleRequestEPN7omnetpp8cMessageE @1037
    _ZN14MECResponseApp14sendGetRequestEv @1038
    _ZN14MECResponseApp15handleUeMessageEPN7omnetpp8cMessageE @1039
    _ZN14MECResponseApp15scheduleNextMsgEPN7omnetpp8cMessageE @1040
    _ZN14MECResponseApp16handleMp1MessageEi @1041
    _ZN14MECResponseApp17handleHttpMessageEi @1042
    _ZN14MECResponseApp17handleSelfMessageEPN7omnetpp8cMessageE @1043
    _ZN14MECResponseApp17handleStopRequestEPN7omnetpp8cMessageE @1044
    _ZN14MECResponseApp20handleServiceMessageEi @1045
    _ZN14MECResponseApp22handleProcessedMessageEPN7omnetpp8cMessageE @1046
    _ZN14MECResponseApp6finishEv @1047
    _ZN14MECResponseAppC1Ev @1048
    _ZN14MECResponseAppC2Ev @1049
    _ZN14MECResponseAppD0Ev @1050
    _ZN14MECResponseAppD1Ev @1051
    _ZN14MECResponseAppD2Ev @1052
    _ZN14MecResponseApp10initializeEi @1053
    _ZN14MecResponseApp12sendResponseEPN7omnetpp8cMessageE @1054
    _ZN14MecResponseApp13handleMessageEPN7omnetpp8cMessageE @1055
    _ZN14MecResponseApp13handleRequestEPN7omnetpp8cMessageE @1056
    _ZN14MecResponseApp15recvRequestSno_E @1057 DATA
    _ZN14MecResponseAppD0Ev @1058
    _ZN14MecResponseAppD2Ev @1059
    _ZN14MecServiceBase10initializeEi @1060
    _ZN14MecServiceBase10newRequestEP18HttpRequestMessage @1061
    _ZN14MecServiceBase12socketClosedEPN4inet9TcpSocketE @1062
    _ZN14MecServiceBase13handleRequestEPN4inet9TcpSocketE @1063
    _ZN14MecServiceBase13manageRequestEv @1064
    _ZN14MecServiceBase13socketDeletedEPN4inet9TcpSocketE @1065
    _ZN14MecServiceBase13socketFailureEPN4inet9TcpSocketEi @1066
    _ZN14MecServiceBase14triggeredEventEP17EventNotification @1067
    _ZN14MecServiceBase15closeConnectionEP13SocketManager @1068
    _ZN14MecServiceBase15socketAvailableEPN4inet9TcpSocketEPNS0_16TcpAvailableInfoE @1069
    _ZN14MecServiceBase16removeConnectionEP13SocketManager @1070
    _ZN14MecServiceBase16socketPeerClosedEPN4inet9TcpSocketE @1071
    _ZN14MecServiceBase17scheduleNextEventEb @1072
    _ZN14MecServiceBase17socketDataArrivedEPN4inet9TcpSocketEPNS0_6PacketEb @1073
    _ZN14MecServiceBase17socketEstablishedEPN4inet9TcpSocketE @1074
    _ZN14MecServiceBase18manageSubscriptionEv @1075
    _ZN14MecServiceBase18removeSubscritionsEi @1076
    _ZN14MecServiceBase19handleMessageWhenUpEPN7omnetpp8cMessageE @1077
    _ZN14MecServiceBase19handleStopOperationEPN4inet18LifecycleOperationE @1078
    _ZN14MecServiceBase19socketStatusArrivedEPN4inet9TcpSocketEPNS0_13TcpStatusInfoE @1079
    _ZN14MecServiceBase20handleCrashOperationEPN4inet18LifecycleOperationE @1080
    _ZN14MecServiceBase20handleCurrentRequestEPN4inet9TcpSocketE @1081
    _ZN14MecServiceBase20handleStartOperationEPN4inet18LifecycleOperationE @1082
    _ZN14MecServiceBase20newSubscriptionEventEP17EventNotification @1083
    _ZN14MecServiceBase22emitRequestQueueLengthEv @1084
    _ZN14MecServiceBase22handleRequestQueueFullEP18HttpRequestMessage @1085
    _ZN14MecServiceBase24getConnectedBaseStationsEv @1086
    _ZN14MecServiceBase27calculateRequestServiceTimeEv @1087
    _ZN14MecServiceBase32calculateSubscriptionServiceTimeEv @1088
    _ZN14MecServiceBase6finishEv @1089
    _ZN14MecServiceBaseC2Ev @1090
    _ZN14MecServiceBaseD0Ev @1091
    _ZN14MecServiceBaseD1Ev @1092
    _ZN14MecServiceBaseD2Ev @1093
    _ZN14MigrationTimer11setNewAppIdEj @1094
    _ZN14MigrationTimer11setOldAppIdEj @1095
    _ZN14MigrationTimer12parsimUnpackEPN7omnetpp11cCommBufferE @1096
    _ZN14MigrationTimer4copyERKS_ @1097
    _ZN14MigrationTimerC1EPKcs @1098
    _ZN14MigrationTimerC1ERKS_ @1099
    _ZN14MigrationTimerC2EPKcs @1100
    _ZN14MigrationTimerC2ERKS_ @1101
    _ZN14MigrationTimerD0Ev @1102
    _ZN14MigrationTimerD1Ev @1103
    _ZN14MigrationTimerD2Ev @1104
    _ZN14MigrationTimeraSERKS_ @1105
    _ZN14NRChannelModel10initializeEi @1106
    _ZN14NRChannelModel13computeIndoorEddb @1107
    _ZN14NRChannelModel14getAttenuationEt9DirectionN4inet5CoordEb @1108
    _ZN14NRChannelModel15computePathLossEddb @1109
    _ZN14NRChannelModel17computeRuralMacroEddb @1110
    _ZN14NRChannelModel17computeUrbanMacroEddb @1111
    _ZN14NRChannelModel17computeUrbanMicroEddb @1112
    _ZN14NRChannelModel21computeLosProbabilityEdt @1113
    _ZN14NRChannelModel22computeExtCellPathLossEddt @1114
    _ZN14NRChannelModel25computeAngolarAttenuationEdd @1115
    _ZN14NRChannelModel26computeExtCellInterferenceEttN4inet5CoordEbdPSt6vectorIdSaIdEE @1116
    _ZN14NRChannelModelD0Ev @1117
    _ZN14NRRxPdcpEntity10initializeEv @1118
    _ZN14NRRxPdcpEntity13handleMessageEPN7omnetpp8cMessageE @1119
    _ZN14NRRxPdcpEntity13handlePdcpSduEPN4inet6PacketE @1120
    _ZN14NRRxPdcpEntityC1Ev @1121
    _ZN14NRRxPdcpEntityC2Ev @1122
    _ZN14NRRxPdcpEntityD0Ev @1123
    _ZN14NRRxPdcpEntityD1Ev @1124
    _ZN14NRRxPdcpEntityD2Ev @1125
    _ZN14NRTxPdcpEntity10initializeEv @1126
    _ZN14NRTxPdcpEntity14deliverPdcpPduEPN4inet6PacketE @1127
    _ZN14NRTxPdcpEntity6setIdsEN4inet12IntrusivePtrI15FlowControlInfoEE @1128
    _ZN14NRTxPdcpEntityC1Ev @1129
    _ZN14NRTxPdcpEntityC2Ev @1130
    _ZN14NRTxPdcpEntityD0Ev @1131
    _ZN14NRTxPdcpEntityD1Ev @1132
    _ZN14NRTxPdcpEntityD2Ev @1133
    _ZN14TMultiTimerMsg12parsimUnpackEPN7omnetpp11cCommBufferE @1134
    _ZN14TMultiTimerMsg4copyERKS_ @1135
    _ZN14TMultiTimerMsg8setEventEj @1136
    _ZN14TMultiTimerMsgC1EPKcs @1137
    _ZN14TMultiTimerMsgC1ERKS_ @1138
    _ZN14TMultiTimerMsgC2EPKcs @1139
    _ZN14TMultiTimerMsgC2ERKS_ @1140
    _ZN14TMultiTimerMsgD0Ev @1141
    _ZN14TMultiTimerMsgD1Ev @1142
    _ZN14TMultiTimerMsgD2Ev @1143
    _ZN14TMultiTimerMsgaSERKS_ @1144
    _ZN14TftControlInfo12parsimUnpackEPN7omnetpp11cCommBufferE @1145
    _ZN14TftControlInfo4copyERKS_ @1146
    _ZN14TftControlInfo6setTftEj @1147
    _ZN14TftControlInfoC1ERKS_ @1148
    _ZN14TftControlInfoC1Ev @1149
    _ZN14TftControlInfoC2ERKS_ @1150
    _ZN14TftControlInfoC2Ev @1151
    _ZN14TftControlInfoD0Ev @1152
    _ZN14TftControlInfoD1Ev @1153
    _ZN14TftControlInfoD2Ev @1154
    _ZN14TftControlInfoaSERKS_ @1155
    _ZN14mecAppMapEntryC2ERKS_ @1156
    _ZN14mecAppMapEntryC2Ev @1157
    _ZN14mecAppMapEntryD2Ev @1158
    _ZN15CurrentLocationC1EdRKN4inet5CoordE @1159
    _ZN15CurrentLocationC1EdRKN4inet5CoordERK9TimeStamp @1160
    _ZN15CurrentLocationC1Ev @1161
    _ZN15CurrentLocationC2EdRKN4inet5CoordE @1162
    _ZN15CurrentLocationC2EdRKN4inet5CoordERK9TimeStamp @1163
    _ZN15CurrentLocationC2Ev @1164
    _ZN15CurrentLocationD0Ev @1165
    _ZN15CurrentLocationD1Ev @1166
    _ZN15CurrentLocationD2Ev @1167
    _ZN15DangerAppPacket12parsimUnpackEPN7omnetpp11cCommBufferE @1168
    _ZN15DangerAppPacket4copyERKS_ @1169
    _ZN15DangerAppPacketC1ERKS_ @1170
    _ZN15DangerAppPacketC1Ev @1171
    _ZN15DangerAppPacketC2ERKS_ @1172
    _ZN15DangerAppPacketC2Ev @1173
    _ZN15DangerAppPacketD0Ev @1174
    _ZN15DangerAppPacketD1Ev @1175
    _ZN15DangerAppPacketD2Ev @1176
    _ZN15DangerAppPacketaSERKS_ @1177
    _ZN15DeviceAppPacket12parsimUnpackEPN7omnetpp11cCommBufferE @1178
    _ZN15DeviceAppPacket4copyERKS_ @1179
    _ZN15DeviceAppPacketC1ERKS_ @1180
    _ZN15DeviceAppPacketC1Ev @1181
    _ZN15DeviceAppPacketC2ERKS_ @1182
    _ZN15DeviceAppPacketC2Ev @1183
    _ZN15DeviceAppPacketD0Ev @1184
    _ZN15DeviceAppPacketD1Ev @1185
    _ZN15DeviceAppPacketD2Ev @1186
    _ZN15DeviceAppPacketaSERKS_ @1187
    _ZN15FlowControlInfo10setDstAddrEj @1188
    _ZN15FlowControlInfo10setSrcAddrEj @1189
    _ZN15FlowControlInfo12parsimUnpackEPN7omnetpp11cCommBufferE @1190
    _ZN15FlowControlInfo13setHeaderSizeEi @1191
    _ZN15FlowControlInfo16setTypeOfServiceEt @1192
    _ZN15FlowControlInfo17setSequenceNumberEj @1193
    _ZN15FlowControlInfo4copyERKS_ @1194
    _ZN15FlowControlInfo8setUseNREb @1195
    _ZN15FlowControlInfoC1ERKS_ @1196
    _ZN15FlowControlInfoC1Ev @1197
    _ZN15FlowControlInfoC2ERKS_ @1198
    _ZN15FlowControlInfoC2Ev @1199
    _ZN15FlowControlInfoD0Ev @1200
    _ZN15FlowControlInfoD1Ev @1201
    _ZN15FlowControlInfoD2Ev @1202
    _ZN15FlowControlInfoaSERKS_ @1203
    _ZN15HttpBaseMessage12parsimUnpackEPN7omnetpp11cCommBufferE @1204
    _ZN15HttpBaseMessage13setConnectionEPKc @1205
    _ZN15HttpBaseMessage14setArrivalTimeEN7omnetpp7SimTimeE @1206
    _ZN15HttpBaseMessage14setContentTypeEPKc @1207
    _ZN15HttpBaseMessage15setHttpProtocolEPKc @1208
    _ZN15HttpBaseMessage16setContentLengthEi @1209
    _ZN15HttpBaseMessage17setIsReceivingMsgEb @1210
    _ZN15HttpBaseMessage22setRemainingDataToRecvEi @1211
    _ZN15HttpBaseMessage4copyERKS_ @1212
    _ZN15HttpBaseMessage7setBodyEPKc @1213
    _ZN15HttpBaseMessage7setTypeE11HttpMsgType @1214
    _ZN15HttpBaseMessage8setStateE16HttpRequestState @1215
    _ZN15HttpBaseMessage9setSockIdEi @1216
    _ZN15HttpBaseMessageC1ERKS_ @1217
    _ZN15HttpBaseMessageC1Ev @1218
    _ZN15HttpBaseMessageC2ERKS_ @1219
    _ZN15HttpBaseMessageC2Ev @1220
    _ZN15HttpBaseMessageD0Ev @1221
    _ZN15HttpBaseMessageD1Ev @1222
    _ZN15HttpBaseMessageD2Ev @1223
    _ZN15HttpBaseMessageaSERKS_ @1224
    _ZN15IChannelControl10RadioEntryC2ERKS0_ @1225
    _ZN15IChannelControl10RadioEntryD2Ev @1226
    _ZN15LocationService10initializeEi @1227
    _ZN15LocationService13handleMessageEPN7omnetpp8cMessageE @1228
    _ZN15LocationService16handleGETRequestEPK18HttpRequestMessagePN4inet9TcpSocketE @1229
    _ZN15LocationService16handlePUTRequestEPK18HttpRequestMessagePN4inet9TcpSocketE @1230
    _ZN15LocationService17handlePOSTRequestEPK18HttpRequestMessagePN4inet9TcpSocketE @1231
    _ZN15LocationService18manageSubscriptionEv @1232
    _ZN15LocationService19handleDELETERequestEPK18HttpRequestMessagePN4inet9TcpSocketE @1233
    _ZN15LocationService25sendMigrationNotificationEi @1234
    _ZN15LocationService6finishEv @1235
    _ZN15LocationServiceC1Ev @1236
    _ZN15LocationServiceC2Ev @1237
    _ZN15LocationServiceD0Ev @1238
    _ZN15LocationServiceD1Ev @1239
    _ZN15LocationServiceD2Ev @1240
    _ZN15LocationUpdates12parsimUnpackEPN7omnetpp11cCommBufferE @1241
    _ZN15LocationUpdates19setcurrentPositionXEd @1242
    _ZN15LocationUpdates19setcurrentPositionYEd @1243
    _ZN15LocationUpdates19setcurrentPositionZEd @1244
    _ZN15LocationUpdates4copyERKS_ @1245
    _ZN15LocationUpdatesC1ERKS_ @1246
    _ZN15LocationUpdatesC1Ev @1247
    _ZN15LocationUpdatesC2ERKS_ @1248
    _ZN15LocationUpdatesC2Ev @1249
    _ZN15LocationUpdatesD0Ev @1250
    _ZN15LocationUpdatesD1Ev @1251
    _ZN15LocationUpdatesD2Ev @1252
    _ZN15LocationUpdatesaSERKS_ @1253
    _ZN15LteChannelModel10initializeEi @1254
    _ZN15LteChannelModel10isErrorDasEP11LteAirFrameP15UserControlInfo @1255
    _ZN15LteChannelModel11getRSRP_D2DEP11LteAirFrameP15UserControlInfotN4inet5CoordE @1256
    _ZN15LteChannelModel11getSINR_D2DEP11LteAirFrameP15UserControlInfotN4inet5CoordEt @1257
    _ZN15LteChannelModel11getSINR_D2DEP11LteAirFrameP15UserControlInfotN4inet5CoordEtRKSt6vectorIdSaIdEE @1258
    _ZN15LteChannelModel11isError_D2DEP11LteAirFrameP15UserControlInfoRKSt6vectorIdSaIdEE @1259
    _ZN15LteChannelModel24isD2DInterferenceEnabledEv @1260
    _ZN15LteChannelModel27isUplinkInterferenceEnabledEv @1261
    _ZN15LteChannelModel6getSIREP11LteAirFrameP15UserControlInfo @1262
    _ZN15LteChannelModel6setPhyEP10LtePhyBase @1263
    _ZN15LteChannelModel7getRSRPEP11LteAirFrameP15UserControlInfo @1264
    _ZN15LteChannelModel7getSINREP11LteAirFrameP15UserControlInfo @1265
    _ZN15LteChannelModel7isErrorEP11LteAirFrameP15UserControlInfo @1266
    _ZN15LteChannelModelD0Ev @1267
    _ZN15LteHarqBufferRx10macUe_emitEid @1268
    _ZN15LteHarqBufferRx12sendFeedbackEv @1269
    _ZN15LteHarqBufferRx13getEmptyUnitsB5cxx11Eh @1270
    _ZN15LteHarqBufferRx14firstAvailableB5cxx11Ev @1271
    _ZN15LteHarqBufferRx15getBufferStatusEv @1272
    _ZN15LteHarqBufferRx16unregister_macUeEv @1273
    _ZN15LteHarqBufferRx18extractCorrectPdusB5cxx11Ev @1274
    _ZN15LteHarqBufferRx18purgeCorruptedPdusEv @1275
    _ZN15LteHarqBufferRx19totalCellRcvdBytes_E @1276 DATA
    _ZN15LteHarqBufferRx9insertPduEtPN4inet6PacketE @1277
    _ZN15LteHarqBufferRxC1EjP10LteMacBaset @1278
    _ZN15LteHarqBufferRxC2EjP10LteMacBaset @1279
    _ZN15LteHarqBufferRxD0Ev @1280
    _ZN15LteHarqBufferRxD1Ev @1281
    _ZN15LteHarqBufferRxD2Ev @1282
    _ZN15LteHarqBufferTx10getProcessEh @1283
    _ZN15LteHarqBufferTx11dropProcessEh @1284
    _ZN15LteHarqBufferTx12isInUnitListEhtSt4pairIhNSt7__cxx114listItSaItEEEE @1285
    _ZN15LteHarqBufferTx12markSelectedESt4pairIhNSt7__cxx114listItSaItEEEEh @1286
    _ZN15LteHarqBufferTx13forceDropUnitEht @1287
    _ZN15LteHarqBufferTx13getEmptyUnitsB5cxx11Eh @1288
    _ZN15LteHarqBufferTx14firstAvailableB5cxx11Ev @1289
    _ZN15LteHarqBufferTx15getBufferStatusEv @1290
    _ZN15LteHarqBufferTx16firstReadyForRtxB5cxx11Ev @1291
    _ZN15LteHarqBufferTx16forceDropProcessEh @1292
    _ZN15LteHarqBufferTx16sendSelectedDownEv @1293
    _ZN15LteHarqBufferTx18getSelectedProcessEv @1294
    _ZN15LteHarqBufferTx19receiveHarqFeedbackEPN4inet6PacketE @1295
    _ZN15LteHarqBufferTx8selfNackEht @1296
    _ZN15LteHarqBufferTx9insertPduEhtPN4inet6PacketE @1297
    _ZN15LteHarqBufferTx9pduLengthEht @1298
    _ZN15LteHarqBufferTxC1EjP10LteMacBaseS1_ @1299
    _ZN15LteHarqBufferTxC2EjP10LteMacBaseS1_ @1300
    _ZN15LteHarqBufferTxD0Ev @1301
    _ZN15LteHarqBufferTxD1Ev @1302
    _ZN15LteHarqBufferTxD2Ev @1303
    _ZN15LteHarqBufferTxaSERKS_ @1304
    _ZN15LteHarqFeedback12parsimUnpackEPN7omnetpp11cCommBufferE @1305
    _ZN15LteHarqFeedback13setFbMacPduIdEl @1306
    _ZN15LteHarqFeedback14setD2dFeedbackEb @1307
    _ZN15LteHarqFeedback4copyERKS_ @1308
    _ZN15LteHarqFeedback5setCwEh @1309
    _ZN15LteHarqFeedback7setAcidEh @1310
    _ZN15LteHarqFeedback9setResultEb @1311
    _ZN15LteHarqFeedbackC1ERKS_ @1312
    _ZN15LteHarqFeedbackC1Ev @1313
    _ZN15LteHarqFeedbackC2ERKS_ @1314
    _ZN15LteHarqFeedbackC2Ev @1315
    _ZN15LteHarqFeedbackD0Ev @1316
    _ZN15LteHarqFeedbackD1Ev @1317
    _ZN15LteHarqFeedbackD2Ev @1318
    _ZN15LteHarqFeedbackaSERKS_ @1319
    _ZN15LtePdcpRrcUeD2D12fromDataPortEPN7omnetpp7cPacketE @1320
    _ZN15LtePdcpRrcUeD2D13handleMessageEPN7omnetpp8cMessageE @1321
    _ZN15LtePdcpRrcUeD2D23pdcpHandleD2DModeSwitchEt10LteD2DMode @1322
    _ZN15LtePdcpRrcUeD2D9getDestIdEN4inet12IntrusivePtrI15FlowControlInfoEE @1323
    _ZN15LtePdcpRrcUeD2DD0Ev @1324
    _ZN15LtePdcpRrcUeD2DD2Ev @1325
    _ZN15LteRlcAmDataPduD0Ev @1326
    _ZN15LteRlcUmDataPduD0Ev @1327
    _ZN15LteRxPdcpEntity10initializeEv @1328
    _ZN15LteRxPdcpEntity13handlePdcpSduEPN4inet6PacketE @1329
    _ZN15LteRxPdcpEntity26handlePacketFromLowerLayerEPN4inet6PacketE @1330
    _ZN15LteRxPdcpEntityC1Ev @1331
    _ZN15LteRxPdcpEntityC2Ev @1332
    _ZN15LteRxPdcpEntityD0Ev @1333
    _ZN15LteRxPdcpEntityD1Ev @1334
    _ZN15LteRxPdcpEntityD2Ev @1335
    _ZN15LteSchedulerEnb10initializeE9DirectionP9LteMacEnb @1336
    _ZN15LteSchedulerEnb12getSchedulerE15SchedDiscipline @1337
    _ZN15LteSchedulerEnb13scheduleGrantEjjRbS0_S0_dPSt6vectorI9BandLimitSaIS2_EE6Remoteb @1338
    _ZN15LteSchedulerEnb13storeScListIdEdSt4pairIjtEj @1339
    _ZN15LteSchedulerEnb14availableBytesEt6Remotett9Directiondi @1340
    _ZN15LteSchedulerEnb14resetAllocatorEv @1341
    _ZN15LteSchedulerEnb16getOccupiedBandsEv @1342
    _ZN15LteSchedulerEnb16readAvailableRbsEt6Remotet @1343
    _ZN15LteSchedulerEnb16readRbOccupationEtdRSt3mapI6RemoteS0_ItjSt4lessItESaISt4pairIKtjEEES2_IS1_ESaIS4_IKS1_S8_EEE @1344
    _ZN15LteSchedulerEnb18storeAllocationEnbESt6vectorIS0_ISt3mapIt23AllocatedRbsPerBandInfoSt4lessItESaISt4pairIKtS2_EEESaIS9_EESaISB_EEPSt3setItS4_SaItEE @1345
    _ZN15LteSchedulerEnb19initializeAllocatorEv @1346
    _ZN15LteSchedulerEnb21getInterferringBlocksE5Plane6Remotet @1347
    _ZN15LteSchedulerEnb21readActiveConnectionsEv @1348
    _ZN15LteSchedulerEnb21readTotalAvailableRbsEv @1349
    _ZN15LteSchedulerEnb23removeActiveConnectionsEt @1350
    _ZN15LteSchedulerEnb23resourceBlockStatisticsEb @1351
    _ZN15LteSchedulerEnb23scheduleGrantBackgroundEjjRbS0_S0_dPSt6vectorI9BandLimitSaIS2_EE6Remoteb @1352
    _ZN15LteSchedulerEnb24readPerUeAllocatedBlocksEt6Remotet @1353
    _ZN15LteSchedulerEnb26availableBytesBackgroundUeEt6Remotet9Directiondi @1354
    _ZN15LteSchedulerEnb26readPerBandAllocatedBlocksE5Plane6Remotet @1355
    _ZN15LteSchedulerEnb32initializeSchedulerPeriodCounterEt @1356
    _ZN15LteSchedulerEnb7backlogEj @1357
    _ZN15LteSchedulerEnb8scheduleEv @1358
    _ZN15LteSchedulerEnbC2Ev @1359
    _ZN15LteSchedulerEnbD0Ev @1360
    _ZN15LteSchedulerEnbD1Ev @1361
    _ZN15LteSchedulerEnbD2Ev @1362
    _ZN15LteSchedulerEnbaSERKS_ @1363
    _ZN15LteTxPdcpEntity10initializeEv @1364
    _ZN15LteTxPdcpEntity14deliverPdcpPduEPN4inet6PacketE @1365
    _ZN15LteTxPdcpEntity26handlePacketFromUpperLayerEPN4inet6PacketE @1366
    _ZN15LteTxPdcpEntity6setIdsEN4inet12IntrusivePtrI15FlowControlInfoEE @1367
    _ZN15LteTxPdcpEntityC1Ev @1368
    _ZN15LteTxPdcpEntityC2Ev @1369
    _ZN15LteTxPdcpEntityD0Ev @1370
    _ZN15LteTxPdcpEntityD1Ev @1371
    _ZN15LteTxPdcpEntityD2Ev @1372
    _ZN15MecOrchestrator10initializeEi @1373
    _ZN15MecOrchestrator10stopMECAppEP13UALCMPMessage @1374
    _ZN15MecOrchestrator11startMECAppEP13UALCMPMessage @1375
    _ZN15MecOrchestrator13handleMessageEPN7omnetpp8cMessageE @1376
    _ZN15MecOrchestrator13preCopyMECAppEiPN7omnetpp7cModuleE @1377
    _ZN15MecOrchestrator14relocateMECAppEP13UALCMPMessage @1378
    _ZN15MecOrchestrator15findBestMecHostERK21ApplicationDescriptor @1379
    _ZN15MecOrchestrator19handleUALCMPMessageEPN7omnetpp8cMessageE @1380
    _ZN15MecOrchestrator20getConnectedMecHostsEv @1381
    _ZN15MecOrchestrator22terminateAfterRelocateEP13UALCMPMessageiPN7omnetpp7cModuleE @1382
    _ZN15MecOrchestrator23sendCreateAppContextAckEbji @1383
    _ZN15MecOrchestrator23sendDeleteAppContextAckEbji @1384
    _ZN15MecOrchestrator25onboardApplicationPackageEPKc @1385
    _ZN15MecOrchestrator25sendMigrationNotificationEi @1386
    _ZN15MecOrchestrator26onboardApplicationPackagesEv @1387
    _ZN15MecOrchestratorC1Ev @1388
    _ZN15MecOrchestratorC2Ev @1389
    _ZN15MecOrchestratorD0Ev @1390
    _ZN15MecOrchestratorD2Ev @1391
    _ZN15RtxNotification12parsimUnpackEPN7omnetpp11cCommBufferE @1392
    _ZN15RtxNotification12setDirectionEi @1393
    _ZN15RtxNotification4copyERKS_ @1394
    _ZN15RtxNotification8setBytesEi @1395
    _ZN15RtxNotificationC1EPKcs @1396
    _ZN15RtxNotificationC1ERKS_ @1397
    _ZN15RtxNotificationC2EPKcs @1398
    _ZN15RtxNotificationC2ERKS_ @1399
    _ZN15RtxNotificationD0Ev @1400
    _ZN15RtxNotificationD1Ev @1401
    _ZN15RtxNotificationD2Ev @1402
    _ZN15RtxNotificationaSERKS_ @1403
    _ZN15SafetyAppPacket12parsimUnpackEPN7omnetpp11cCommBufferE @1404
    _ZN15SafetyAppPacket4copyERKS_ @1405
    _ZN15SafetyAppPacketC1ERKS_ @1406
    _ZN15SafetyAppPacketC1Ev @1407
    _ZN15SafetyAppPacketC2ERKS_ @1408
    _ZN15SafetyAppPacketC2Ev @1409
    _ZN15SafetyAppPacketD0Ev @1410
    _ZN15SafetyAppPacketD1Ev @1411
    _ZN15SafetyAppPacketD2Ev @1412
    _ZN15SafetyAppPacketaSERKS_ @1413
    _ZN15ServiceRegistry10initializeEi @1414
    _ZN15ServiceRegistry16handleGETRequestEPK18HttpRequestMessagePN4inet9TcpSocketE @1415
    _ZN15ServiceRegistry16handlePUTRequestEPK18HttpRequestMessagePN4inet9TcpSocketE @1416
    _ZN15ServiceRegistry17handlePOSTRequestEPK18HttpRequestMessagePN4inet9TcpSocketE @1417
    _ZN15ServiceRegistry18registerMecServiceERK17ServiceDescriptor @1418
    _ZN15ServiceRegistry19handleDELETERequestEPK18HttpRequestMessagePN4inet9TcpSocketE @1419
    _ZN15ServiceRegistry20handleStartOperationEPN4inet18LifecycleOperationE @1420
    _ZN15ServiceRegistryC1Ev @1421
    _ZN15ServiceRegistryC2Ev @1422
    _ZN15ServiceRegistryD0Ev @1423
    _ZN15ServiceRegistryD1Ev @1424
    _ZN15ServiceRegistryD2Ev @1425
    _ZN15TrickleTimerMsg12parsimUnpackEPN7omnetpp11cCommBufferE @1426
    _ZN15TrickleTimerMsg4copyERKS_ @1427
    _ZN15TrickleTimerMsg8setMsgidEj @1428
    _ZN15TrickleTimerMsgC1EPKcs @1429
    _ZN15TrickleTimerMsgC1ERKS_ @1430
    _ZN15TrickleTimerMsgC2EPKcs @1431
    _ZN15TrickleTimerMsgC2ERKS_ @1432
    _ZN15TrickleTimerMsgD0Ev @1433
    _ZN15TrickleTimerMsgD1Ev @1434
    _ZN15TrickleTimerMsgD2Ev @1435
    _ZN15TrickleTimerMsgaSERKS_ @1436
    _ZN15UserControlInfo15setUserTxParamsEPK12UserTxParams @1437
    _ZN15UserControlInfo8setCoordERKN4inet5CoordE @1438
    _ZN15UserControlInfoC1Ev @1439
    _ZN15UserControlInfoC2ERKS_ @1440
    _ZN15UserControlInfoC2Ev @1441
    _ZN15UserControlInfoD0Ev @1442
    _ZN15UserControlInfoD1Ev @1443
    _ZN15UserControlInfoD2Ev @1444
    _ZN15UserControlInfoaSERKS_ @1445
    _ZN16ComponentCarrier10initializeEv @1446
    _ZN16ComponentCarrierD0Ev @1447
    _ZN16ConnectionsTable10find_entryEjjt @1448
    _ZN16ConnectionsTable10find_entryEjjtt @1449
    _ZN16ConnectionsTable12create_entryEjjtt @1450
    _ZN16ConnectionsTable12create_entryEjjttt @1451
    _ZN16ConnectionsTable9hash_funcEjjt @1452
    _ZN16ConnectionsTable9hash_funcEjjtt @1453
    _ZN16ConnectionsTableC1Ev @1454
    _ZN16ConnectionsTableC2Ev @1455
    _ZN16ConnectionsTableD0Ev @1456
    _ZN16ConnectionsTableD1Ev @1457
    _ZN16ConnectionsTableD2Ev @1458
    _ZN16CreateAppMessage10setUeAppIDEi @1459
    _ZN16CreateAppMessage12parsimUnpackEPN7omnetpp11cCommBufferE @1460
    _ZN16CreateAppMessage12setContextIdEi @1461
    _ZN16CreateAppMessage12setTimestampEN7omnetpp7SimTimeE @1462
    _ZN16CreateAppMessage13setSourcePortEi @1463
    _ZN16CreateAppMessage14setRequiredCpuEd @1464
    _ZN16CreateAppMessage14setRequiredRamEd @1465
    _ZN16CreateAppMessage15setMEModuleNameEPKc @1466
    _ZN16CreateAppMessage15setMEModuleTypeEPKc @1467
    _ZN16CreateAppMessage15setRequiredDiskEd @1468
    _ZN16CreateAppMessage16setSourceAddressEPKc @1469
    _ZN16CreateAppMessage18setDestinationPortEi @1470
    _ZN16CreateAppMessage18setProvidedServiceEPKc @1471
    _ZN16CreateAppMessage18setRequiredServiceEPKc @1472
    _ZN16CreateAppMessage21setDestinationAddressEPKc @1473
    _ZN16CreateAppMessage24setDestinationMecAppPortEi @1474
    _ZN16CreateAppMessage27setDestinationMecAppAddressEPKc @1475
    _ZN16CreateAppMessage4copyERKS_ @1476
    _ZN16CreateAppMessage6setSnoEj @1477
    _ZN16CreateAppMessage7setTypeEPKc @1478
    _ZN16CreateAppMessageC1ERKS_ @1479
    _ZN16CreateAppMessageC1Ev @1480
    _ZN16CreateAppMessageC2ERKS_ @1481
    _ZN16CreateAppMessageC2Ev @1482
    _ZN16CreateAppMessageD0Ev @1483
    _ZN16CreateAppMessageD1Ev @1484
    _ZN16CreateAppMessageD2Ev @1485
    _ZN16CreateAppMessageaSERKS_ @1486
    _ZN16CreateContextApp11setDevAppIdEPKc @1487
    _ZN16CreateContextApp12parsimUnpackEPN7omnetpp11cCommBufferE @1488
    _ZN16CreateContextApp12setOnboardedEb @1489
    _ZN16CreateContextApp14setUeIpAddressEPKc @1490
    _ZN16CreateContextApp17setAppPackagePathEPKc @1491
    _ZN16CreateContextApp4copyERKS_ @1492
    _ZN16CreateContextApp9setAppDIdEPKc @1493
    _ZN16CreateContextAppC1EPKcs @1494
    _ZN16CreateContextAppC1ERKS_ @1495
    _ZN16CreateContextAppC2EPKcs @1496
    _ZN16CreateContextAppC2ERKS_ @1497
    _ZN16CreateContextAppD0Ev @1498
    _ZN16CreateContextAppD1Ev @1499
    _ZN16CreateContextAppD2Ev @1500
    _ZN16CreateContextAppaSERKS_ @1501
    _ZN16DeleteAppMessage10setUeAppIDEi @1502
    _ZN16DeleteAppMessage12parsimUnpackEPN7omnetpp11cCommBufferE @1503
    _ZN16DeleteAppMessage12setTimestampEN7omnetpp7SimTimeE @1504
    _ZN16DeleteAppMessage13setSourcePortEi @1505
    _ZN16DeleteAppMessage14setRequiredCpuEd @1506
    _ZN16DeleteAppMessage14setRequiredRamEj @1507
    _ZN16DeleteAppMessage15setMEModuleNameEPKc @1508
    _ZN16DeleteAppMessage15setMEModuleTypeEPKc @1509
    _ZN16DeleteAppMessage15setRequiredDiskEj @1510
    _ZN16DeleteAppMessage16setSourceAddressEPKc @1511
    _ZN16DeleteAppMessage18setDestinationPortEi @1512
    _ZN16DeleteAppMessage18setRequiredServiceEPKc @1513
    _ZN16DeleteAppMessage21setDestinationAddressEPKc @1514
    _ZN16DeleteAppMessage24setDestinationMecAppPortEi @1515
    _ZN16DeleteAppMessage27setDestinationMecAppAddressEPKc @1516
    _ZN16DeleteAppMessage4copyERKS_ @1517
    _ZN16DeleteAppMessage6setSnoEj @1518
    _ZN16DeleteAppMessage7setTypeEPKc @1519
    _ZN16DeleteAppMessageC1ERKS_ @1520
    _ZN16DeleteAppMessageC1Ev @1521
    _ZN16DeleteAppMessageC2ERKS_ @1522
    _ZN16DeleteAppMessageC2Ev @1523
    _ZN16DeleteAppMessageD0Ev @1524
    _ZN16DeleteAppMessageD1Ev @1525
    _ZN16DeleteAppMessageD2Ev @1526
    _ZN16DeleteAppMessageaSERKS_ @1527
    _ZN16LocationResource10setBaseUriERKNSt7__cxx1112basic_stringIcSt11char_traitsIcESaIcEEE @1528
    _ZN16LocationResource9addBinderEP6Binder @1529
    _ZN16LocationResource9addEnodeBEPN7omnetpp7cModuleE @1530
    _ZN16LocationResource9addEnodeBERSt3setIPN7omnetpp7cModuleESt4lessIS3_ESaIS3_EE @1531
    _ZN16LocationResourceC1ERNSt7__cxx1112basic_stringIcSt11char_traitsIcESaIcEEERSt3setIPN7omnetpp7cModuleESt4lessISA_ESaISA_EEP6Binder @1532
    _ZN16LocationResourceC1Ev @1533
    _ZN16LocationResourceC2ERNSt7__cxx1112basic_stringIcSt11char_traitsIcESaIcEEERSt3setIPN7omnetpp7cModuleESt4lessISA_ESaISA_EEP6Binder @1534
    _ZN16LocationResourceC2Ev @1535
    _ZN16LocationResourceD0Ev @1536
    _ZN16LocationResourceD1Ev @1537
    _ZN16LocationResourceD2Ev @1538
    _ZN16LteAirFrame_Base12parsimUnpackEPN7omnetpp11cCommBufferE @1539
    _ZN16LteAirFrame_Base4copyERKS_ @1540
    _ZN16LteAirFrame_BaseC1EPKcs @1541
    _ZN16LteAirFrame_BaseC1ERKS_ @1542
    _ZN16LteAirFrame_BaseC2EPKcs @1543
    _ZN16LteAirFrame_BaseC2ERKS_ @1544
    _ZN16LteAirFrame_BaseD0Ev @1545
    _ZN16LteAirFrame_BaseD1Ev @1546
    _ZN16LteAirFrame_BaseD2Ev @1547
    _ZN16LteAirFrame_BaseaSERKS_ @1548
    _ZN16LteHarqProcessRx10extractPduEt @1549
    _ZN16LteHarqProcessRx11isEvaluatedEt @1550
    _ZN16LteHarqProcessRx13emptyUnitsIdsB5cxx11Ev @1551
    _ZN16LteHarqProcessRx13getByteLengthEt @1552
    _ZN16LteHarqProcessRx13getUnitStatusEt @1553
    _ZN16LteHarqProcessRx13resetCodewordEt @1554
    _ZN16LteHarqProcessRx14createFeedbackEt @1555
    _ZN16LteHarqProcessRx15getNumHarqUnitsEv @1556
    _ZN16LteHarqProcessRx16getProcessStatusEv @1557
    _ZN16LteHarqProcessRx17purgeCorruptedPduEt @1558
    _ZN16LteHarqProcessRx19isHarqProcessActiveEv @1559
    _ZN16LteHarqProcessRx7isEmptyEv @1560
    _ZN16LteHarqProcessRx9insertPduEtPN4inet6PacketE @1561
    _ZN16LteHarqProcessRx9isCorrectEt @1562
    _ZN16LteHarqProcessRxC1EhP10LteMacBase @1563
    _ZN16LteHarqProcessRxC2EhP10LteMacBase @1564
    _ZN16LteHarqProcessRxD0Ev @1565
    _ZN16LteHarqProcessRxD1Ev @1566
    _ZN16LteHarqProcessRxD2Ev @1567
    _ZN16LteHarqProcessTx10extractPduEt @1568
    _ZN16LteHarqProcessTx11isUnitEmptyEt @1569
    _ZN16LteHarqProcessTx11isUnitReadyEt @1570
    _ZN16LteHarqProcessTx11pduFeedbackE18HarqAcknowledgmentt @1571
    _ZN16LteHarqProcessTx12getPduLengthEt @1572
    _ZN16LteHarqProcessTx12isUnitMarkedEt @1573
    _ZN16LteHarqProcessTx12markSelectedEt @1574
    _ZN16LteHarqProcessTx13emptyUnitsIdsB5cxx11Ev @1575
    _ZN16LteHarqProcessTx13forceDropUnitEt @1576
    _ZN16LteHarqProcessTx13getUnitStatusEt @1577
    _ZN16LteHarqProcessTx13hasReadyUnitsEv @1578
    _ZN16LteHarqProcessTx13readyUnitsIdsB5cxx11Ev @1579
    _ZN16LteHarqProcessTx16forceDropProcessEv @1580
    _ZN16LteHarqProcessTx16getProcessStatusEv @1581
    _ZN16LteHarqProcessTx16getTransmissionsEt @1582
    _ZN16LteHarqProcessTx16selectedUnitsIdsB5cxx11Ev @1583
    _ZN16LteHarqProcessTx19getOldestUnitTxTimeEv @1584
    _ZN16LteHarqProcessTx19isHarqProcessActiveEv @1585
    _ZN16LteHarqProcessTx6getPduEt @1586
    _ZN16LteHarqProcessTx7dropPduEt @1587
    _ZN16LteHarqProcessTx7isEmptyEv @1588
    _ZN16LteHarqProcessTx8getPduIdEt @1589
    _ZN16LteHarqProcessTx8selfNackEt @1590
    _ZN16LteHarqProcessTx9getTxTimeEt @1591
    _ZN16LteHarqProcessTx9insertPduEPN4inet6PacketEt @1592
    _ZN16LteHarqProcessTx9isDroppedEv @1593
    _ZN16LteHarqProcessTxC1EhjjP10LteMacBaseS1_ @1594
    _ZN16LteHarqProcessTxC2EhjjP10LteMacBaseS1_ @1595
    _ZN16LteHarqProcessTxD0Ev @1596
    _ZN16LteHarqProcessTxD1Ev @1597
    _ZN16LteHarqProcessTxD2Ev @1598
    _ZN16LteHarqProcessTxaSERKS_ @1599
    _ZN16LteHarqUnitTxD2D10extractPduEv @1600
    _ZN16LteHarqUnitTxD2D11pduFeedbackE18HarqAcknowledgment @1601
    _ZN16LteHarqUnitTxD2DC1EhtP10LteMacBaseS1_ @1602
    _ZN16LteHarqUnitTxD2DC2EhtP10LteMacBaseS1_ @1603
    _ZN16LteHarqUnitTxD2DD0Ev @1604
    _ZN16LteHarqUnitTxD2DD1Ev @1605
    _ZN16LteHarqUnitTxD2DD2Ev @1606
    _ZN16LteMacSduRequestD0Ev @1607
    _ZN16LtePdcpRrcEnbD2D10initializeEi @1608
    _ZN16LtePdcpRrcEnbD2D12fromDataPortEPN7omnetpp7cPacketE @1609
    _ZN16LtePdcpRrcEnbD2D13handleMessageEPN7omnetpp8cMessageE @1610
    _ZN16LtePdcpRrcEnbD2D23pdcpHandleD2DModeSwitchEt10LteD2DMode @1611
    _ZN16LtePdcpRrcEnbD2DD0Ev @1612
    _ZN16LteRacDescriptorC1Ev @1613
    _ZN16LteRacDescriptorC2Ev @1614
    _ZN16LteRacDescriptorD0Ev @1615
    _ZN16LteRacDescriptorD1Ev @1616
    _ZN16LteRacDescriptorD2Ev @1617
    _ZN16LteRlcAmPdu_Base10setFirstSnEi @1618
    _ZN16LteRlcAmPdu_Base11setTxNumberEt @1619
    _ZN16LteRlcAmPdu_Base12parsimUnpackEPN7omnetpp11cCommBufferE @1620
    _ZN16LteRlcAmPdu_Base4copyERKS_ @1621
    _ZN16LteRlcAmPdu_Base9setAmTypeEt @1622
    _ZN16LteRlcAmPdu_Base9setLastSnEi @1623
    _ZN16LteRlcAmPdu_BaseC2ERKS_ @1624
    _ZN16LteRlcAmPdu_BaseC2Ev @1625
    _ZN16LteRlcAmPdu_BaseD0Ev @1626
    _ZN16LteRlcAmPdu_BaseD1Ev @1627
    _ZN16LteRlcAmPdu_BaseD2Ev @1628
    _ZN16LteRlcAmPdu_BaseaSERKS_ @1629
    _ZN16LteRlcPduNewData12parsimUnpackEPN7omnetpp11cCommBufferE @1630
    _ZN16LteRlcPduNewData4copyERKS_ @1631
    _ZN16LteRlcPduNewDataC1ERKS_ @1632
    _ZN16LteRlcPduNewDataC1Ev @1633
    _ZN16LteRlcPduNewDataC2ERKS_ @1634
    _ZN16LteRlcPduNewDataC2Ev @1635
    _ZN16LteRlcPduNewDataD0Ev @1636
    _ZN16LteRlcPduNewDataD1Ev @1637
    _ZN16LteRlcPduNewDataD2Ev @1638
    _ZN16LteRlcPduNewDataaSERKS_ @1639
    _ZN16LteSchedulerUeUl21getScheduledBytesListEv @1640
    _ZN16LteSchedulerUeUl8scheduleEv @1641
    _ZN16LteSchedulerUeUlC1EP8LteMacUed @1642
    _ZN16LteSchedulerUeUlC2EP8LteMacUed @1643
    _ZN16LteSchedulerUeUlD1Ev @1644
    _ZN16LteSchedulerUeUlD2Ev @1645
    _ZN16LteSchedulerUeUlaSERKS_ @1646
    _ZN16LteSummaryBuffer13createSummaryE11LteFeedback @1647
    _ZN16LteSummaryBuffer3putE11LteFeedback @1648
    _ZN16LteSummaryBufferC2EhhjN7omnetpp7SimTimeES1_ @1649
    _ZN16LteSummaryBufferD2Ev @1650
    _ZN16MacBsrDescriptorC1Ev @1651
    _ZN16MacBsrDescriptorC2Ev @1652
    _ZN16MacBsrDescriptorD0Ev @1653
    _ZN16MacBsrDescriptorD1Ev @1654
    _ZN16MacBsrDescriptorD2Ev @1655
    _ZN16NRSchedulerGnbUl11rtxscheduleEdPSt6vectorI9BandLimitSaIS1_EE @1656
    _ZN16NRSchedulerGnbUl15updateHarqDescsEv @1657
    _ZN16NRSchedulerGnbUl16checkEligibilityEtRtd @1658
    _ZN16NRSchedulerGnbUlD0Ev @1659
    _ZN16RemoteAntennaSet15getAntennaCoordEj @1660
    _ZN16RemoteAntennaSet16addRemoteAntennaEddd @1661
    _ZN16RemoteAntennaSet17getAntennaSetSizeEv @1662
    _ZN16RemoteAntennaSet17getAntennaTxPowerEj @1663
    _ZN16SafetyStopPacket12parsimUnpackEPN7omnetpp11cCommBufferE @1664
    _ZN16SafetyStopPacket4copyERKS_ @1665
    _ZN16SafetyStopPacketC1ERKS_ @1666
    _ZN16SafetyStopPacketC1Ev @1667
    _ZN16SafetyStopPacketC2ERKS_ @1668
    _ZN16SafetyStopPacketC2Ev @1669
    _ZN16SafetyStopPacketD0Ev @1670
    _ZN16SafetyStopPacketD1Ev @1671
    _ZN16SafetyStopPacketD2Ev @1672
    _ZN16SafetyStopPacketaSERKS_ @1673
    _ZN16SubscriptionBase8fromJsonERKN8nlohmann10basic_jsonINS0_11ordered_mapESt6vectorNSt7__cxx1112basic_stringIcSt11char_traitsIcESaIcEEEbxydSaNS0_14adl_serializerES3_IhSaIhEEEE @1674
    _ZN16SubscriptionBase9addEnodeBEPN7omnetpp7cModuleE @1675
    _ZN16SubscriptionBase9addEnodeBERSt3setIPN7omnetpp7cModuleESt4lessIS3_ESaIS3_EE @1676
    _ZN16SubscriptionBase9set_linksERNSt7__cxx1112basic_stringIcSt11char_traitsIcESaIcEEE @1677
    _ZN16SubscriptionBaseC2EjPN4inet9TcpSocketERKNSt7__cxx1112basic_stringIcSt11char_traitsIcESaIcEEERSt3setIPN7omnetpp7cModuleESt4lessISE_ESaISE_EE @1678
    _ZN16SubscriptionBaseC2Ev @1679
    _ZN16SubscriptionBaseD0Ev @1680
    _ZN16SubscriptionBaseD1Ev @1681
    _ZN16SubscriptionBaseD2Ev @1682
    _ZN16TerminalLocationC1ERKNSt7__cxx1112basic_stringIcSt11char_traitsIcESaIcEEES7_RK15CurrentLocation @1683
    _ZN16TerminalLocationC1Ev @1684
    _ZN16TerminalLocationC2ERKNSt7__cxx1112basic_stringIcSt11char_traitsIcESaIcEEES7_RK15CurrentLocation @1685
    _ZN16TerminalLocationC2ERKS_ @1686
    _ZN16TerminalLocationC2Ev @1687
    _ZN16TerminalLocationD0Ev @1688
    _ZN16TerminalLocationD1Ev @1689
    _ZN16TerminalLocationD2Ev @1690
    _ZN16UeStatsCollector10initializeEi @1691
    _ZN16UeStatsCollector10resetStatsEv @1692
    _ZN16UeStatsCollector13handleMessageEPN7omnetpp8cMessageE @1693
    _ZN16UeStatsCollector17getULDiscardedPktEv @1694
    _ZN16UeStatsCollector17resetDelayCounterEv @1695
    _ZN16UeStatsCollector20add_dl_nongbr_pdr_ueEd @1696
    _ZN16UeStatsCollector20add_ul_nongbr_pdr_ueEv @1697
    _ZN16UeStatsCollector20get_dl_nongbr_pdr_ueEv @1698
    _ZN16UeStatsCollector20get_ul_nongbr_pdr_ueEv @1699
    _ZN16UeStatsCollector22add_dl_nongbr_delay_ueEd @1700
    _ZN16UeStatsCollector22add_ul_nongbr_delay_ueEv @1701
    _ZN16UeStatsCollector22get_dl_nongbr_delay_ueEv @1702
    _ZN16UeStatsCollector22get_ul_nongbr_delay_ueEv @1703
    _ZN16UeStatsCollector27add_dl_nongbr_throughput_ueEd @1704
    _ZN16UeStatsCollector27add_ul_nongbr_throughput_ueEd @1705
    _ZN16UeStatsCollector27get_dl_nongbr_throughput_ueEv @1706
    _ZN16UeStatsCollector27get_ul_nongbr_throughput_ueEv @1707
    _ZN16UeStatsCollector28add_dl_nongbr_data_volume_ueEj @1708
    _ZN16UeStatsCollector28add_ul_nongbr_data_volume_ueEj @1709
    _ZN16UeStatsCollector28get_dl_nongbr_data_volume_ueEv @1710
    _ZN16UeStatsCollector28get_ul_nongbr_data_volume_ueEv @1711
    _ZN16UeStatsCollectorC1Ev @1712
    _ZN16UeStatsCollectorC2Ev @1713
    _ZN16UeStatsCollectorD0Ev @1714
    _ZN16UeStatsCollectorD2Ev @1715
    _ZN16WarningAppPacket12parsimUnpackEPN7omnetpp11cCommBufferE @1716
    _ZN16WarningAppPacket4copyERKS_ @1717
    _ZN16WarningAppPacketC1ERKS_ @1718
    _ZN16WarningAppPacketC1Ev @1719
    _ZN16WarningAppPacketC2ERKS_ @1720
    _ZN16WarningAppPacketC2Ev @1721
    _ZN16WarningAppPacketD0Ev @1722
    _ZN16WarningAppPacketD1Ev @1723
    _ZN16WarningAppPacketD2Ev @1724
    _ZN16WarningAppPacketaSERKS_ @1725
    _ZN16X2ControlInfoTag11setSourceIdEt @1726
    _ZN16X2ControlInfoTag12parsimUnpackEPN7omnetpp11cCommBufferE @1727
    _ZN16X2ControlInfoTag13setDestIdListERKNSt7__cxx114listItSaItEEE @1728
    _ZN16X2ControlInfoTag22getDestIdListForUpdateB5cxx11Ev @1729
    _ZN16X2ControlInfoTag4copyERKS_ @1730
    _ZN16X2ControlInfoTag7setInitEb @1731
    _ZN16X2ControlInfoTagC1ERKS_ @1732
    _ZN16X2ControlInfoTagC1Ev @1733
    _ZN16X2ControlInfoTagC2ERKS_ @1734
    _ZN16X2ControlInfoTagC2Ev @1735
    _ZN16X2ControlInfoTagD0Ev @1736
    _ZN16X2ControlInfoTagD1Ev @1737
    _ZN16X2ControlInfoTagD2Ev @1738
    _ZN16X2ControlInfoTagaSERKS_ @1739
    _ZN17BackgroundCellAmc13getItbsPerCqiEt9Direction @1740
    _ZN17BackgroundCellAmc17calculateMcsScaleEv @1741
    _ZN17BackgroundCellAmc26computeBitsPerRbBackgroundEt9Directiond @1742
    _ZN17BackgroundCellAmcC1Ev @1743
    _ZN17BackgroundCellAmcC2Ev @1744
    _ZN17BackgroundCellAmcD0Ev @1745
    _ZN17BackgroundCellAmcD1Ev @1746
    _ZN17BackgroundCellAmcD2Ev @1747
    _ZN17DangerAlertPacket12parsimUnpackEPN7omnetpp11cCommBufferE @1748
    _ZN17DangerAlertPacket14setArrivalTimeEN7omnetpp7SimTimeE @1749
    _ZN17DangerAlertPacket14setPayloadSizeEj @1750
    _ZN17DangerAlertPacket17setisInDangerZoneEb @1751
    _ZN17DangerAlertPacket19setPayloadTimestampEN7omnetpp7SimTimeE @1752
    _ZN17DangerAlertPacket4copyERKS_ @1753
    _ZN17DangerAlertPacket8setMsgIdEj @1754
    _ZN17DangerAlertPacketC1ERKS_ @1755
    _ZN17DangerAlertPacketC1Ev @1756
    _ZN17DangerAlertPacketC2ERKS_ @1757
    _ZN17DangerAlertPacketC2Ev @1758
    _ZN17DangerAlertPacketD0Ev @1759
    _ZN17DangerAlertPacketD1Ev @1760
    _ZN17DangerAlertPacketD2Ev @1761
    _ZN17DangerAlertPacketaSERKS_ @1762
    _ZN17EventNotification7setTypeERKNSt7__cxx1112basic_stringIcSt11char_traitsIcESaIcEEE @1763
    _ZN17EventNotification8setSubIdEi @1764
    _ZN17EventNotificationC1ERKNSt7__cxx1112basic_stringIcSt11char_traitsIcESaIcEEERKi @1765
    _ZN17EventNotificationC1Ev @1766
    _ZN17EventNotificationC2ERKNSt7__cxx1112basic_stringIcSt11char_traitsIcESaIcEEERKi @1767
    _ZN17EventNotificationC2Ev @1768
    _ZN17EventNotificationD0Ev @1769
    _ZN17EventNotificationD1Ev @1770
    _ZN17EventNotificationD2Ev @1771
    _ZN17LteChannelControl10initializeEv @1772
    _ZN17LteChannelControl13sendToChannelEPN15IChannelControl10RadioEntryEP8AirFrame @1773
    _ZN17LteChannelControl14calcInterfDistEv @1774
    _ZN17LteChannelControlD0Ev @1775
    _ZN17LteChannelControlD1Ev @1776
    _ZN17LteChannelControlD2Ev @1777
    _ZN17LteMaxCiMultiband14commitScheduleEv @1778
    _ZN17LteMaxCiMultiband15prepareScheduleEv @1779
    _ZN17LteMaxCiMultibandD0Ev @1780
    _ZN17LteMaxCiMultibandD1Ev @1781
    _ZN17LteSchedulerEnbDl11racscheduleEdPSt6vectorI9BandLimitSaIS1_EE @1782
    _ZN17LteSchedulerEnbDl11rtxscheduleEdPSt6vectorI9BandLimitSaIS1_EE @1783
    _ZN17LteSchedulerEnbDl12getBandLimitEPSt6vectorI9BandLimitSaIS1_EEt @1784
    _ZN17LteSchedulerEnbDl13scheduleBgRtxEtdtPSt6vectorI9BandLimitSaIS1_EE6Remoteb @1785
    _ZN17LteSchedulerEnbDl16checkEligibilityEtRtd @1786
    _ZN17LteSchedulerEnbDl18schedulePerAcidRtxEtdthPSt6vectorI9BandLimitSaIS1_EE6Remoteb @1787
    _ZN17LteSchedulerEnbDl21rtxscheduleBackgroundEdPSt6vectorI9BandLimitSaIS1_EE @1788
    _ZN17LteSchedulerEnbDlD0Ev @1789
    _ZN17LteSchedulerEnbUl11racscheduleEdPSt6vectorI9BandLimitSaIS1_EE @1790
    _ZN17LteSchedulerEnbUl11rtxscheduleEdPSt6vectorI9BandLimitSaIS1_EE @1791
    _ZN17LteSchedulerEnbUl13scheduleBgRtxEtdtPSt6vectorI9BandLimitSaIS1_EE6Remoteb @1792
    _ZN17LteSchedulerEnbUl15updateHarqDescsEv @1793
    _ZN17LteSchedulerEnbUl16checkEligibilityEtRtd @1794
    _ZN17LteSchedulerEnbUl16removePendingRacEt @1795
    _ZN17LteSchedulerEnbUl18schedulePerAcidRtxEtdthPSt6vectorI9BandLimitSaIS1_EE6Remoteb @1796
    _ZN17LteSchedulerEnbUl21racscheduleBackgroundERjdPSt6vectorI9BandLimitSaIS2_EE @1797
    _ZN17LteSchedulerEnbUl21rtxscheduleBackgroundEdPSt6vectorI9BandLimitSaIS1_EE @1798
    _ZN17LteSchedulerEnbUl21schedulePerAcidRtxD2DEttdthPSt6vectorI9BandLimitSaIS1_EE6Remoteb @1799
    _ZN17LteSchedulerEnbUl9signalRacEtd @1800
    _ZN17LteSchedulerEnbUlD0Ev @1801
    _ZN17LteSchedulerEnbUlD2Ev @1802
    _ZN17LteX2Message_Base11setSourceIdEj @1803
    _ZN17LteX2Message_Base12parsimUnpackEPN7omnetpp11cCommBufferE @1804
    _ZN17LteX2Message_Base16setDestinationIdEj @1805
    _ZN17LteX2Message_Base4copyERKS_ @1806
    _ZN17LteX2Message_BaseC1ERKS_ @1807
    _ZN17LteX2Message_BaseC1Ev @1808
    _ZN17LteX2Message_BaseC2ERKS_ @1809
    _ZN17LteX2Message_BaseC2Ev @1810
    _ZN17LteX2Message_BaseD0Ev @1811
    _ZN17LteX2Message_BaseD1Ev @1812
    _ZN17LteX2Message_BaseD2Ev @1813
    _ZN17LteX2Message_BaseaSERKS_ @1814
    _ZN17MacControlElement12parsimUnpackEPN7omnetpp11cCommBufferE @1815
    _ZN17MacControlElement12setTimestampEd @1816
    _ZN17MacControlElement4copyERKS_ @1817
    _ZN17MacControlElementC1ERKS_ @1818
    _ZN17MacControlElementC1Ev @1819
    _ZN17MacControlElementC2ERKS_ @1820
    _ZN17MacControlElementC2Ev @1821
    _ZN17MacControlElementD0Ev @1822
    _ZN17MacControlElementD1Ev @1823
    _ZN17MacControlElementD2Ev @1824
    _ZN17MacControlElementaSERKS_ @1825
    _ZN17MrwDescDescriptorC1Ev @1826
    _ZN17MrwDescDescriptorC2Ev @1827
    _ZN17MrwDescDescriptorD0Ev @1828
    _ZN17MrwDescDescriptorD1Ev @1829
    _ZN17MrwDescDescriptorD2Ev @1830
    _ZN17MultihopD2DPacket11setSrcCoordERKN4inet5CoordE @1831
    _ZN17MultihopD2DPacket12parsimUnpackEPN7omnetpp11cCommBufferE @1832
    _ZN17MultihopD2DPacket12setMaxRadiusEd @1833
    _ZN17MultihopD2DPacket14setPayloadSizeEj @1834
    _ZN17MultihopD2DPacket18setLastHopSenderIdEj @1835
    _ZN17MultihopD2DPacket19setPayloadTimestampEN7omnetpp7SimTimeE @1836
    _ZN17MultihopD2DPacket20getSrcCoordForUpdateEv @1837
    _ZN17MultihopD2DPacket4copyERKS_ @1838
    _ZN17MultihopD2DPacket6setTtlEi @1839
    _ZN17MultihopD2DPacket7setHopsEj @1840
    _ZN17MultihopD2DPacket8setMsgidEj @1841
    _ZN17MultihopD2DPacket8setSrcIdEj @1842
    _ZN17MultihopD2DPacketC1ERKS_ @1843
    _ZN17MultihopD2DPacketC1Ev @1844
    _ZN17MultihopD2DPacketC2ERKS_ @1845
    _ZN17MultihopD2DPacketC2Ev @1846
    _ZN17MultihopD2DPacketD0Ev @1847
    _ZN17MultihopD2DPacketD1Ev @1848
    _ZN17MultihopD2DPacketD2Ev @1849
    _ZN17MultihopD2DPacketaSERKS_ @1850
    _ZN17SafetyStartPacket12parsimUnpackEPN7omnetpp11cCommBufferE @1851
    _ZN17SafetyStartPacket18setCenterPositionXEd @1852
    _ZN17SafetyStartPacket18setCenterPositionYEd @1853
    _ZN17SafetyStartPacket18setCenterPositionZEd @1854
    _ZN17SafetyStartPacket19setPayloadTimestampEN7omnetpp7SimTimeE @1855
    _ZN17SafetyStartPacket4copyERKS_ @1856
    _ZN17SafetyStartPacket9setRadiusEd @1857
    _ZN17SafetyStartPacketC1ERKS_ @1858
    _ZN17SafetyStartPacketC1Ev @1859
    _ZN17SafetyStartPacketC2ERKS_ @1860
    _ZN17SafetyStartPacketC2Ev @1861
    _ZN17SafetyStartPacketD0Ev @1862
    _ZN17SafetyStartPacketD1Ev @1863
    _ZN17SafetyStartPacketD2Ev @1864
    _ZN17SafetyStartPacketaSERKS_ @1865
    _ZN17ServiceDescriptorC2Ev @1866
    _ZN17ServiceDescriptorD2Ev @1867
    _ZN17SplitBearersTable10find_entryEjjt @1868
    _ZN17SplitBearersTable12create_entryEjjt @1869
    _ZN17SplitBearersTable9hash_funcEjjt @1870
    _ZN17SplitBearersTableC1Ev @1871
    _ZN17SplitBearersTableC2Ev @1872
    _ZN17SplitBearersTableD0Ev @1873
    _ZN17SplitBearersTableD1Ev @1874
    _ZN17SplitBearersTableD2Ev @1875
    _ZN17TrafficFlowFilter10initializeEi @1876
    _ZN17TrafficFlowFilter13handleMessageEPN7omnetpp8cMessageE @1877
    _ZN17TrafficFlowFilter15findTrafficFlowEN4inet9L3AddressES1_ @1878
    _ZN17TrafficFlowFilter15selectOwnerTypeEPKc @1879
    _ZN17TrafficFlowFilter6finishEv @1880
    _ZN17TrafficFlowFilterD0Ev @1881
    _ZN17TrafficFlowFilterD2Ev @1882
    _ZN17UEWarningAlertApp10initializeEi @1883
    _ZN17UEWarningAlertApp13handleMessageEPN7omnetpp8cMessageE @1884
    _ZN17UEWarningAlertApp19sendMessageToMECAppEv @1885
    _ZN17UEWarningAlertApp25sendStopMEWarningAlertAppEv @1886
    _ZN17UEWarningAlertApp26sendStartMEWarningAlertAppEv @1887
    _ZN17UEWarningAlertApp27handleInfoMEWarningAlertAppEPN7omnetpp8cMessageE @1888
    _ZN17UEWarningAlertApp30handleAckStopMEWarningAlertAppEPN7omnetpp8cMessageE @1889
    _ZN17UEWarningAlertApp31handleAckStartMEWarningAlertAppEPN7omnetpp8cMessageE @1890
    _ZN17UEWarningAlertApp6finishEv @1891
    _ZN17UEWarningAlertAppC1Ev @1892
    _ZN17UEWarningAlertAppC2Ev @1893
    _ZN17UEWarningAlertAppD0Ev @1894
    _ZN17UEWarningAlertAppD1Ev @1895
    _ZN17UEWarningAlertAppD2Ev @1896
    _ZN17WarningStopPacket12parsimUnpackEPN7omnetpp11cCommBufferE @1897
    _ZN17WarningStopPacket4copyERKS_ @1898
    _ZN17WarningStopPacketC1ERKS_ @1899
    _ZN17WarningStopPacketC1Ev @1900
    _ZN17WarningStopPacketC2ERKS_ @1901
    _ZN17WarningStopPacketC2Ev @1902
    _ZN17WarningStopPacketD0Ev @1903
    _ZN17WarningStopPacketD1Ev @1904
    _ZN17WarningStopPacketD2Ev @1905
    _ZN17WarningStopPacketaSERKS_ @1906
    _ZN17X2HandoverDataMsgD0Ev @1907
    _ZN18AirFrameDescriptorC1Ev @1908
    _ZN18AirFrameDescriptorC2Ev @1909
    _ZN18AirFrameDescriptorD0Ev @1910
    _ZN18AirFrameDescriptorD1Ev @1911
    _ZN18AirFrameDescriptorD2Ev @1912
    _ZN18BestSelectionBased15findBestMecHostERK21ApplicationDescriptor @1913
    _ZN18BestSelectionBasedD0Ev @1914
    _ZN18HttpRequestMessage12addBodyChunkERKNSt7__cxx1112basic_stringIcSt11char_traitsIcESaIcEEE @1915
    _ZN18HttpRequestMessage14setHeaderFieldERKNSt7__cxx1112basic_stringIcSt11char_traitsIcESaIcEEES7_ @1916
    _ZN18HttpRequestMessage20setBackGroundRequestEb @1917
    _ZN18HttpRequestMessage24setLastBackGroundRequestEb @1918
    _ZN18HttpRequestMessage4copyERKS_ @1919
    _ZN18HttpRequestMessageC1ENSt7__cxx1112basic_stringIcSt11char_traitsIcESaIcEEEPKcs @1920
    _ZN18HttpRequestMessageC1EPKcS1_s @1921
    _ZN18HttpRequestMessageC1EPKcs @1922
    _ZN18HttpRequestMessageC2ENSt7__cxx1112basic_stringIcSt11char_traitsIcESaIcEEEPKcs @1923
    _ZN18HttpRequestMessageC2EPKcS1_s @1924
    _ZN18HttpRequestMessageC2EPKcs @1925
    _ZN18HttpRequestMessageD0Ev @1926
    _ZN18HttpRequestMessageD2Ev @1927
    _ZN18L2MeasSubscription16sendNotificationEP17EventNotification @1928
    _ZN18L2MeasSubscription18handleSubscriptionEv @1929
    _ZN18L2MeasSubscription24sendSubscriptionResponseEv @1930
    _ZN18L2MeasSubscription8fromJsonERKN8nlohmann10basic_jsonINS0_11ordered_mapESt6vectorNSt7__cxx1112basic_stringIcSt11char_traitsIcESaIcEEEbxydSaNS0_14adl_serializerES3_IhSaIhEEEE @1931
    _ZN18L2MeasSubscriptionC1EjPN4inet9TcpSocketERKNSt7__cxx1112basic_stringIcSt11char_traitsIcESaIcEEERSt3setIPN7omnetpp7cModuleESt4lessISE_ESaISE_EE @1932
    _ZN18L2MeasSubscriptionC1Ev @1933
    _ZN18L2MeasSubscriptionC2EjPN4inet9TcpSocketERKNSt7__cxx1112basic_stringIcSt11char_traitsIcESaIcEEERSt3setIPN7omnetpp7cModuleESt4lessISE_ESaISE_EE @1934
    _ZN18L2MeasSubscriptionC2Ev @1935
    _ZN18L2MeasSubscriptionD0Ev @1936
    _ZN18L2MeasSubscriptionD1Ev @1937
    _ZN18L2MeasSubscriptionD2Ev @1938
    _ZN18LteCompManagerBase10initializeEv @1939
    _ZN18LteCompManagerBase13handleMessageEPN7omnetpp8cMessageE @1940
    _ZN18LteCompManagerBase14setUsableBandsERSt6vectorItSaItEE @1941
    _ZN18LteCompManagerBase15handleX2MessageEPN4inet6PacketE @1942
    _ZN18LteCompManagerBase17sendClientRequestEP15X2CompRequestIE @1943
    _ZN18LteCompManagerBase19runClientOperationsEv @1944
    _ZN18LteCompManagerBase20sendCoordinatorReplyEtP13X2CompReplyIE @1945
    _ZN18LteCompManagerBase24runCoordinatorOperationsEv @1946
    _ZN18LteCompManagerBaseD0Ev @1947
    _ZN18LteCompManagerBaseD2Ev @1948
    _ZN18LteHandoverManager10initializeEv @1949
    _ZN18LteHandoverManager13handleMessageEPN7omnetpp8cMessageE @1950
    _ZN18LteHandoverManager15handleX2MessageEPN7omnetpp7cPacketE @1951
    _ZN18LteHandoverManager19sendHandoverCommandEttb @1952
    _ZN18LteHandoverManager22forwardDataToTargetEnbEPN4inet6PacketEt @1953
    _ZN18LteHandoverManager22receiveHandoverCommandEttb @1954
    _ZN18LteHandoverManager24receiveDataFromSourceEnbEPN4inet6PacketEt @1955
    _ZN18LteHandoverManagerD0Ev @1956
    _ZN18LteHarqBufferRxD2D12sendFeedbackEv @1957
    _ZN18LteHarqBufferRxD2D18extractCorrectPdusB5cxx11Ev @1958
    _ZN18LteHarqBufferRxD2D9insertPduEtPN4inet6PacketE @1959
    _ZN18LteHarqBufferRxD2DC1EjP10LteMacBasetb @1960
    _ZN18LteHarqBufferRxD2DC2EjP10LteMacBasetb @1961
    _ZN18LteHarqBufferRxD2DD0Ev @1962
    _ZN18LteHarqBufferRxD2DD1Ev @1963
    _ZN18LteHarqBufferRxD2DD2Ev @1964
    _ZN18LteHarqBufferTxD2D19receiveHarqFeedbackEP15LteHarqFeedback @1965
    _ZN18LteHarqBufferTxD2DC1EjP10LteMacBaseS1_ @1966
    _ZN18LteHarqBufferTxD2DC2EjP10LteMacBaseS1_ @1967
    _ZN18LteHarqBufferTxD2DD0Ev @1968
    _ZN18LteHarqBufferTxD2DD1Ev @1969
    _ZN18LteHarqBufferTxD2DD2Ev @1970
    _ZN18LteRlcDataPdu_Base12parsimUnpackEPN7omnetpp11cCommBufferE @1971
    _ZN18LteRlcDataPdu_Base4copyERKS_ @1972
    _ZN18LteRlcDataPdu_BaseC1ERKS_ @1973
    _ZN18LteRlcDataPdu_BaseC1Ev @1974
    _ZN18LteRlcDataPdu_BaseC2ERKS_ @1975
    _ZN18LteRlcDataPdu_BaseC2Ev @1976
    _ZN18LteRlcDataPdu_BaseD0Ev @1977
    _ZN18LteRlcDataPdu_BaseD1Ev @1978
    _ZN18LteRlcDataPdu_BaseD2Ev @1979
    _ZN18LteRlcDataPdu_BaseaSERKS_ @1980
    _ZN18LteSchedulingGrant17setGrantedCwBytesEyj @1981
    _ZN18LteSchedulingGrant19eraseGrantedCwBytesEy @1982
    _ZN18LteSchedulingGrant20appendGrantedCwBytesEj @1983
    _ZN18LteSchedulingGrant20insertGrantedCwBytesEyj @1984
    _ZN18LteSchedulingGrant26setGrantedCwBytesArraySizeEy @1985
    _ZN18LteSchedulingGrantC2ERKS_ @1986
    _ZN18LteSchedulingGrantD0Ev @1987
    _ZN18LteSchedulingGrantD2Ev @1988
    _ZN18LteSummaryFeedback5resetEv @1989
    _ZN18LteSummaryFeedbackC2ERKS_ @1990
    _ZN18LteSummaryFeedbackD2Ev @1991
    _ZN18LteX2MsgSerializerD0Ev @1992
    _ZN18MECWarningAlertApp10initializeEi @1993
    _ZN18MECWarningAlertApp11establishedEi @1994
    _ZN18MECWarningAlertApp15handleUeMessageEPN7omnetpp8cMessageE @1995
    _ZN18MECWarningAlertApp16handleMp1MessageEi @1996
    _ZN18MECWarningAlertApp16sendSubscriptionEv @1997
    _ZN18MECWarningAlertApp17handleHttpMessageEi @1998
    _ZN18MECWarningAlertApp17handleSelfMessageEPN7omnetpp8cMessageE @1999
    _ZN18MECWarningAlertApp18modifySubscriptionEv @2000
    _ZN18MECWarningAlertApp20handleServiceMessageEi @2001
    _ZN18MECWarningAlertApp22handleProcessedMessageEPN7omnetpp8cMessageE @2002
    _ZN18MECWarningAlertApp22sendDeleteSubscriptionEv @2003
    _ZN18MECWarningAlertApp6finishEv @2004
    _ZN18MECWarningAlertAppC1Ev @2005
    _ZN18MECWarningAlertAppC2Ev @2006
    _ZN18MECWarningAlertAppD0Ev @2007
    _ZN18MECWarningAlertAppD1Ev @2008
    _ZN18MECWarningAlertAppD2Ev @2009
    _ZN18MecPlatformManager10initializeEi @2010
    _ZN18MecPlatformManager10terminateREP16DeleteAppMessagePN7omnetpp7cModuleE @2011
    _ZN18MecPlatformManager13handleMessageEPN7omnetpp8cMessageE @2012
    _ZN18MecPlatformManager14terminateMEAppEP16DeleteAppMessage @2013
    _ZN18MecPlatformManager16instantiateMEAppEP16CreateAppMessage @2014
    _ZN18MecPlatformManager22terminateEmulatedMEAppEP16DeleteAppMessage @2015
    _ZN18MecPlatformManager24instantiateEmulatedMEAppEP16CreateAppMessage @2016
    _ZN18MecPlatformManager6finishEv @2017
    _ZN18MecPlatformManagerC1Ev @2018
    _ZN18MecPlatformManagerC2Ev @2019
    _ZN18MecPlatformManagerD0Ev @2020
    _ZN18MecPlatformManagerD2Ev @2021
    _ZN18WarningAlertPacket12parsimUnpackEPN7omnetpp11cCommBufferE @2022
    _ZN18WarningAlertPacket12setPositionXEd @2023
    _ZN18WarningAlertPacket12setPositionYEd @2024
    _ZN18WarningAlertPacket12setPositionZEd @2025
    _ZN18WarningAlertPacket12setUeOmnetIDEi @2026
    _ZN18WarningAlertPacket19setPayloadTimestampEN7omnetpp7SimTimeE @2027
    _ZN18WarningAlertPacket4copyERKS_ @2028
    _ZN18WarningAlertPacket9setDangerEb @2029
    _ZN18WarningAlertPacketC1ERKS_ @2030
    _ZN18WarningAlertPacketC1Ev @2031
    _ZN18WarningAlertPacketC2ERKS_ @2032
    _ZN18WarningAlertPacketC2Ev @2033
    _ZN18WarningAlertPacketD0Ev @2034
    _ZN18WarningAlertPacketD1Ev @2035
    _ZN18WarningAlertPacketD2Ev @2036
    _ZN18WarningAlertPacketaSERKS_ @2037
    _ZN18WarningStartPacket12parsimUnpackEPN7omnetpp11cCommBufferE @2038
    _ZN18WarningStartPacket18setCenterPositionXEd @2039
    _ZN18WarningStartPacket18setCenterPositionYEd @2040
    _ZN18WarningStartPacket18setCenterPositionZEd @2041
    _ZN18WarningStartPacket19setPayloadTimestampEN7omnetpp7SimTimeE @2042
    _ZN18WarningStartPacket4copyERKS_ @2043
    _ZN18WarningStartPacket9setRadiusEd @2044
    _ZN18WarningStartPacketC1ERKS_ @2045
    _ZN18WarningStartPacketC1Ev @2046
    _ZN18WarningStartPacketC2ERKS_ @2047
    _ZN18WarningStartPacketC2Ev @2048
    _ZN18WarningStartPacketD0Ev @2049
    _ZN18WarningStartPacketD1Ev @2050
    _ZN18WarningStartPacketD2Ev @2051
    _ZN18WarningStartPacketaSERKS_ @2052
    _ZN19BackgroundCellAmcNr16getMcsElemPerCqiEt9Direction @2053
    _ZN19BackgroundCellAmcNr17getSymbolsPerSlotEd9Direction @2054
    _ZN19BackgroundCellAmcNr19computeTbsFromNinfoEdd @2055
    _ZN19BackgroundCellAmcNr19getResourceElementsEjj @2056
    _ZN19BackgroundCellAmcNr26computeBitsPerRbBackgroundEt9Directiond @2057
    _ZN19BackgroundCellAmcNr27getResourceElementsPerBlockEj @2058
    _ZN19BackgroundCellAmcNrC1Ev @2059
    _ZN19BackgroundCellAmcNrC2Ev @2060
    _ZN19BackgroundCellAmcNrD0Ev @2061
    _ZN19BackgroundCellAmcNrD1Ev @2062
    _ZN19BackgroundCellAmcNrD2Ev @2063
    _ZN19BackgroundScheduler10initializeEi @2064
    _ZN19BackgroundScheduler13handleMessageEPN7omnetpp8cMessageE @2065
    _ZN19BackgroundScheduler13receiveSignalEPN7omnetpp10cComponentEiPNS0_7cObjectES4_ @2066
    _ZN19BackgroundScheduler15resetAllocationE9Direction @2067
    _ZN19BackgroundScheduler16updateAllocationE9Direction @2068
    _ZN19BackgroundScheduler20getBandInterferingUeEi @2069
    _ZN19BackgroundScheduler24getPrevBandInterferingUeEi @2070
    _ZN19BackgroundSchedulerD0Ev @2071
    _ZN19BackgroundSchedulerD2Ev @2072
    _ZN19CbrPacketDescriptorC1Ev @2073
    _ZN19CbrPacketDescriptorC2Ev @2074
    _ZN19CbrPacketDescriptorD0Ev @2075
    _ZN19CbrPacketDescriptorD1Ev @2076
    _ZN19CbrPacketDescriptorD2Ev @2077
    _ZN19CreateContextAppAck10setSuccessEb @2078
    _ZN19CreateContextAppAck12parsimUnpackEPN7omnetpp11cCommBufferE @2079
    _ZN19CreateContextAppAck12setContextIdEi @2080
    _ZN19CreateContextAppAck16setAppInstanceIdEPKc @2081
    _ZN19CreateContextAppAck17setAppInstanceUriEPKc @2082
    _ZN19CreateContextAppAck4copyERKS_ @2083
    _ZN19CreateContextAppAckC1EPKcs @2084
    _ZN19CreateContextAppAckC1ERKS_ @2085
    _ZN19CreateContextAppAckC2EPKcs @2086
    _ZN19CreateContextAppAckC2ERKS_ @2087
    _ZN19CreateContextAppAckD0Ev @2088
    _ZN19CreateContextAppAckD1Ev @2089
    _ZN19CreateContextAppAckD2Ev @2090
    _ZN19CreateContextAppAckaSERKS_ @2091
    _ZN19DeviceAppStopPacket12parsimUnpackEPN7omnetpp11cCommBufferE @2092
    _ZN19DeviceAppStopPacket12setContextIdEPKc @2093
    _ZN19DeviceAppStopPacket4copyERKS_ @2094
    _ZN19DeviceAppStopPacketC1ERKS_ @2095
    _ZN19DeviceAppStopPacketC1Ev @2096
    _ZN19DeviceAppStopPacketC2ERKS_ @2097
    _ZN19DeviceAppStopPacketC2Ev @2098
    _ZN19DeviceAppStopPacketD0Ev @2099
    _ZN19DeviceAppStopPacketD1Ev @2100
    _ZN19DeviceAppStopPacketD2Ev @2101
    _ZN19DeviceAppStopPacketaSERKS_ @2102
    _ZN19HttpResponseMessage12addBodyChunkERKNSt7__cxx1112basic_stringIcSt11char_traitsIcESaIcEEE @2103
    _ZN19HttpResponseMessage14setHeaderFieldERKNSt7__cxx1112basic_stringIcSt11char_traitsIcESaIcEEES7_ @2104
    _ZN19HttpResponseMessage4copyERKS_ @2105
    _ZN19HttpResponseMessage9setStatusE18HttpResponseStatus @2106
    _ZN19HttpResponseMessage9setStatusEPKc @2107
    _ZN19HttpResponseMessageC1E18HttpResponseStatusPKcs @2108
    _ZN19HttpResponseMessageC1EPKcs @2109
    _ZN19HttpResponseMessageC2E18HttpResponseStatusPKcs @2110
    _ZN19HttpResponseMessageC2EPKcs @2111
    _ZN19HttpResponseMessageD0Ev @2112
    _ZN19HttpResponseMessageD2Ev @2113
    _ZN19LteAllocationModule12getOFDMPlaneEt @2114
    _ZN19LteAllocationModule12rbOccupationEtRSt3mapI6RemoteS0_ItjSt4lessItESaISt4pairIKtjEEES2_IS1_ESaIS4_IKS1_S8_EEE @2115
    _ZN19LteAllocationModule12removeBlocksE6Remotett @2116
    _ZN19LteAllocationModule15availableBlocksEt5Planet @2117
    _ZN19LteAllocationModule15availableBlocksEt6Remotet @2118
    _ZN19LteAllocationModule15computeTotalRbsEv @2119
    _ZN19LteAllocationModule15storeAllocationESt6vectorIS0_ISt3mapIt23AllocatedRbsPerBandInfoSt4lessItESaISt4pairIKtS2_EEESaIS9_EESaISB_EEPSt3setItS4_SaItEE @2120
    _ZN19LteAllocationModule16setRemoteAntennaE5Plane6Remote @2121
    _ZN19LteAllocationModule18configureOFDMplaneE5Plane @2122
    _ZN19LteAllocationModule18getAllocatedBlocksE5Plane6Remotet @2123
    _ZN19LteAllocationModule21AllocatedRbsPerUeInfoC2Ev @2124
    _ZN19LteAllocationModule21getInterferringBlocksE5Plane6Remotet @2125
    _ZN19LteAllocationModule22configureMuMimoPeeringEtt @2126
    _ZN19LteAllocationModule23AllocatedRbsPerBandInfoC2ERKS0_ @2127
    _ZN19LteAllocationModule25getAllocatorOccupiedBandsEv @2128
    _ZN19LteAllocationModule4initEjj @2129
    _ZN19LteAllocationModule5resetEjj @2130
    _ZN19LteAllocationModule9addBlocksE6Remotettjj @2131
    _ZN19LteAllocationModule9addBlocksEttjj @2132
    _ZN19LteAllocationModule9getBlocksE6Remotett @2133
    _ZN19LteAllocationModuleC1EP9LteMacEnb9Direction @2134
    _ZN19LteAllocationModuleC2EP9LteMacEnb9Direction @2135
    _ZN19LteAllocationModuleD0Ev @2136
    _ZN19LteAllocationModuleD2Ev @2137
    _ZN19LteAllocatorBestFit12initAndResetEv @2138
    _ZN19LteAllocatorBestFit13checkConflictEPKSt3mapI8CGVertexS0_IS1_bSt4lessIS1_ESaISt4pairIKS1_bEEES3_SaIS4_IS5_S8_EEEtt @2139
    _ZN19LteAllocatorBestFit14commitScheduleEv @2140
    _ZN19LteAllocatorBestFit15prepareScheduleEv @2141
    _ZN19LteAllocatorBestFit17setAllocationTypeESt6vectorItSaItEE16AllocationUeTypet @2142
    _ZN19LteAllocatorBestFit9checkHoleER9Candidatetjj @2143
    _ZN19LteAllocatorBestFitC1Ev @2144
    _ZN19LteAllocatorBestFitC2Ev @2145
    _ZN19LteAllocatorBestFitD0Ev @2146
    _ZN19LteAllocatorBestFitD1Ev @2147
    _ZN19LteAllocatorBestFitD2Ev @2148
    _ZN19LteFeedbackPkt_Base12parsimUnpackEPN7omnetpp11cCommBufferE @2149
    _ZN19LteFeedbackPkt_Base4copyERKS_ @2150
    _ZN19LteFeedbackPkt_BaseC1ERKS_ @2151
    _ZN19LteFeedbackPkt_BaseC1Ev @2152
    _ZN19LteFeedbackPkt_BaseC2ERKS_ @2153
    _ZN19LteFeedbackPkt_BaseC2Ev @2154
    _ZN19LteFeedbackPkt_BaseD0Ev @2155
    _ZN19LteFeedbackPkt_BaseD1Ev @2156
    _ZN19LteFeedbackPkt_BaseD2Ev @2157
    _ZN19LteFeedbackPkt_BaseaSERKS_ @2158
    _ZN19LteHarqProcessRxD2D14createFeedbackEt @2159
    _ZN19LteHarqProcessRxD2D20createFeedbackMirrorEt @2160
    _ZN19LteHarqProcessRxD2DC1EhP10LteMacBase @2161
    _ZN19LteHarqProcessRxD2DC2EhP10LteMacBase @2162
    _ZN19LteHarqProcessRxD2DD0Ev @2163
    _ZN19LteHarqProcessRxD2DD1Ev @2164
    _ZN19LteHarqProcessRxD2DD2Ev @2165
    _ZN19LteHarqProcessTxD2D10extractPduEt @2166
    _ZN19LteHarqProcessTxD2DC1EhjjP10LteMacBaseS1_ @2167
    _ZN19LteHarqProcessTxD2DC2EhjjP10LteMacBaseS1_ @2168
    _ZN19LteHarqProcessTxD2DD0Ev @2169
    _ZN19LteHarqProcessTxD2DD1Ev @2170
    _ZN19LteHarqProcessTxD2DD2Ev @2171
    _ZN19LteMacPduDescriptorC1Ev @2172
    _ZN19LteMacPduDescriptorC2Ev @2173
    _ZN19LteMacPduDescriptorD0Ev @2174
    _ZN19LteMacPduDescriptorD1Ev @2175
    _ZN19LteMacPduDescriptorD2Ev @2176
    _ZN19LteRlcPduDescriptorC1Ev @2177
    _ZN19LteRlcPduDescriptorC2Ev @2178
    _ZN19LteRlcPduDescriptorD0Ev @2179
    _ZN19LteRlcPduDescriptorD1Ev @2180
    _ZN19LteRlcPduDescriptorD2Ev @2181
    _ZN19LteRlcSduDescriptorC1Ev @2182
    _ZN19LteRlcSduDescriptorC2Ev @2183
    _ZN19LteRlcSduDescriptorD0Ev @2184
    _ZN19LteRlcSduDescriptorD1Ev @2185
    _ZN19LteRlcSduDescriptorD2Ev @2186
    _ZN19M1MessageDescriptorC1Ev @2187
    _ZN19M1MessageDescriptorC2Ev @2188
    _ZN19M1MessageDescriptorD0Ev @2189
    _ZN19M1MessageDescriptorD1Ev @2190
    _ZN19M1MessageDescriptorD2Ev @2191
    _ZN19MECPacketDescriptorC1Ev @2192
    _ZN19MECPacketDescriptorC2Ev @2193
    _ZN19MECPacketDescriptorD0Ev @2194
    _ZN19MECPacketDescriptorD1Ev @2195
    _ZN19MECPacketDescriptorD2Ev @2196
    _ZN19PacketFlowManagerUe10clearStatsEv @2197
    _ZN19PacketFlowManagerUe10initializeEi @2198
    _ZN19PacketFlowManagerUe12clearAllLcidEv @2199
    _ZN19PacketFlowManagerUe12insertMacPduEN4inet12IntrusivePtrIK9LteMacPduEE @2200
    _ZN19PacketFlowManagerUe12insertRlcPduEtN4inet12IntrusivePtrI15LteRlcUmDataPduEE14RlcBurstStatus @2201
    _ZN19PacketFlowManagerUe13discardMacPduEN4inet12IntrusivePtrIK9LteMacPduEE @2202
    _ZN19PacketFlowManagerUe13discardRlcPduEtjb @2203
    _ZN19PacketFlowManagerUe13getDelayStatsEv @2204
    _ZN19PacketFlowManagerUe13insertPdcpSduEPN4inet6PacketE @2205
    _ZN19PacketFlowManagerUe13macPduArrivedEN4inet12IntrusivePtrIK9LteMacPduEE @2206
    _ZN19PacketFlowManagerUe14initPdcpStatusEPNS_16StatusDescriptorEjjRN7omnetpp7SimTimeE @2207
    _ZN19PacketFlowManagerUe15getDiscardedPktEv @2208
    _ZN19PacketFlowManagerUe16StatusDescriptorD2Ev @2209
    _ZN19PacketFlowManagerUe17insertHarqProcessEtjj @2210
    _ZN19PacketFlowManagerUe17resetDelayCounterEv @2211
    _ZN19PacketFlowManagerUe6finishEv @2212
    _ZN19PacketFlowManagerUe8initLcidEtt @2213
    _ZN19PacketFlowManagerUe9checkLcidEt @2214
    _ZN19PacketFlowManagerUe9clearLcidEt @2215
    _ZN19PacketFlowManagerUeC1Ev @2216
    _ZN19PacketFlowManagerUeC2Ev @2217
    _ZN19PacketFlowManagerUeD0Ev @2218
    _ZN19PacketFlowManagerUeD1Ev @2219
    _ZN19PacketFlowManagerUeD2Ev @2220
    _ZN19SelectionPolicyBaseD2Ev @2221
    _ZN19TTimerMsgDescriptorC1Ev @2222
    _ZN19TTimerMsgDescriptorC2Ev @2223
    _ZN19TTimerMsgDescriptorD0Ev @2224
    _ZN19TTimerMsgDescriptorD1Ev @2225
    _ZN19TTimerMsgDescriptorD2Ev @2226
    _ZN19TrafficGeneratorCbr10getAvgLoadE9Direction @2227
    _ZN19TrafficGeneratorCbr10initializeEi @2228
    _ZN19TrafficGeneratorCbr15generateTrafficE9Direction @2229
    _ZN19TrafficGeneratorCbr21getNextGenerationTimeE9Direction @2230
    _ZN19TrafficGeneratorCbrD0Ev @2231
    _ZN19VoDPacketDescriptorC1Ev @2232
    _ZN19VoDPacketDescriptorC2Ev @2233
    _ZN19VoDPacketDescriptorD0Ev @2234
    _ZN19VoDPacketDescriptorD1Ev @2235
    _ZN19VoDPacketDescriptorD2Ev @2236
    _ZN19X2HandoverCommandIED0Ev @2237
    _ZN20ActiveUeNotification12parsimUnpackEPN7omnetpp11cCommBufferE @2238
    _ZN20ActiveUeNotification4copyERKS_ @2239
    _ZN20ActiveUeNotification8setIndexEi @2240
    _ZN20ActiveUeNotificationC1EPKcs @2241
    _ZN20ActiveUeNotificationC1ERKS_ @2242
    _ZN20ActiveUeNotificationC2EPKcs @2243
    _ZN20ActiveUeNotificationC2ERKS_ @2244
    _ZN20ActiveUeNotificationD0Ev @2245
    _ZN20ActiveUeNotificationD1Ev @2246
    _ZN20ActiveUeNotificationD2Ev @2247
    _ZN20ActiveUeNotificationaSERKS_ @2248
    _ZN20D2DModeSelectionBase10initializeEi @2249
    _ZN20D2DModeSelectionBase13handleMessageEPN7omnetpp8cMessageE @2250
    _ZN20D2DModeSelectionBase15doModeSelectionEv @2251
    _ZN20D2DModeSelectionBase22doModeSwitchAtHandoverEtb @2252
    _ZN20D2DModeSelectionBase27sendModeSwitchNotificationsEv @2253
    _ZN20D2DModeSelectionBaseD0Ev @2254
    _ZN20D2DModeSelectionBaseD2Ev @2255
    _ZN20DataPacketDescriptorC1Ev @2256
    _ZN20DataPacketDescriptorC2Ev @2257
    _ZN20DataPacketDescriptorD0Ev @2258
    _ZN20DataPacketDescriptorD1Ev @2259
    _ZN20DataPacketDescriptorD2Ev @2260
    _ZN20DeviceAppStartPacket12parsimUnpackEPN7omnetpp11cCommBufferE @2261
    _ZN20DeviceAppStartPacket12setMecAppDIdEPKc @2262
    _ZN20DeviceAppStartPacket13setMecAppNameEPKc @2263
    _ZN20DeviceAppStartPacket17setMecAppProviderEPKc @2264
    _ZN20DeviceAppStartPacket19setAppPackageSourceEPKc @2265
    _ZN20DeviceAppStartPacket19setPayloadTimestampEN7omnetpp7SimTimeE @2266
    _ZN20DeviceAppStartPacket4copyERKS_ @2267
    _ZN20DeviceAppStartPacketC1ERKS_ @2268
    _ZN20DeviceAppStartPacketC1Ev @2269
    _ZN20DeviceAppStartPacketC2ERKS_ @2270
    _ZN20DeviceAppStartPacketC2Ev @2271
    _ZN20DeviceAppStartPacketD0Ev @2272
    _ZN20DeviceAppStartPacketD1Ev @2273
    _ZN20DeviceAppStartPacketD2Ev @2274
    _ZN20DeviceAppStartPacketaSERKS_ @2275
    _ZN20GtpUserMsgDescriptorC1Ev @2276
    _ZN20GtpUserMsgDescriptorC2Ev @2277
    _ZN20GtpUserMsgDescriptorD0Ev @2278
    _ZN20GtpUserMsgDescriptorD1Ev @2279
    _ZN20GtpUserMsgDescriptorD2Ev @2280
    _ZN20GtpUserMsgSerializerD0Ev @2281
    _ZN20HttpRequestMessage_m12parsimUnpackEPN7omnetpp11cCommBufferE @2282
    _ZN20HttpRequestMessage_m13setParametersEPKc @2283
    _ZN20HttpRequestMessage_m15setResponseTimeEd @2284
    _ZN20HttpRequestMessage_m4copyERKS_ @2285
    _ZN20HttpRequestMessage_m6setUriEPKc @2286
    _ZN20HttpRequestMessage_m7setHostEPKc @2287
    _ZN20HttpRequestMessage_m9setMethodEPKc @2288
    _ZN20HttpRequestMessage_mC1ERKS_ @2289
    _ZN20HttpRequestMessage_mC1Ev @2290
    _ZN20HttpRequestMessage_mC2ERKS_ @2291
    _ZN20HttpRequestMessage_mC2Ev @2292
    _ZN20HttpRequestMessage_mD0Ev @2293
    _ZN20HttpRequestMessage_mD1Ev @2294
    _ZN20HttpRequestMessage_mD2Ev @2295
    _ZN20HttpRequestMessage_maSERKS_ @2296
    _ZN20LteDummyChannelModel10initializeEi @2297
    _ZN20LteDummyChannelModel10isErrorDasEP11LteAirFrameP15UserControlInfo @2298
    _ZN20LteDummyChannelModel11getRSRP_D2DEP11LteAirFrameP15UserControlInfotN4inet5CoordE @2299
    _ZN20LteDummyChannelModel11getSINR_D2DEP11LteAirFrameP15UserControlInfotN4inet5CoordEt @2300
    _ZN20LteDummyChannelModel11getSINR_D2DEP11LteAirFrameP15UserControlInfotN4inet5CoordEtRKSt6vectorIdSaIdEE @2301
    _ZN20LteDummyChannelModel11isError_D2DEP11LteAirFrameP15UserControlInfoRKSt6vectorIdSaIdEE @2302
    _ZN20LteDummyChannelModel12getSINR_bgUeEP11LteAirFrameP15UserControlInfo @2303
    _ZN20LteDummyChannelModel14getAttenuationEt9DirectionN4inet5CoordEb @2304
    _ZN20LteDummyChannelModel15computePathLossEddb @2305
    _ZN20LteDummyChannelModel21getReceivedPower_bgUeEdN4inet5CoordES1_9Directionbt @2306
    _ZN20LteDummyChannelModel6getSIREP11LteAirFrameP15UserControlInfo @2307
    _ZN20LteDummyChannelModel7getRSRPEP11LteAirFrameP15UserControlInfo @2308
    _ZN20LteDummyChannelModel7getSINREP11LteAirFrameP15UserControlInfo @2309
    _ZN20LteDummyChannelModel7isErrorEP11LteAirFrameP15UserControlInfo @2310
    _ZN20LteDummyChannelModelD0Ev @2311
    _ZN20LtePdcpPduDescriptorC1Ev @2312
    _ZN20LtePdcpPduDescriptorC2Ev @2313
    _ZN20LtePdcpPduDescriptorD0Ev @2314
    _ZN20LtePdcpPduDescriptorD1Ev @2315
    _ZN20LtePdcpPduDescriptorD2Ev @2316
    _ZN20LteRohcPduDescriptorC1Ev @2317
    _ZN20LteRohcPduDescriptorC2Ev @2318
    _ZN20LteRohcPduDescriptorD0Ev @2319
    _ZN20LteRohcPduDescriptorD1Ev @2320
    _ZN20LteRohcPduDescriptorD2Ev @2321
    _ZN20PacketFlowManagerEnb10initializeEi @2322
    _ZN20PacketFlowManagerEnb11BurstStatusD2Ev @2323
    _ZN20PacketFlowManagerEnb12clearAllLcidEv @2324
    _ZN20PacketFlowManagerEnb12insertMacPduEN4inet12IntrusivePtrIK9LteMacPduEE @2325
    _ZN20PacketFlowManagerEnb12insertRlcPduEtN4inet12IntrusivePtrI15LteRlcUmDataPduEE14RlcBurstStatus @2326
    _ZN20PacketFlowManagerEnb13discardMacPduEN4inet12IntrusivePtrIK9LteMacPduEE @2327
    _ZN20PacketFlowManagerEnb13discardRlcPduEtjb @2328
    _ZN20PacketFlowManagerEnb13getDataVolumeEt9Direction @2329
    _ZN20PacketFlowManagerEnb13insertPdcpSduEPN4inet6PacketE @2330
    _ZN20PacketFlowManagerEnb13macPduArrivedEN4inet12IntrusivePtrIK9LteMacPduEE @2331
    _ZN20PacketFlowManagerEnb14initPdcpStatusEPNS_16StatusDescriptorEjjRN7omnetpp7SimTimeE @2332
    _ZN20PacketFlowManagerEnb15getDiscardedPktEv @2333
    _ZN20PacketFlowManagerEnb15getPdpcLossRateEv @2334
    _ZN20PacketFlowManagerEnb15receivedPdcpSduEPN4inet6PacketE @2335
    _ZN20PacketFlowManagerEnb15resetDataVolumeEt @2336
    _ZN20PacketFlowManagerEnb15resetDataVolumeEt9Direction @2337
    _ZN20PacketFlowManagerEnb15ulMacPduArrivedEtj @2338
    _ZN20PacketFlowManagerEnb16StatusDescriptorD2Ev @2339
    _ZN20PacketFlowManagerEnb17insertHarqProcessEtjj @2340
    _ZN20PacketFlowManagerEnb18getDelayStatsPerUeEt @2341
    _ZN20PacketFlowManagerEnb18removePdcpBurstRLCEPNS_16StatusDescriptorEjb @2342
    _ZN20PacketFlowManagerEnb18resetPdpcLossRatesEv @2343
    _ZN20PacketFlowManagerEnb20getDiscardedPktPerUeEt @2344
    _ZN20PacketFlowManagerEnb20getPdpcLossRatePerUeEt @2345
    _ZN20PacketFlowManagerEnb20getUlDelayStatsPerUeEt @2346
    _ZN20PacketFlowManagerEnb22resetDelayCounterPerUeEt @2347
    _ZN20PacketFlowManagerEnb22resetPdpcLossRatePerUeEt @2348
    _ZN20PacketFlowManagerEnb23getThroughputStatsPerUeEt @2349
    _ZN20PacketFlowManagerEnb24resetDiscardCounterPerUeEt @2350
    _ZN20PacketFlowManagerEnb24resetUlDelayCounterPerUeEt @2351
    _ZN20PacketFlowManagerEnb27resetThroughputCounterPerUeEt @2352
    _ZN20PacketFlowManagerEnb6finishEv @2353
    _ZN20PacketFlowManagerEnb8deleteUeEt @2354
    _ZN20PacketFlowManagerEnb8initLcidEtt @2355
    _ZN20PacketFlowManagerEnb9checkLcidEt @2356
    _ZN20PacketFlowManagerEnb9clearLcidEt @2357
    _ZN20PacketFlowManagerEnb9grantSentEtj @2358
    _ZN20PacketFlowManagerEnbC1Ev @2359
    _ZN20PacketFlowManagerEnbC2Ev @2360
    _ZN20PacketFlowManagerEnbD0Ev @2361
    _ZN20PacketFlowManagerEnbD1Ev @2362
    _ZN20PacketFlowManagerEnbD2Ev @2363
    _ZN20TrafficGeneratorBase10getAvgLoadE9Direction @2364
    _ZN20TrafficGeneratorBase10initializeEi @2365
    _ZN20TrafficGeneratorBase12consumeBytesEi9Directionb @2366
    _ZN20TrafficGeneratorBase13handleMessageEPN7omnetpp8cMessageE @2367
    _ZN20TrafficGeneratorBase13receiveSignalEPN7omnetpp10cComponentEiPNS0_7cObjectES4_ @2368
    _ZN20TrafficGeneratorBase14setCqiFromSinrEd9Direction @2369
    _ZN20TrafficGeneratorBase15generateTrafficE9Direction @2370
    _ZN20TrafficGeneratorBase15getBufferLengthE9Directionb @2371
    _ZN20TrafficGeneratorBase18updateMeasurementsEv @2372
    _ZN20TrafficGeneratorBase19collectMeasuredSinrEd9Direction @2373
    _ZN20TrafficGeneratorBase21getNextGenerationTimeE9Direction @2374
    _ZN20TrafficGeneratorBase5getIdEv @2375
    _ZN20TrafficGeneratorBase6getCqiE9Direction @2376
    _ZN20TrafficGeneratorBase8getCoordEv @2377
    _ZN20TrafficGeneratorBase8getTxPwrEv @2378
    _ZN20TrafficGeneratorBaseC1Ev @2379
    _ZN20TrafficGeneratorBaseC2Ev @2380
    _ZN20TrafficGeneratorBaseD0Ev @2381
    _ZN20TrafficGeneratorBaseD1Ev @2382
    _ZN20TrafficGeneratorBaseD2Ev @2383
    _ZN20TrafficLightMobility10initializeEi @2384
    _ZN20TrafficLightMobility16getTrafficLightsEv @2385
    _ZN20TrafficLightMobility25getOrientationAngleDegreeEv @2386
    _ZN20TrafficLightMobility4moveEv @2387
    _ZN20TrafficLightMobilityC1Ev @2388
    _ZN20TrafficLightMobilityC2Ev @2389
    _ZN20TrafficLightMobilityD0Ev @2390
    _ZN20TrafficLightMobilityD2Ev @2391
    _ZN20UserControlInfo_Base10setGrantIdEj @2392
    _ZN20UserControlInfo_Base10setTxPowerEd @2393
    _ZN20UserControlInfo_Base11setTxNumberEh @2394
    _ZN20UserControlInfo_Base12parsimUnpackEPN7omnetpp11cCommBufferE @2395
    _ZN20UserControlInfo_Base12setBlerValueEd @2396
    _ZN20UserControlInfo_Base12setFrameTypeEj @2397
    _ZN20UserControlInfo_Base13setD2dTxPowerEd @2398
    _ZN20UserControlInfo_Base14setIsBroadcastEb @2399
    _ZN20UserControlInfo_Base16setDeciderResultEb @2400
    _ZN20UserControlInfo_Base16setIsCorruptibleEb @2401
    _ZN20UserControlInfo_Base19setCarrierFrequencyEd @2402
    _ZN20UserControlInfo_Base21setTotalGrantedBlocksEj @2403
    _ZN20UserControlInfo_Base4copyERKS_ @2404
    _ZN20UserControlInfo_Base5setCwEh @2405
    _ZN20UserControlInfo_Base6setNdiEb @2406
    _ZN20UserControlInfo_Base7setAcidEh @2407
    _ZN20UserControlInfo_Base7setIsNrEb @2408
    _ZN20UserControlInfo_Base9setBlerThEd @2409
    _ZN20UserControlInfo_Base9setTxModeEt @2410
    _ZN20UserControlInfo_BaseC1ERKS_ @2411
    _ZN20UserControlInfo_BaseC1Ev @2412
    _ZN20UserControlInfo_BaseC2ERKS_ @2413
    _ZN20UserControlInfo_BaseC2Ev @2414
    _ZN20UserControlInfo_BaseD0Ev @2415
    _ZN20UserControlInfo_BaseD1Ev @2416
    _ZN20UserControlInfo_BaseD2Ev @2417
    _ZN20UserControlInfo_BaseaSERKS_ @2418
    _ZN20VoipPacketDescriptorC1Ev @2419
    _ZN20VoipPacketDescriptorC2Ev @2420
    _ZN20VoipPacketDescriptorD0Ev @2421
    _ZN20VoipPacketDescriptorD1Ev @2422
    _ZN20VoipPacketDescriptorD2Ev @2423
    _ZN20VoipPacketSerializerD0Ev @2424
    _ZN20X2HandoverControlMsgC1ERKS_ @2425
    _ZN20X2HandoverControlMsgC1Ev @2426
    _ZN20X2HandoverControlMsgC2ERKS_ @2427
    _ZN20X2HandoverControlMsgC2Ev @2428
    _ZN20X2HandoverControlMsgD0Ev @2429
    _ZN20X2HandoverControlMsgD1Ev @2430
    _ZN20X2HandoverControlMsgD2Ev @2431
    _ZN20X2HandoverControlMsgaSERKS_ @2432
    _ZN20X2InformationElementD0Ev @2433
    _ZN21AlertPacketDescriptorC1Ev @2434
    _ZN21AlertPacketDescriptorC2Ev @2435
    _ZN21AlertPacketDescriptorD0Ev @2436
    _ZN21AlertPacketDescriptorD1Ev @2437
    _ZN21AlertPacketDescriptorD2Ev @2438
    _ZN21ApplicationDescriptorC1EPKc @2439
    _ZN21ApplicationDescriptorC1ERKNSt7__cxx1112basic_stringIcSt11char_traitsIcESaIcEEES7_S7_S7_S7_RK18ResourceDescriptorSt6vectorIS5_SaIS5_EESD_ @2440
    _ZN21ApplicationDescriptorC2EPKc @2441
    _ZN21ApplicationDescriptorC2ERKNSt7__cxx1112basic_stringIcSt11char_traitsIcESaIcEEES7_S7_S7_S7_RK18ResourceDescriptorSt6vectorIS5_SaIS5_EESD_ @2442
    _ZN21ApplicationDescriptorD2Ev @2443
    _ZN21BurstPacketDescriptorC1Ev @2444
    _ZN21BurstPacketDescriptorC2Ev @2445
    _ZN21BurstPacketDescriptorD0Ev @2446
    _ZN21BurstPacketDescriptorD1Ev @2447
    _ZN21BurstPacketDescriptorD2Ev @2448
    _ZN21HttpResponseMessage_m12parsimUnpackEPN7omnetpp11cCommBufferE @2449
    _ZN21HttpResponseMessage_m4copyERKS_ @2450
    _ZN21HttpResponseMessage_m7setCodeEi @2451
    _ZN21HttpResponseMessage_m9setStatusEPKc @2452
    _ZN21HttpResponseMessage_mC1ERKS_ @2453
    _ZN21HttpResponseMessage_mC1Ev @2454
    _ZN21HttpResponseMessage_mC2ERKS_ @2455
    _ZN21HttpResponseMessage_mC2Ev @2456
    _ZN21HttpResponseMessage_mD0Ev @2457
    _ZN21HttpResponseMessage_mD1Ev @2458
    _ZN21HttpResponseMessage_mD2Ev @2459
    _ZN21HttpResponseMessage_maSERKS_ @2460
    _ZN21LteAirFrameDescriptorC1Ev @2461
    _ZN21LteAirFrameDescriptorC2Ev @2462
    _ZN21LteAirFrameDescriptorD0Ev @2463
    _ZN21LteAirFrameDescriptorD1Ev @2464
    _ZN21LteAirFrameDescriptorD2Ev @2465
    _ZN21LteHarqFeedbackMirror12parsimUnpackEPN7omnetpp11cCommBufferE @2466
    _ZN21LteHarqFeedbackMirror12setPduLengthEl @2467
    _ZN21LteHarqFeedbackMirror14setD2dSenderIdEl @2468
    _ZN21LteHarqFeedbackMirror16setD2dReceiverIdEl @2469
    _ZN21LteHarqFeedbackMirror4copyERKS_ @2470
    _ZN21LteHarqFeedbackMirrorC1ERKS_ @2471
    _ZN21LteHarqFeedbackMirrorC1Ev @2472
    _ZN21LteHarqFeedbackMirrorC2ERKS_ @2473
    _ZN21LteHarqFeedbackMirrorC2Ev @2474
    _ZN21LteHarqFeedbackMirrorD0Ev @2475
    _ZN21LteHarqFeedbackMirrorD1Ev @2476
    _ZN21LteHarqFeedbackMirrorD2Ev @2477
    _ZN21LteHarqFeedbackMirroraSERKS_ @2478
    _ZN21LteMacSduRequest_Base10setSduSizeEj @2479
    _ZN21LteMacSduRequest_Base12parsimUnpackEPN7omnetpp11cCommBufferE @2480
    _ZN21LteMacSduRequest_Base4copyERKS_ @2481
    _ZN21LteMacSduRequest_BaseC1ERKS_ @2482
    _ZN21LteMacSduRequest_BaseC1Ev @2483
    _ZN21LteMacSduRequest_BaseC2ERKS_ @2484
    _ZN21LteMacSduRequest_BaseC2Ev @2485
    _ZN21LteMacSduRequest_BaseD0Ev @2486
    _ZN21LteMacSduRequest_BaseD1Ev @2487
    _ZN21LteMacSduRequest_BaseD2Ev @2488
    _ZN21LteMacSduRequest_BaseaSERKS_ @2489
    _ZN21LteRlcAmPduDescriptorC1Ev @2490
    _ZN21LteRlcAmPduDescriptorC2Ev @2491
    _ZN21LteRlcAmPduDescriptorD0Ev @2492
    _ZN21LteRlcAmPduDescriptorD1Ev @2493
    _ZN21LteRlcAmPduDescriptorD2Ev @2494
    _ZN21LteRlcAmSduDescriptorC1Ev @2495
    _ZN21LteRlcAmSduDescriptorC2Ev @2496
    _ZN21LteRlcAmSduDescriptorD0Ev @2497
    _ZN21LteRlcAmSduDescriptorD1Ev @2498
    _ZN21LteRlcAmSduDescriptorD2Ev @2499
    _ZN21MEAppPacketDescriptorC1Ev @2500
    _ZN21MEAppPacketDescriptorC2Ev @2501
    _ZN21MEAppPacketDescriptorD0Ev @2502
    _ZN21MEAppPacketDescriptorD1Ev @2503
    _ZN21MEAppPacketDescriptorD2Ev @2504
    _ZN21MeasRepUeSubscription16sendNotificationEP17EventNotification @2505
    _ZN21MeasRepUeSubscription18handleSubscriptionEv @2506
    _ZN21MeasRepUeSubscription24sendSubscriptionResponseEv @2507
    _ZN21MeasRepUeSubscription8fromJsonERKN8nlohmann10basic_jsonINS0_11ordered_mapESt6vectorNSt7__cxx1112basic_stringIcSt11char_traitsIcESaIcEEEbxydSaNS0_14adl_serializerES3_IhSaIhEEEE @2508
    _ZN21MeasRepUeSubscriptionC1EjPN4inet9TcpSocketERKNSt7__cxx1112basic_stringIcSt11char_traitsIcESaIcEEERSt3setIPN7omnetpp7cModuleESt4lessISE_ESaISE_EE @2509
    _ZN21MeasRepUeSubscriptionC1Ev @2510
    _ZN21MeasRepUeSubscriptionC2EjPN4inet9TcpSocketERKNSt7__cxx1112basic_stringIcSt11char_traitsIcESaIcEEERSt3setIPN7omnetpp7cModuleESt4lessISE_ESaISE_EE @2511
    _ZN21MeasRepUeSubscriptionC2Ev @2512
    _ZN21MeasRepUeSubscriptionD0Ev @2513
    _ZN21MeasRepUeSubscriptionD1Ev @2514
    _ZN21MeasRepUeSubscriptionD2Ev @2515
    _ZN21MecHostSelectionBased15findBestMecHostERK21ApplicationDescriptor @2516
    _ZN21MecHostSelectionBasedC1EP15MecOrchestratori @2517
    _ZN21MecHostSelectionBasedC2EP15MecOrchestratori @2518
    _ZN21MecHostSelectionBasedD0Ev @2519
    _ZN21MultihopD2DStatistics10initializeEv @2520
    _ZN21MultihopD2DStatistics15recordReceptionEtjN7omnetpp7SimTimeEi @2521
    _ZN21MultihopD2DStatistics17recordSentMessageEj @2522
    _ZN21MultihopD2DStatistics18recordNewBroadcastEjRSt3setItSt4lessItESaItEE @2523
    _ZN21MultihopD2DStatistics23recordSuppressedMessageEj @2524
    _ZN21MultihopD2DStatistics24recordDuplicateReceptionEj @2525
    _ZN21MultihopD2DStatistics6finishEv @2526
    _ZN21MultihopD2DStatisticsD0Ev @2527
    _ZN21MultihopD2DStatisticsD2Ev @2528
    _ZN21PacketFlowManagerBase10initializeEi @2529
    _ZN21PacketFlowManagerBase13getNextRlcSnoEv @2530
    _ZN21PacketFlowManagerBase13insertPdcpSduEPN4inet6PacketE @2531
    _ZN21PacketFlowManagerBase14getNextPdcpSnoEv @2532
    _ZN21PacketFlowManagerBase15receivedPdcpSduEPN4inet6PacketE @2533
    _ZN21PacketFlowManagerBase15ulMacPduArrivedEtj @2534
    _ZN21PacketFlowManagerBase19resetDiscardCounterEv @2535
    _ZN21PacketFlowManagerBase6finishEv @2536
    _ZN21PacketFlowManagerBase9grantSentEtj @2537
    _ZN21PacketFlowManagerBaseC2Ev @2538
    _ZN21PacketFlowManagerBaseD0Ev @2539
    _ZN21PacketFlowManagerBaseD1Ev @2540
    _ZN21PacketFlowManagerBaseD2Ev @2541
    _ZN21ProcessingTimeMessage11setSocketIdEi @2542
    _ZN21ProcessingTimeMessage12parsimUnpackEPN7omnetpp11cCommBufferE @2543
    _ZN21ProcessingTimeMessage4copyERKS_ @2544
    _ZN21ProcessingTimeMessageC1EPKcs @2545
    _ZN21ProcessingTimeMessageC1ERKS_ @2546
    _ZN21ProcessingTimeMessageC2EPKcs @2547
    _ZN21ProcessingTimeMessageC2ERKS_ @2548
    _ZN21ProcessingTimeMessageD0Ev @2549
    _ZN21ProcessingTimeMessageD1Ev @2550
    _ZN21ProcessingTimeMessageD2Ev @2551
    _ZN21ProcessingTimeMessageaSERKS_ @2552
    _ZN21RlcFragDescDescriptorC1Ev @2553
    _ZN21RlcFragDescDescriptorC2Ev @2554
    _ZN21RlcFragDescDescriptorD0Ev @2555
    _ZN21RlcFragDescDescriptorD1Ev @2556
    _ZN21RlcFragDescDescriptorD2Ev @2557
    _ZN22DeviceAppStopAckPacket12parsimUnpackEPN7omnetpp11cCommBufferE @2558
    _ZN22DeviceAppStopAckPacket4copyERKS_ @2559
    _ZN22DeviceAppStopAckPacket9setReasonEPKc @2560
    _ZN22DeviceAppStopAckPacket9setResultEb @2561
    _ZN22DeviceAppStopAckPacketC1ERKS_ @2562
    _ZN22DeviceAppStopAckPacketC1Ev @2563
    _ZN22DeviceAppStopAckPacketC2ERKS_ @2564
    _ZN22DeviceAppStopAckPacketC2Ev @2565
    _ZN22DeviceAppStopAckPacketD0Ev @2566
    _ZN22DeviceAppStopAckPacketD1Ev @2567
    _ZN22DeviceAppStopAckPacketD2Ev @2568
    _ZN22DeviceAppStopAckPacketaSERKS_ @2569
    _ZN22LteDlFeedbackGenerator10initializeEi @2570
    _ZN22LteDlFeedbackGenerator12initCellInfoEv @2571
    _ZN22LteDlFeedbackGenerator12sendFeedbackESt6vectorIS0_I11LteFeedbackSaIS1_EESaIS3_EE13FbPeriodicity @2572
    _ZN22LteDlFeedbackGenerator13handleMessageEPN7omnetpp8cMessageE @2573
    _ZN22LteDlFeedbackGenerator14handleHandoverEt @2574
    _ZN22LteDlFeedbackGenerator16aperiodicRequestEv @2575
    _ZN22LteDlFeedbackGenerator30getFeedbackComputationFromNameENSt7__cxx1112basic_stringIcSt11char_traitsIcESaIcEEERSt3mapIS5_N7omnetpp7cMsgParESt4lessIS5_ESaISt4pairIKS5_S8_EEE @2576
    _ZN22LteDlFeedbackGenerator7sensingE13FbPeriodicity @2577
    _ZN22LteDlFeedbackGenerator9setTxModeE6TxMode @2578
    _ZN22LteDlFeedbackGeneratorC1Ev @2579
    _ZN22LteDlFeedbackGeneratorC2Ev @2580
    _ZN22LteDlFeedbackGeneratorD0Ev @2581
    _ZN22LteDlFeedbackGeneratorD1Ev @2582
    _ZN22LteDlFeedbackGeneratorD2Ev @2583
    _ZN22LteFeedbackComputationC2Ev @2584
    _ZN22LteFeedbackComputationD0Ev @2585
    _ZN22LteFeedbackComputationD1Ev @2586
    _ZN22LteFeedbackComputationD2Ev @2587
    _ZN22LteHarqBufferMirrorD2D19receiveHarqFeedbackEPN4inet6PacketE @2588
    _ZN22LteHarqBufferMirrorD2D21markSelectedAsWaitingEv @2589
    _ZN22LteHarqBufferMirrorD2DC1EjhP9LteMacEnb @2590
    _ZN22LteHarqBufferMirrorD2DC2EjhP9LteMacEnb @2591
    _ZN22LteHarqBufferMirrorD2DD0Ev @2592
    _ZN22LteHarqBufferMirrorD2DD1Ev @2593
    _ZN22LteHarqBufferMirrorD2DD2Ev @2594
    _ZN22LteX2MessageDescriptorC1Ev @2595
    _ZN22LteX2MessageDescriptorC2Ev @2596
    _ZN22LteX2MessageDescriptorD0Ev @2597
    _ZN22LteX2MessageDescriptorD1Ev @2598
    _ZN22LteX2MessageDescriptorD2Ev @2599
    _ZN22MECOrchestratorMessage10setSuccessEb @2600
    _ZN22MECOrchestratorMessage12parsimUnpackEPN7omnetpp11cCommBufferE @2601
    _ZN22MECOrchestratorMessage12setContextIdEi @2602
    _ZN22MECOrchestratorMessage12setRequestIdEi @2603
    _ZN22MECOrchestratorMessage4copyERKS_ @2604
    _ZN22MECOrchestratorMessage7setTypeEPKc @2605
    _ZN22MECOrchestratorMessageC1EPKcs @2606
    _ZN22MECOrchestratorMessageC1ERKS_ @2607
    _ZN22MECOrchestratorMessageC2EPKcs @2608
    _ZN22MECOrchestratorMessageC2ERKS_ @2609
    _ZN22MECOrchestratorMessageD0Ev @2610
    _ZN22MECOrchestratorMessageD1Ev @2611
    _ZN22MECOrchestratorMessageD2Ev @2612
    _ZN22MECOrchestratorMessageaSERKS_ @2613
    _ZN22RTVideoStreamingSender10initializeEi @2614
    _ZN22RTVideoStreamingSender11sendMessageEv @2615
    _ZN22RTVideoStreamingSender13handleMessageEPN7omnetpp8cMessageE @2616
    _ZN22RTVideoStreamingSender13handleStopAckEPN7omnetpp8cMessageE @2617
    _ZN22RTVideoStreamingSender14handleStartAckEPN7omnetpp8cMessageE @2618
    _ZN22RTVideoStreamingSender14handleStopNackEPN7omnetpp8cMessageE @2619
    _ZN22RTVideoStreamingSender14openFileStreamEv @2620
    _ZN22RTVideoStreamingSender14sendStopMECAppEv @2621
    _ZN22RTVideoStreamingSender15handleStartNackEPN7omnetpp8cMessageE @2622
    _ZN22RTVideoStreamingSender15sendStartMECAppEv @2623
    _ZN22RTVideoStreamingSender15sendStopMessageEv @2624
    _ZN22RTVideoStreamingSender16handleInfoMECAppEPN7omnetpp8cMessageE @2625
    _ZN22RTVideoStreamingSender16sendStartMessageEv @2626
    _ZN22RTVideoStreamingSender19handleAckStopMECAppEPN7omnetpp8cMessageE @2627
    _ZN22RTVideoStreamingSender20handleAckStartMECAppEPN7omnetpp8cMessageE @2628
    _ZN22RTVideoStreamingSender20handleStopSessionAckEPN7omnetpp8cMessageE @2629
    _ZN22RTVideoStreamingSender21handleStartSessionAckEPN7omnetpp8cMessageE @2630
    _ZN22RTVideoStreamingSender21handleStopSessionNackEPN7omnetpp8cMessageE @2631
    _ZN22RTVideoStreamingSender21initializeVideoStreamEv @2632
    _ZN22RTVideoStreamingSender22handleStartSessionNackEPN7omnetpp8cMessageE @2633
    _ZN22RTVideoStreamingSender22sendSessionStopMessageEv @2634
    _ZN22RTVideoStreamingSender23sendSessionStartMessageEv @2635
    _ZN22RTVideoStreamingSender6finishEv @2636
    _ZN22RTVideoStreamingSenderC1Ev @2637
    _ZN22RTVideoStreamingSenderC2Ev @2638
    _ZN22RTVideoStreamingSenderD0Ev @2639
    _ZN22RTVideoStreamingSenderD1Ev @2640
    _ZN22RTVideoStreamingSenderD2Ev @2641
    _ZN22SafetyPacketDescriptorC1Ev @2642
    _ZN22SafetyPacketDescriptorC2Ev @2643
    _ZN22SafetyPacketDescriptorD0Ev @2644
    _ZN22SafetyPacketDescriptorD1Ev @2645
    _ZN22SafetyPacketDescriptorD2Ev @2646
    _ZN22TrafficLightController10initializeEi @2647
    _ZN22TrafficLightController11isSameAngleEN4inet5CoordENS0_5units5valueIdNS2_6fscaleINS2_5units3radEXadL_ZNS5_12rad2degScaleEvEEEEEEb @2648
    _ZN22TrafficLightController12initDrawLineEv @2649
    _ZN22TrafficLightController13handleMessageEPN7omnetpp8cMessageE @2650
    _ZN22TrafficLightController13isApproachingEN4inet5CoordENS0_5units5valueIdNS2_6fscaleINS2_5units3radEXadL_ZNS5_12rad2degScaleEvEEEEEE @2651
    _ZN22TrafficLightController16isInStraightLineEN4inet5CoordE @2652
    _ZN22TrafficLightController17isTrafficLightRedEiN4inet5CoordENS0_5units5valueIdNS2_6fscaleINS2_5units3radEXadL_ZNS5_12rad2degScaleEvEEEEEE @2653
    _ZN22TrafficLightController20isInTrafficLightAreaEN4inet5CoordENS0_5units5valueIdNS2_6fscaleINS2_5units3radEXadL_ZNS5_12rad2degScaleEvEEEEEE @2654
    _ZN22TrafficLightController8drawRectEv @2655
    _ZN22TrafficLightControllerC1Ev @2656
    _ZN22TrafficLightControllerC2Ev @2657
    _ZN22TrafficLightControllerD0Ev @2658
    _ZN22TrafficLightControllerD1Ev @2659
    _ZN22TrafficLightControllerD2Ev @2660
    _ZN23AllocatedRbsPerBandInfoC2ERKS_ @2661
    _ZN23CircleNotificationEventC1ERKNSt7__cxx1112basic_stringIcSt11char_traitsIcESaIcEEERKiRKSt6vectorI16TerminalLocationSaISB_EE @2662
    _ZN23CircleNotificationEventC1Ev @2663
    _ZN23CircleNotificationEventC2ERKNSt7__cxx1112basic_stringIcSt11char_traitsIcESaIcEEERKiRKSt6vectorI16TerminalLocationSaISB_EE @2664
    _ZN23CircleNotificationEventC2Ev @2665
    _ZN23CircleNotificationEventD0Ev @2666
    _ZN23CircleNotificationEventD1Ev @2667
    _ZN23CircleNotificationEventD2Ev @2668
    _ZN23CreateContextAppMessage13setAppContextERN8nlohmann10basic_jsonISt3mapSt6vectorNSt7__cxx1112basic_stringIcSt11char_traitsIcESaIcEEEbxydSaNS0_14adl_serializerES3_IhSaIhEEEE @2669
    _ZN23CreateContextAppMessage4copyERKS_ @2670
    _ZN23CreateContextAppMessageC1EPKcs @2671
    _ZN23CreateContextAppMessageC1ERKS_ @2672
    _ZN23CreateContextAppMessageC2EPKcs @2673
    _ZN23CreateContextAppMessageC2ERKS_ @2674
    _ZN23CreateContextAppMessageD0Ev @2675
    _ZN23CreateContextAppMessageD1Ev @2676
    _ZN23CreateContextAppMessageD2Ev @2677
    _ZN23CreateContextAppMessageaSERKS_ @2678
    _ZN23D2DModeSelectionBestCqi10initializeEi @2679
    _ZN23D2DModeSelectionBestCqi15doModeSelectionEv @2680
    _ZN23D2DModeSelectionBestCqi22doModeSwitchAtHandoverEtb @2681
    _ZN23D2DModeSelectionBestCqiD0Ev @2682
    _ZN23DeleteContextAppMessage12parsimUnpackEPN7omnetpp11cCommBufferE @2683
    _ZN23DeleteContextAppMessage12setContextIdEi @2684
    _ZN23DeleteContextAppMessage4copyERKS_ @2685
    _ZN23DeleteContextAppMessageC1EPKcs @2686
    _ZN23DeleteContextAppMessageC1ERKS_ @2687
    _ZN23DeleteContextAppMessageC2EPKcs @2688
    _ZN23DeleteContextAppMessageC2ERKS_ @2689
    _ZN23DeleteContextAppMessageD0Ev @2690
    _ZN23DeleteContextAppMessageD1Ev @2691
    _ZN23DeleteContextAppMessageD2Ev @2692
    _ZN23DeleteContextAppMessageaSERKS_ @2693
    _ZN23DeviceAppStartAckPacket12parsimUnpackEPN7omnetpp11cCommBufferE @2694
    _ZN23DeviceAppStartAckPacket12setContextIdEPKc @2695
    _ZN23DeviceAppStartAckPacket12setIpAddressEPKc @2696
    _ZN23DeviceAppStartAckPacket19setPayloadTimestampEN7omnetpp7SimTimeE @2697
    _ZN23DeviceAppStartAckPacket4copyERKS_ @2698
    _ZN23DeviceAppStartAckPacket7setPortEi @2699
    _ZN23DeviceAppStartAckPacket9setReasonEPKc @2700
    _ZN23DeviceAppStartAckPacket9setResultEb @2701
    _ZN23DeviceAppStartAckPacketC1ERKS_ @2702
    _ZN23DeviceAppStartAckPacketC1Ev @2703
    _ZN23DeviceAppStartAckPacketC2ERKS_ @2704
    _ZN23DeviceAppStartAckPacketC2Ev @2705
    _ZN23DeviceAppStartAckPacketD0Ev @2706
    _ZN23DeviceAppStartAckPacketD1Ev @2707
    _ZN23DeviceAppStartAckPacketD2Ev @2708
    _ZN23DeviceAppStartAckPacketaSERKS_ @2709
    _ZN23DualConnectivityManager10initializeEv @2710
    _ZN23DualConnectivityManager13handleMessageEPN7omnetpp8cMessageE @2711
    _ZN23DualConnectivityManager15handleX2MessageEPN7omnetpp8cMessageE @2712
    _ZN23DualConnectivityManager23forwardDataToTargetNodeEPN4inet6PacketEt @2713
    _ZN23DualConnectivityManager25receiveDataFromSourceNodeEPN4inet6PacketEt @2714
    _ZN23DualConnectivityManagerD0Ev @2715
    _ZN23LteHarqProcessMirrorD2D13storeFeedbackE18HarqAcknowledgmentxtdt @2716
    _ZN23LteHarqProcessMirrorD2DC1EjhP9LteMacEnb @2717
    _ZN23LteHarqProcessMirrorD2DC2EjhP9LteMacEnb @2718
    _ZN23LteHarqProcessMirrorD2DD0Ev @2719
    _ZN23LteHarqProcessMirrorD2DD1Ev @2720
    _ZN23LteHarqProcessMirrorD2DD2Ev @2721
    _ZN23LteRlcDataPduDescriptorC1Ev @2722
    _ZN23LteRlcDataPduDescriptorC2Ev @2723
    _ZN23LteRlcDataPduDescriptorD0Ev @2724
    _ZN23LteRlcDataPduDescriptorD1Ev @2725
    _ZN23LteRlcDataPduDescriptorD2Ev @2726
    _ZN23LteSchedulingGrant_Base11setPeriodicEb @2727
    _ZN23LteSchedulingGrant_Base12parsimUnpackEPN7omnetpp11cCommBufferE @2728
    _ZN23LteSchedulingGrant_Base12setCodewordsEj @2729
    _ZN23LteSchedulingGrant_Base13setExpirationEj @2730
    _ZN23LteSchedulingGrant_Base21setTotalGrantedBlocksEj @2731
    _ZN23LteSchedulingGrant_Base4copyERKS_ @2732
    _ZN23LteSchedulingGrant_Base9setPeriodEj @2733
    _ZN23LteSchedulingGrant_BaseC2ERKS_ @2734
    _ZN23LteSchedulingGrant_BaseC2Ev @2735
    _ZN23LteSchedulingGrant_BaseD0Ev @2736
    _ZN23LteSchedulingGrant_BaseD1Ev @2737
    _ZN23LteSchedulingGrant_BaseD2Ev @2738
    _ZN23LteSchedulingGrant_BaseaSERKS_ @2739
    _ZN23MecRequestBackgroundApp10initializeEi @2740
    _ZN23MecRequestBackgroundApp11establishedEi @2741
    _ZN23MecRequestBackgroundApp11sendRequestEv @2742
    _ZN23MecRequestBackgroundApp15handleUeMessageEPN7omnetpp8cMessageE @2743
    _ZN23MecRequestBackgroundApp16handleMp1MessageEi @2744
    _ZN23MecRequestBackgroundApp17handleHttpMessageEi @2745
    _ZN23MecRequestBackgroundApp17handleSelfMessageEPN7omnetpp8cMessageE @2746
    _ZN23MecRequestBackgroundApp20handleServiceMessageEi @2747
    _ZN23MecRequestBackgroundApp6finishEv @2748
    _ZN23MecRequestBackgroundAppC1Ev @2749
    _ZN23MecRequestBackgroundAppC2Ev @2750
    _ZN23MecRequestBackgroundAppD0Ev @2751
    _ZN23MecRequestBackgroundAppD1Ev @2752
    _ZN23MecRequestBackgroundAppD2Ev @2753
    _ZN23MecRequestForegroundApp10initializeEi @2754
    _ZN23MecRequestForegroundApp11establishedEi @2755
    _ZN23MecRequestForegroundApp11sendRequestEv @2756
    _ZN23MecRequestForegroundApp15handleUeMessageEPN7omnetpp8cMessageE @2757
    _ZN23MecRequestForegroundApp16handleMp1MessageEi @2758
    _ZN23MecRequestForegroundApp17handleHttpMessageEi @2759
    _ZN23MecRequestForegroundApp17handleSelfMessageEPN7omnetpp8cMessageE @2760
    _ZN23MecRequestForegroundApp20handleServiceMessageEi @2761
    _ZN23MecRequestForegroundAppD0Ev @2762
    _ZN23MecRequestForegroundAppD1Ev @2763
    _ZN23MecRequestForegroundAppD2Ev @2764
    _ZN23RlcWindowDescDescriptorC1Ev @2765
    _ZN23RlcWindowDescDescriptorC2Ev @2766
    _ZN23RlcWindowDescDescriptorD0Ev @2767
    _ZN23RlcWindowDescDescriptorD1Ev @2768
    _ZN23RlcWindowDescDescriptorD2Ev @2769
    _ZN23TerminateVehicleMessage12parsimUnpackEPN7omnetpp11cCommBufferE @2770
    _ZN23TerminateVehicleMessage12setcontextIdEi @2771
    _ZN23TerminateVehicleMessage4copyERKS_ @2772
    _ZN23TerminateVehicleMessageC1ERKS_ @2773
    _ZN23TerminateVehicleMessageC1Ev @2774
    _ZN23TerminateVehicleMessageC2ERKS_ @2775
    _ZN23TerminateVehicleMessageC2Ev @2776
    _ZN23TerminateVehicleMessageD0Ev @2777
    _ZN23TerminateVehicleMessageD1Ev @2778
    _ZN23TerminateVehicleMessageD2Ev @2779
    _ZN23TerminateVehicleMessageaSERKS_ @2780
    _ZN23UALCMPMessageDescriptorC1Ev @2781
    _ZN23UALCMPMessageDescriptorC2Ev @2782
    _ZN23UALCMPMessageDescriptorD0Ev @2783
    _ZN23UALCMPMessageDescriptorD1Ev @2784
    _ZN23UALCMPMessageDescriptorD2Ev @2785
    _ZN24BackgroundTrafficManager10computeCqiEi9DirectionN4inet5CoordEd @2786
    _ZN24BackgroundTrafficManager10initializeEi @2787
    _ZN24BackgroundTrafficManager10racHandledEt @2788
    _ZN24BackgroundTrafficManager11getBgUesEndEv @2789
    _ZN24BackgroundTrafficManager11getNumBandsEv @2790
    _ZN24BackgroundTrafficManager13getBgUesBeginEv @2791
    _ZN24BackgroundTrafficManager13handleMessageEPN7omnetpp8cMessageE @2792
    _ZN24BackgroundTrafficManager13notifyBacklogEi9Directionb @2793
    _ZN24BackgroundTrafficManager18computeCqiFromSinrEd @2794
    _ZN24BackgroundTrafficManager19getBackloggedUesEndE9Directionb @2795
    _ZN24BackgroundTrafficManager19getTrafficGeneratorEt @2796
    _ZN24BackgroundTrafficManager21getBackloggedUeBufferEt9Directionb @2797
    _ZN24BackgroundTrafficManager21getBackloggedUesBeginE9Directionb @2798
    _ZN24BackgroundTrafficManager21getReceivedPower_bgUeEdN4inet5CoordES1_9Directionb @2799
    _ZN24BackgroundTrafficManager22getWaitingForRacUesEndEv @2800
    _ZN24BackgroundTrafficManager24consumeBackloggedUeBytesEtj9Directionb @2801
    _ZN24BackgroundTrafficManager24getWaitingForRacUesBeginEv @2802
    _ZN24BackgroundTrafficManager28getBackloggedUeBytesPerBlockEt9Direction @2803
    _ZN24BackgroundTrafficManager36initializeAvgInterferenceComputationEv @2804
    _ZN24BackgroundTrafficManagerC1Ev @2805
    _ZN24BackgroundTrafficManagerC2Ev @2806
    _ZN24BackgroundTrafficManagerD0Ev @2807
    _ZN24BackgroundTrafficManagerD2Ev @2808
    _ZN24LteControlInfoDescriptorC1Ev @2809
    _ZN24LteControlInfoDescriptorC2Ev @2810
    _ZN24LteControlInfoDescriptorD0Ev @2811
    _ZN24LteControlInfoDescriptorD1Ev @2812
    _ZN24LteControlInfoDescriptorD2Ev @2813
    _ZN24LteFeedbackPktDescriptorC1Ev @2814
    _ZN24LteFeedbackPktDescriptorC2Ev @2815
    _ZN24LteFeedbackPktDescriptorD0Ev @2816
    _ZN24LteFeedbackPktDescriptorD1Ev @2817
    _ZN24LteFeedbackPktDescriptorD2Ev @2818
    _ZN24LteRealisticChannelModel10initializeEi @2819
    _ZN24LteRealisticChannelModel10isErrorDasEP11LteAirFrameP15UserControlInfo @2820
    _ZN24LteRealisticChannelModel11getRSRP_D2DEP11LteAirFrameP15UserControlInfotN4inet5CoordE @2821
    _ZN24LteRealisticChannelModel11getSINR_D2DEP11LteAirFrameP15UserControlInfotN4inet5CoordEt @2822
    _ZN24LteRealisticChannelModel11getSINR_D2DEP11LteAirFrameP15UserControlInfotN4inet5CoordEtRKSt6vectorIdSaIdEE @2823
    _ZN24LteRealisticChannelModel11isError_D2DEP11LteAirFrameP15UserControlInfoRKSt6vectorIdSaIdEE @2824
    _ZN24LteRealisticChannelModel11jakesFadingEtdjbb @2825
    _ZN24LteRealisticChannelModel11rcvdSinrDl_E @2826 DATA
    _ZN24LteRealisticChannelModel11rcvdSinrUl_E @2827 DATA
    _ZN24LteRealisticChannelModel12computeAngleEN4inet5CoordES1_ @2828
    _ZN24LteRealisticChannelModel12computeSpeedEtN4inet5CoordE @2829
    _ZN24LteRealisticChannelModel12getSINR_bgUeEP11LteAirFrameP15UserControlInfo @2830
    _ZN24LteRealisticChannelModel13computeIndoorEdb @2831
    _ZN24LteRealisticChannelModel14getAttenuationEt9DirectionN4inet5CoordEb @2832
    _ZN24LteRealisticChannelModel14rayleighFadingEtj @2833
    _ZN24LteRealisticChannelModel15JakesFadingDataC2ERKS0_ @2834
    _ZN24LteRealisticChannelModel15JakesFadingDataD2Ev @2835
    _ZN24LteRealisticChannelModel15computePathLossEddb @2836
    _ZN24LteRealisticChannelModel15measuredSinrDl_E @2837 DATA
    _ZN24LteRealisticChannelModel15measuredSinrUl_E @2838 DATA
    _ZN24LteRealisticChannelModel16computeShadowingEdtdb @2839
    _ZN24LteRealisticChannelModel16obtainUeJakesMapEt @2840
    _ZN24LteRealisticChannelModel17computeRuralMacroEdRdb @2841
    _ZN24LteRealisticChannelModel17computeUrbanMacroEdb @2842
    _ZN24LteRealisticChannelModel17computeUrbanMicroEdb @2843
    _ZN24LteRealisticChannelModel17getTwoDimDistanceEN4inet5CoordES1_ @2844
    _ZN24LteRealisticChannelModel18getAttenuation_D2DEt9DirectionN4inet5CoordEtS2_b @2845
    _ZN24LteRealisticChannelModel18obtainShadowingMapEt @2846
    _ZN24LteRealisticChannelModel20computeSubUrbanMacroEdRdb @2847
    _ZN24LteRealisticChannelModel20computeVerticalAngleEN4inet5CoordES1_ @2848
    _ZN24LteRealisticChannelModel21computeLosProbabilityEdt @2849
    _ZN24LteRealisticChannelModel21getReceivedPower_bgUeEdN4inet5CoordES1_9Directionbt @2850
    _ZN24LteRealisticChannelModel21updatePositionHistoryEtN4inet5CoordE @2851
    _ZN24LteRealisticChannelModel22computeD2DInterferenceEttN4inet5CoordEtS1_bdRKSt3mapI6RemoteS2_ItjSt4lessItESaISt4pairIKtjEEES4_IS3_ESaIS6_IKS3_SA_EEEPSt6vectorIdSaIdEE9Direction @2852
    _ZN24LteRealisticChannelModel22computeExtCellPathLossEdt @2853
    _ZN24LteRealisticChannelModel24isD2DInterferenceEnabledEv @2854
    _ZN24LteRealisticChannelModel25computeAngolarAttenuationEdd @2855
    _ZN24LteRealisticChannelModel25computeUplinkInterferenceEttbdRKSt3mapI6RemoteS0_ItjSt4lessItESaISt4pairIKtjEEES2_IS1_ESaIS4_IKS1_S8_EEEPSt6vectorIdSaIdEE @2856
    _ZN24LteRealisticChannelModel25updateCorrelationDistanceEtN4inet5CoordE @2857
    _ZN24LteRealisticChannelModel26computeCorrelationDistanceEtN4inet5CoordE @2858
    _ZN24LteRealisticChannelModel26computeExtCellInterferenceEttN4inet5CoordEbdPSt6vectorIdSaIdEE @2859
    _ZN24LteRealisticChannelModel27computeDownlinkInterferenceEttN4inet5CoordEbdRKSt3mapI6RemoteS2_ItjSt4lessItESaISt4pairIKtjEEES4_IS3_ESaIS6_IKS3_SA_EEEPSt6vectorIdSaIdEE @2860
    _ZN24LteRealisticChannelModel27isUplinkInterferenceEnabledEv @2861
    _ZN24LteRealisticChannelModel33computeBackgroundCellInterferenceEtN4inet5CoordES1_bdRKSt3mapI6RemoteS2_ItjSt4lessItESaISt4pairIKtjEEES4_IS3_ESaIS6_IKS3_SA_EEE9DirectionPSt6vectorIdSaIdEE @2862
    _ZN24LteRealisticChannelModel6getSIREP11LteAirFrameP15UserControlInfo @2863
    _ZN24LteRealisticChannelModel7getRSRPEP11LteAirFrameP15UserControlInfo @2864
    _ZN24LteRealisticChannelModel7getSINREP11LteAirFrameP15UserControlInfo @2865
    _ZN24LteRealisticChannelModel7isErrorEP11LteAirFrameP15UserControlInfo @2866
    _ZN24LteRealisticChannelModel9distance_E @2867 DATA
    _ZN24LteRealisticChannelModel9getStdDevEbt @2868
    _ZN24LteRealisticChannelModelD0Ev @2869
    _ZN24LteRealisticChannelModelD2Ev @2870
    _ZN24MecRequestResponsePacket10setSrcPortEi @2871
    _ZN24MecRequestResponsePacket11setDestPortEi @2872
    _ZN24MecRequestResponsePacket12parsimUnpackEPN7omnetpp11cCommBufferE @2873
    _ZN24MecRequestResponsePacket13setSrcAddressEPKc @2874
    _ZN24MecRequestResponsePacket14setDestAddressEPKc @2875
    _ZN24MecRequestResponsePacket15setReqTimestampEd @2876
    _ZN24MecRequestResponsePacket16setRespTimestampEd @2877
    _ZN24MecRequestResponsePacket4copyERKS_ @2878
    _ZN24MecRequestResponsePacket6setSnoEj @2879
    _ZN24MecRequestResponsePacket7setBsIdEi @2880
    _ZN24MecRequestResponsePacket8setAppIdEi @2881
    _ZN24MecRequestResponsePacketC1ERKS_ @2882
    _ZN24MecRequestResponsePacketC1Ev @2883
    _ZN24MecRequestResponsePacketC2ERKS_ @2884
    _ZN24MecRequestResponsePacketC2Ev @2885
    _ZN24MecRequestResponsePacketD0Ev @2886
    _ZN24MecRequestResponsePacketD1Ev @2887
    _ZN24MecRequestResponsePacketD2Ev @2888
    _ZN24MecRequestResponsePacketaSERKS_ @2889
    _ZN24MecServiceSelectionBased15findBestMecHostERK21ApplicationDescriptor @2890
    _ZN24MecServiceSelectionBasedD0Ev @2891
    _ZN24MigrationTimerDescriptorC1Ev @2892
    _ZN24MigrationTimerDescriptorC2Ev @2893
    _ZN24MigrationTimerDescriptorD0Ev @2894
    _ZN24MigrationTimerDescriptorD1Ev @2895
    _ZN24MigrationTimerDescriptorD2Ev @2896
    _ZN24ModulationTypeDescriptorC1Ev @2897
    _ZN24ModulationTypeDescriptorC2Ev @2898
    _ZN24ModulationTypeDescriptorD0Ev @2899
    _ZN24ModulationTypeDescriptorD1Ev @2900
    _ZN24ModulationTypeDescriptorD2Ev @2901
    _ZN24RequestResponseAppPacket12parsimUnpackEPN7omnetpp11cCommBufferE @2902
    _ZN24RequestResponseAppPacket17setProcessingTimeEd @2903
    _ZN24RequestResponseAppPacket22setServiceResponseTimeEN7omnetpp7SimTimeE @2904
    _ZN24RequestResponseAppPacket23setRequestSentTimestampEN7omnetpp7SimTimeE @2905
    _ZN24RequestResponseAppPacket24setResponseSentTimestampEN7omnetpp7SimTimeE @2906
    _ZN24RequestResponseAppPacket26setRequestArrivedTimestampEN7omnetpp7SimTimeE @2907
    _ZN24RequestResponseAppPacket4copyERKS_ @2908
    _ZN24RequestResponseAppPacket6setSnoEj @2909
    _ZN24RequestResponseAppPacket7setTypeEi @2910
    _ZN24RequestResponseAppPacketC1ERKS_ @2911
    _ZN24RequestResponseAppPacketC1Ev @2912
    _ZN24RequestResponseAppPacketC2ERKS_ @2913
    _ZN24RequestResponseAppPacketC2Ev @2914
    _ZN24RequestResponseAppPacketD0Ev @2915
    _ZN24RequestResponseAppPacketD1Ev @2916
    _ZN24RequestResponseAppPacketD2Ev @2917
    _ZN24RequestResponseAppPacketaSERKS_ @2918
    _ZN24TMultiTimerMsgDescriptorC1Ev @2919
    _ZN24TMultiTimerMsgDescriptorC2Ev @2920
    _ZN24TMultiTimerMsgDescriptorD0Ev @2921
    _ZN24TMultiTimerMsgDescriptorD1Ev @2922
    _ZN24TMultiTimerMsgDescriptorD2Ev @2923
    _ZN24TftControlInfoDescriptorC1Ev @2924
    _ZN24TftControlInfoDescriptorC2Ev @2925
    _ZN24TftControlInfoDescriptorD0Ev @2926
    _ZN24TftControlInfoDescriptorD1Ev @2927
    _ZN24TftControlInfoDescriptorD2Ev @2928
    _ZN25BaseStationStatsCollector10initializeEi @2929
    _ZN25BaseStationStatsCollector10resetStatsEt @2930
    _ZN25BaseStationStatsCollector13handleMessageEPN7omnetpp8cMessageE @2931
    _ZN25BaseStationStatsCollector14addUeCollectorEtP16UeStatsCollector @2932
    _ZN25BaseStationStatsCollector14getUeCollectorEt @2933
    _ZN25BaseStationStatsCollector14hasUeCollectorEt @2934
    _ZN25BaseStationStatsCollector15getCollectorMapEv @2935
    _ZN25BaseStationStatsCollector17removeUeCollectorEt @2936
    _ZN25BaseStationStatsCollector22add_dl_nongbr_pdr_cellEv @2937
    _ZN25BaseStationStatsCollector22add_ul_nongbr_pdr_cellEv @2938
    _ZN25BaseStationStatsCollector22get_dl_nongbr_pdr_cellEv @2939
    _ZN25BaseStationStatsCollector22get_ul_nongbr_pdr_cellEv @2940
    _ZN25BaseStationStatsCollector22resetDelayCounterPerUeEv @2941
    _ZN25BaseStationStatsCollector23resetBytesCountersPerUeEv @2942
    _ZN25BaseStationStatsCollector24resetDiscardCounterPerUeEv @2943
    _ZN25BaseStationStatsCollector27add_dl_nongbr_delay_perUserEv @2944
    _ZN25BaseStationStatsCollector27add_dl_total_prb_usage_cellEv @2945
    _ZN25BaseStationStatsCollector27add_ul_nongbr_delay_perUserEv @2946
    _ZN25BaseStationStatsCollector27add_ul_total_prb_usage_cellEv @2947
    _ZN25BaseStationStatsCollector27get_dl_total_prb_usage_cellEv @2948
    _ZN25BaseStationStatsCollector27get_ul_total_prb_usage_cellEv @2949
    _ZN25BaseStationStatsCollector28get_dl_nongbr_prb_usage_cellEv @2950
    _ZN25BaseStationStatsCollector28get_ul_nongbr_prb_usage_cellEv @2951
    _ZN25BaseStationStatsCollector28resetThroughputCountersPerUeEv @2952
    _ZN25BaseStationStatsCollector30add_dl_nongbr_pdr_cell_perUserEv @2953
    _ZN25BaseStationStatsCollector30add_ul_nongbr_pdr_cell_perUserEv @2954
    _ZN25BaseStationStatsCollector35add_dl_nongbr_throughput_ue_perUserEv @2955
    _ZN25BaseStationStatsCollector35add_ul_nongbr_throughput_ue_perUserEv @2956
    _ZN25BaseStationStatsCollector36add_dl_nongbr_data_volume_ue_perUserEv @2957
    _ZN25BaseStationStatsCollector36add_ul_nongbr_data_volume_ue_perUserEv @2958
    _ZN25BaseStationStatsCollector38add_number_of_active_ue_dl_nongbr_cellEv @2959
    _ZN25BaseStationStatsCollector38add_number_of_active_ue_ul_nongbr_cellEv @2960
    _ZN25BaseStationStatsCollector38get_number_of_active_ue_dl_nongbr_cellEv @2961
    _ZN25BaseStationStatsCollector38get_number_of_active_ue_ul_nongbr_cellEv @2962
    _ZN25BaseStationStatsCollectorC1Ev @2963
    _ZN25BaseStationStatsCollectorC2Ev @2964
    _ZN25BaseStationStatsCollectorD0Ev @2965
    _ZN25BaseStationStatsCollectorD1Ev @2966
    _ZN25BaseStationStatsCollectorD2Ev @2967
    _ZN25D2DModeSwitchNotification10setNewModeE10LteD2DMode @2968
    _ZN25D2DModeSwitchNotification10setOldModeE10LteD2DMode @2969
    _ZN25D2DModeSwitchNotification12parsimUnpackEPN7omnetpp11cCommBufferE @2970
    _ZN25D2DModeSwitchNotification16setInterruptHarqEb @2971
    _ZN25D2DModeSwitchNotification16setOldConnectionEb @2972
    _ZN25D2DModeSwitchNotification17setClearRlcBufferEb @2973
    _ZN25D2DModeSwitchNotification4copyERKS_ @2974
    _ZN25D2DModeSwitchNotification9setPeerIdEj @2975
    _ZN25D2DModeSwitchNotification9setTxSideEb @2976
    _ZN25D2DModeSwitchNotificationC1ERKS_ @2977
    _ZN25D2DModeSwitchNotificationC1Ev @2978
    _ZN25D2DModeSwitchNotificationC2ERKS_ @2979
    _ZN25D2DModeSwitchNotificationC2Ev @2980
    _ZN25D2DModeSwitchNotificationD0Ev @2981
    _ZN25D2DModeSwitchNotificationD1Ev @2982
    _ZN25D2DModeSwitchNotificationD2Ev @2983
    _ZN25D2DModeSwitchNotificationaSERKS_ @2984
    _ZN25DangerAppPacketDescriptorC1Ev @2985
    _ZN25DangerAppPacketDescriptorC2Ev @2986
    _ZN25DangerAppPacketDescriptorD0Ev @2987
    _ZN25DangerAppPacketDescriptorD1Ev @2988
    _ZN25DangerAppPacketDescriptorD2Ev @2989
    _ZN25DeviceAppPacketDescriptorC1Ev @2990
    _ZN25DeviceAppPacketDescriptorC2Ev @2991
    _ZN25DeviceAppPacketDescriptorD0Ev @2992
    _ZN25DeviceAppPacketDescriptorD1Ev @2993
    _ZN25DeviceAppPacketDescriptorD2Ev @2994
    _ZN25FlowControlInfoDescriptorC1Ev @2995
    _ZN25FlowControlInfoDescriptorC2Ev @2996
    _ZN25FlowControlInfoDescriptorD0Ev @2997
    _ZN25FlowControlInfoDescriptorD1Ev @2998
    _ZN25FlowControlInfoDescriptorD2Ev @2999
    _ZN25HttpBaseMessageDescriptorC1Ev @3000
    _ZN25HttpBaseMessageDescriptorC2Ev @3001
    _ZN25HttpBaseMessageDescriptorD0Ev @3002
    _ZN25HttpBaseMessageDescriptorD1Ev @3003
    _ZN25HttpBaseMessageDescriptorD2Ev @3004
    _ZN25LocationUpdatesDescriptorC1Ev @3005
    _ZN25LocationUpdatesDescriptorC2Ev @3006
    _ZN25LocationUpdatesDescriptorD0Ev @3007
    _ZN25LocationUpdatesDescriptorD1Ev @3008
    _ZN25LocationUpdatesDescriptorD2Ev @3009
    _ZN25LteHarqFeedbackDescriptorC1Ev @3010
    _ZN25LteHarqFeedbackDescriptorC2Ev @3011
    _ZN25LteHarqFeedbackDescriptorD0Ev @3012
    _ZN25LteHarqFeedbackDescriptorD1Ev @3013
    _ZN25LteHarqFeedbackDescriptorD2Ev @3014
    _ZN25NRChannelModel_3GPP38_90110initializeEi @3015
    _ZN25NRChannelModel_3GPP38_90113computeIndoorEddb @3016
    _ZN25NRChannelModel_3GPP38_90115computePathLossEddb @3017
    _ZN25NRChannelModel_3GPP38_90116computeShadowingEdtdb @3018
    _ZN25NRChannelModel_3GPP38_90117computeRuralMacroEddb @3019
    _ZN25NRChannelModel_3GPP38_90117computeUrbanMacroEddb @3020
    _ZN25NRChannelModel_3GPP38_90117computeUrbanMicroEddb @3021
    _ZN25NRChannelModel_3GPP38_90121computeLosProbabilityEdt @3022
    _ZN25NRChannelModel_3GPP38_90122computePenetrationLossEd @3023
    _ZN25NRChannelModel_3GPP38_9019getStdDevEbt @3024
    _ZN25NRChannelModel_3GPP38_901D0Ev @3025
    _ZN25RtxNotificationDescriptorC1Ev @3026
    _ZN25RtxNotificationDescriptorC2Ev @3027
    _ZN25RtxNotificationDescriptorD0Ev @3028
    _ZN25RtxNotificationDescriptorD1Ev @3029
    _ZN25RtxNotificationDescriptorD2Ev @3030
    _ZN25SafetyAppPacketDescriptorC1Ev @3031
    _ZN25SafetyAppPacketDescriptorC2Ev @3032
    _ZN25SafetyAppPacketDescriptorD0Ev @3033
    _ZN25SafetyAppPacketDescriptorD1Ev @3034
    _ZN25SafetyAppPacketDescriptorD2Ev @3035
    _ZN25TrickleTimerMsgDescriptorC1Ev @3036
    _ZN25TrickleTimerMsgDescriptorC2Ev @3037
    _ZN25TrickleTimerMsgDescriptorD0Ev @3038
    _ZN25TrickleTimerMsgDescriptorD1Ev @3039
    _ZN25TrickleTimerMsgDescriptorD2Ev @3040
    _ZN25UserControlInfoDescriptorC1Ev @3041
    _ZN25UserControlInfoDescriptorC2Ev @3042
    _ZN25UserControlInfoDescriptorD0Ev @3043
    _ZN25UserControlInfoDescriptorD1Ev @3044
    _ZN25UserControlInfoDescriptorD2Ev @3045
    _ZN25X2CompProportionalReplyIED0Ev @3046
    _ZN25X2CompProportionalReplyIED2Ev @3047
    _ZN25X2DualConnectivityDataMsgC1ERKS_ @3048
    _ZN25X2DualConnectivityDataMsgC1Ev @3049
    _ZN25X2DualConnectivityDataMsgC2ERKS_ @3050
    _ZN25X2DualConnectivityDataMsgC2Ev @3051
    _ZN25X2DualConnectivityDataMsgD0Ev @3052
    _ZN25X2DualConnectivityDataMsgD1Ev @3053
    _ZN25X2DualConnectivityDataMsgD2Ev @3054
    _ZN25X2DualConnectivityDataMsgaSERKS_ @3055
    _ZN25X2InformationElement_Base12parsimUnpackEPN7omnetpp11cCommBufferE @3056
    _ZN25X2InformationElement_Base4copyERKS_ @3057
    _ZN25X2InformationElement_BaseC1ERKS_ @3058
    _ZN25X2InformationElement_BaseC1Ev @3059
    _ZN25X2InformationElement_BaseC2ERKS_ @3060
    _ZN25X2InformationElement_BaseC2Ev @3061
    _ZN25X2InformationElement_BaseD0Ev @3062
    _ZN25X2InformationElement_BaseD1Ev @3063
    _ZN25X2InformationElement_BaseD2Ev @3064
    _ZN25X2InformationElement_BaseaSERKS_ @3065
    _ZN26AperiodicSubscriptionTimerC1EPKc @3066
    _ZN26AperiodicSubscriptionTimerC1EPKcRKd @3067
    _ZN26AperiodicSubscriptionTimerC1Ev @3068
    _ZN26AperiodicSubscriptionTimerC2EPKc @3069
    _ZN26AperiodicSubscriptionTimerC2EPKcRKd @3070
    _ZN26AperiodicSubscriptionTimerC2Ev @3071
    _ZN26AperiodicSubscriptionTimerD0Ev @3072
    _ZN26AperiodicSubscriptionTimerD1Ev @3073
    _ZN26AperiodicSubscriptionTimerD2Ev @3074
    _ZN26BackgroundCellChannelModel10initializeEi @3075
    _ZN26BackgroundCellChannelModel11jakesFadingEtdjj @3076
    _ZN26BackgroundCellChannelModel12computeAngleEN4inet5CoordES1_ @3077
    _ZN26BackgroundCellChannelModel12computeSpeedEtN4inet5CoordE @3078
    _ZN26BackgroundCellChannelModel13computeIndoorEdb @3079
    _ZN26BackgroundCellChannelModel14getAttenuationEt9DirectionN4inet5CoordES2_ @3080
    _ZN26BackgroundCellChannelModel14rayleighFadingEtj @3081
    _ZN26BackgroundCellChannelModel15JakesFadingDataC2ERKS0_ @3082
    _ZN26BackgroundCellChannelModel15JakesFadingDataD2Ev @3083
    _ZN26BackgroundCellChannelModel15computePathLossEddb @3084
    _ZN26BackgroundCellChannelModel16computeShadowingEdtd @3085
    _ZN26BackgroundCellChannelModel17computeRuralMacroEdRdb @3086
    _ZN26BackgroundCellChannelModel17computeUrbanMacroEdb @3087
    _ZN26BackgroundCellChannelModel17computeUrbanMicroEdb @3088
    _ZN26BackgroundCellChannelModel17getTwoDimDistanceEN4inet5CoordES1_ @3089
    _ZN26BackgroundCellChannelModel20computeSubUrbanMacroEdRdb @3090
    _ZN26BackgroundCellChannelModel20computeVerticalAngleEN4inet5CoordES1_ @3091
    _ZN26BackgroundCellChannelModel21computeLosProbabilityEdt @3092
    _ZN26BackgroundCellChannelModel21getReceivedPower_bgUeEdN4inet5CoordES1_9DirectionbPK19BackgroundScheduler @3093
    _ZN26BackgroundCellChannelModel21updatePositionHistoryEtN4inet5CoordE @3094
    _ZN26BackgroundCellChannelModel25computeAngolarAttenuationEdd @3095
    _ZN26BackgroundCellChannelModel25computeUplinkInterferenceEtN4inet5CoordEdRKSt3mapI6RemoteS2_ItjSt4lessItESaISt4pairIKtjEEES4_IS3_ESaIS6_IKS3_SA_EEEjPSt6vectorIdSaIdEE @3096
    _ZN26BackgroundCellChannelModel25updateCorrelationDistanceEtN4inet5CoordE @3097
    _ZN26BackgroundCellChannelModel26computeCorrelationDistanceEtN4inet5CoordE @3098
    _ZN26BackgroundCellChannelModel27computeDownlinkInterferenceEtN4inet5CoordEdRKSt3mapI6RemoteS2_ItjSt4lessItESaISt4pairIKtjEEES4_IS3_ESaIS6_IKS3_SA_EEEjPSt6vectorIdSaIdEE @3099
    _ZN26BackgroundCellChannelModel33computeBackgroundCellInterferenceEtN4inet5CoordEiS1_dRKSt3mapI6RemoteS2_ItjSt4lessItESaISt4pairIKtjEEES4_IS3_ESaIS6_IKS3_SA_EEE9DirectionjPSt6vectorIdSaIdEE @3100
    _ZN26BackgroundCellChannelModel7getSINREtN4inet5CoordEP20TrafficGeneratorBaseP19BackgroundScheduler9Direction @3101
    _ZN26BackgroundCellChannelModel9getStdDevEbt @3102
    _ZN26BackgroundCellChannelModelD0Ev @3103
    _ZN26BackgroundCellChannelModelD2Ev @3104
    _ZN26CreateAppMessageDescriptorC1Ev @3105
    _ZN26CreateAppMessageDescriptorC2Ev @3106
    _ZN26CreateAppMessageDescriptorD0Ev @3107
    _ZN26CreateAppMessageDescriptorD1Ev @3108
    _ZN26CreateAppMessageDescriptorD2Ev @3109
    _ZN26CreateContextAppAckMessage13setAppContextERN8nlohmann10basic_jsonISt3mapSt6vectorNSt7__cxx1112basic_stringIcSt11char_traitsIcESaIcEEEbxydSaNS0_14adl_serializerES3_IhSaIhEEEE @3110
    _ZN26CreateContextAppAckMessage4copyERKS_ @3111
    _ZN26CreateContextAppAckMessageC1EPKcs @3112
    _ZN26CreateContextAppAckMessageC1ERKS_ @3113
    _ZN26CreateContextAppAckMessageC2EPKcs @3114
    _ZN26CreateContextAppAckMessageC2ERKS_ @3115
    _ZN26CreateContextAppAckMessageD0Ev @3116
    _ZN26CreateContextAppAckMessageD1Ev @3117
    _ZN26CreateContextAppAckMessageD2Ev @3118
    _ZN26CreateContextAppAckMessageaSERKS_ @3119
    _ZN26CreateContextAppDescriptorC1Ev @3120
    _ZN26CreateContextAppDescriptorC2Ev @3121
    _ZN26CreateContextAppDescriptorD0Ev @3122
    _ZN26CreateContextAppDescriptorD1Ev @3123
    _ZN26CreateContextAppDescriptorD2Ev @3124
    _ZN26DeleteAppMessageDescriptorC1Ev @3125
    _ZN26DeleteAppMessageDescriptorC2Ev @3126
    _ZN26DeleteAppMessageDescriptorD0Ev @3127
    _ZN26DeleteAppMessageDescriptorD1Ev @3128
    _ZN26DeleteAppMessageDescriptorD2Ev @3129
    _ZN26DeleteContextAppAckMessage10setSuccessEb @3130
    _ZN26DeleteContextAppAckMessage12parsimUnpackEPN7omnetpp11cCommBufferE @3131
    _ZN26DeleteContextAppAckMessage12setContextIdEi @3132
    _ZN26DeleteContextAppAckMessage4copyERKS_ @3133
    _ZN26DeleteContextAppAckMessageC1EPKcs @3134
    _ZN26DeleteContextAppAckMessageC1ERKS_ @3135
    _ZN26DeleteContextAppAckMessageC2EPKcs @3136
    _ZN26DeleteContextAppAckMessageC2ERKS_ @3137
    _ZN26DeleteContextAppAckMessageD0Ev @3138
    _ZN26DeleteContextAppAckMessageD1Ev @3139
    _ZN26DeleteContextAppAckMessageD2Ev @3140
    _ZN26DeleteContextAppAckMessageaSERKS_ @3141
    _ZN26DistanceBasedConflictGraph12findVerticesERSt6vectorI8CGVertexSaIS1_EE @3142
    _ZN26DistanceBasedConflictGraph13setThresholdsEddd @3143
    _ZN26DistanceBasedConflictGraph18getDbmFromDistanceEd @3144
    _ZN26DistanceBasedConflictGraph9findEdgesERKSt6vectorI8CGVertexSaIS1_EE @3145
    _ZN26DistanceBasedConflictGraphC1EP12LteMacEnbD2Dbbd @3146
    _ZN26DistanceBasedConflictGraphC2EP12LteMacEnbD2Dbbd @3147
    _ZN26DistanceBasedConflictGraphD0Ev @3148
    _ZN26LteCompManagerProportional10initializeEv @3149
    _ZN26LteCompManagerProportional11roundVectorERSt6vectorIdSaIdEEi @3150
    _ZN26LteCompManagerProportional14doCoordinationEv @3151
    _ZN26LteCompManagerProportional18buildClientRequestEv @3152
    _ZN26LteCompManagerProportional19handleClientRequestEN4inet12IntrusivePtrI9X2CompMsgEE @3153
    _ZN26LteCompManagerProportional19provisionalScheduleEv @3154
    _ZN26LteCompManagerProportional21buildCoordinatorReplyEt @3155
    _ZN26LteCompManagerProportional21parseAllowedBlocksMapERSt6vectorI12CompRbStatusSaIS1_EE @3156
    _ZN26LteCompManagerProportional22handleCoordinatorReplyEN4inet12IntrusivePtrI9X2CompMsgEE @3157
    _ZN26LteCompManagerProportionalD0Ev @3158
    _ZN26LteCompManagerProportionalD2Ev @3159
    _ZN26LteMacSduRequestDescriptorC1Ev @3160
    _ZN26LteMacSduRequestDescriptorC2Ev @3161
    _ZN26LteMacSduRequestDescriptorD0Ev @3162
    _ZN26LteMacSduRequestDescriptorD1Ev @3163
    _ZN26LteMacSduRequestDescriptorD2Ev @3164
    _ZN26LteRlcPduNewDataDescriptorC1Ev @3165
    _ZN26LteRlcPduNewDataDescriptorC2Ev @3166
    _ZN26LteRlcPduNewDataDescriptorD0Ev @3167
    _ZN26LteRlcPduNewDataDescriptorD1Ev @3168
    _ZN26LteRlcPduNewDataDescriptorD2Ev @3169
    _ZN26SafetyStopPacketDescriptorC1Ev @3170
    _ZN26SafetyStopPacketDescriptorC2Ev @3171
    _ZN26SafetyStopPacketDescriptorD0Ev @3172
    _ZN26SafetyStopPacketDescriptorD1Ev @3173
    _ZN26SafetyStopPacketDescriptorD2Ev @3174
    _ZN26TerminateContextAppMessage12parsimUnpackEPN7omnetpp11cCommBufferE @3175
    _ZN26TerminateContextAppMessage12setContextIdEi @3176
    _ZN26TerminateContextAppMessage4copyERKS_ @3177
    _ZN26TerminateContextAppMessageC1EPKcs @3178
    _ZN26TerminateContextAppMessageC1ERKS_ @3179
    _ZN26TerminateContextAppMessageC2EPKcs @3180
    _ZN26TerminateContextAppMessageC2ERKS_ @3181
    _ZN26TerminateContextAppMessageD0Ev @3182
    _ZN26TerminateContextAppMessageD1Ev @3183
    _ZN26TerminateContextAppMessageD2Ev @3184
    _ZN26TerminateContextAppMessageaSERKS_ @3185
    _ZN26WarningAppPacketDescriptorC1Ev @3186
    _ZN26WarningAppPacketDescriptorC2Ev @3187
    _ZN26WarningAppPacketDescriptorD0Ev @3188
    _ZN26WarningAppPacketDescriptorD1Ev @3189
    _ZN26WarningAppPacketDescriptorD2Ev @3190
    _ZN26X2ControlInfoTagDescriptorC1Ev @3191
    _ZN26X2ControlInfoTagDescriptorC2Ev @3192
    _ZN26X2ControlInfoTagDescriptorD0Ev @3193
    _ZN26X2ControlInfoTagDescriptorD1Ev @3194
    _ZN26X2ControlInfoTagDescriptorD2Ev @3195
    _ZN27DangerAlertPacketDescriptorC1Ev @3196
    _ZN27DangerAlertPacketDescriptorC2Ev @3197
    _ZN27DangerAlertPacketDescriptorD0Ev @3198
    _ZN27DangerAlertPacketDescriptorD1Ev @3199
    _ZN27DangerAlertPacketDescriptorD2Ev @3200
    _ZN27DestinationIdListDescriptorC1Ev @3201
    _ZN27DestinationIdListDescriptorC2Ev @3202
    _ZN27DestinationIdListDescriptorD0Ev @3203
    _ZN27DestinationIdListDescriptorD1Ev @3204
    _ZN27DestinationIdListDescriptorD2Ev @3205
    _ZN27MacControlElementDescriptorC1Ev @3206
    _ZN27MacControlElementDescriptorC2Ev @3207
    _ZN27MacControlElementDescriptorD0Ev @3208
    _ZN27MacControlElementDescriptorD1Ev @3209
    _ZN27MacControlElementDescriptorD2Ev @3210
    _ZN27MecRTVideoStreamingReceiver10initializeEi @3211
    _ZN27MecRTVideoStreamingReceiver11establishedEi @3212
    _ZN27MecRTVideoStreamingReceiver12playoutFrameEv @3213
    _ZN27MecRTVideoStreamingReceiver13handleMessageEPN7omnetpp8cMessageE @3214
    _ZN27MecRTVideoStreamingReceiver13processPacketEPN4inet6PacketE @3215
    _ZN27MecRTVideoStreamingReceiver15handleUeMessageEPN7omnetpp8cMessageE @3216
    _ZN27MecRTVideoStreamingReceiver16handleMp1MessageEi @3217
    _ZN27MecRTVideoStreamingReceiver17handleHttpMessageEi @3218
    _ZN27MecRTVideoStreamingReceiver17handleSelfMessageEPN7omnetpp8cMessageE @3219
    _ZN27MecRTVideoStreamingReceiver17handleStopMessageEPN7omnetpp8cMessageE @3220
    _ZN27MecRTVideoStreamingReceiver18handleStartMessageEPN7omnetpp8cMessageE @3221
    _ZN27MecRTVideoStreamingReceiver20handleServiceMessageEi @3222
    _ZN27MecRTVideoStreamingReceiver24handleSessionStopMessageEPN7omnetpp8cMessageE @3223
    _ZN27MecRTVideoStreamingReceiver25handleSessionStartMessageEPN7omnetpp8cMessageE @3224
    _ZN27MecRTVideoStreamingReceiver6finishEv @3225
    _ZN27MecRTVideoStreamingReceiverC1Ev @3226
    _ZN27MecRTVideoStreamingReceiverC2Ev @3227
    _ZN27MecRTVideoStreamingReceiverD0Ev @3228
    _ZN27MecRTVideoStreamingReceiverD1Ev @3229
    _ZN27MecRTVideoStreamingReceiverD2Ev @3230
    _ZN27MultihopD2DPacketDescriptorC1Ev @3231
    _ZN27MultihopD2DPacketDescriptorC2Ev @3232
    _ZN27MultihopD2DPacketDescriptorD0Ev @3233
    _ZN27MultihopD2DPacketDescriptorD1Ev @3234
    _ZN27MultihopD2DPacketDescriptorD2Ev @3235
    _ZN27RlcUmRxWindowDescDescriptorC1Ev @3236
    _ZN27RlcUmRxWindowDescDescriptorC2Ev @3237
    _ZN27RlcUmRxWindowDescDescriptorD0Ev @3238
    _ZN27RlcUmRxWindowDescDescriptorD1Ev @3239
    _ZN27RlcUmRxWindowDescDescriptorD2Ev @3240
    _ZN27SafetyStartPacketDescriptorC1Ev @3241
    _ZN27SafetyStartPacketDescriptorC2Ev @3242
    _ZN27SafetyStartPacketDescriptorD0Ev @3243
    _ZN27SafetyStartPacketDescriptorD1Ev @3244
    _ZN27SafetyStartPacketDescriptorD2Ev @3245
    _ZN27WarningStopPacketDescriptorC1Ev @3246
    _ZN27WarningStopPacketDescriptorC2Ev @3247
    _ZN27WarningStopPacketDescriptorD0Ev @3248
    _ZN27WarningStopPacketDescriptorD1Ev @3249
    _ZN27WarningStopPacketDescriptorD2Ev @3250
    _ZN27X2CompProportionalRequestIED0Ev @3251
    _ZN28AperiodicSubscriptionTimer_m12parsimUnpackEPN7omnetpp11cCommBufferE @3252
    _ZN28AperiodicSubscriptionTimer_m4copyERKS_ @3253
    _ZN28AperiodicSubscriptionTimer_m9setPeriodEd @3254
    _ZN28AperiodicSubscriptionTimer_mC1EPKcs @3255
    _ZN28AperiodicSubscriptionTimer_mC1ERKS_ @3256
    _ZN28AperiodicSubscriptionTimer_mC2EPKcs @3257
    _ZN28AperiodicSubscriptionTimer_mC2ERKS_ @3258
    _ZN28AperiodicSubscriptionTimer_mD0Ev @3259
    _ZN28AperiodicSubscriptionTimer_mD1Ev @3260
    _ZN28AperiodicSubscriptionTimer_mD2Ev @3261
    _ZN28AperiodicSubscriptionTimer_maSERKS_ @3262
    _ZN28BackgroundCellTrafficManager10computeCqiEi9DirectionN4inet5CoordEd @3263
    _ZN28BackgroundCellTrafficManager10initializeEi @3264
    _ZN28BackgroundCellTrafficManager10nrCqiTableE @3265 DATA
    _ZN28BackgroundCellTrafficManager10racHandledEt @3266
    _ZN28BackgroundCellTrafficManager11getNumBandsEv @3267
    _ZN28BackgroundCellTrafficManager15getCqiFromTableEd @3268
    _ZN28BackgroundCellTrafficManager21getReceivedPower_bgUeEdN4inet5CoordES1_9Directionb @3269
    _ZN28BackgroundCellTrafficManager28getBackloggedUeBytesPerBlockEt9Direction @3270
    _ZN28BackgroundCellTrafficManagerC1Ev @3271
    _ZN28BackgroundCellTrafficManagerC2Ev @3272
    _ZN28BackgroundCellTrafficManagerD0Ev @3273
    _ZN28BackgroundCellTrafficManagerD1Ev @3274
    _ZN28BackgroundCellTrafficManagerD2Ev @3275
    _ZN28LteSchedulingGrantDescriptorC1Ev @3276
    _ZN28LteSchedulingGrantDescriptorC2Ev @3277
    _ZN28LteSchedulingGrantDescriptorD0Ev @3278
    _ZN28LteSchedulingGrantDescriptorD1Ev @3279
    _ZN28LteSchedulingGrantDescriptorD2Ev @3280
    _ZN28WarningAlertPacketDescriptorC1Ev @3281
    _ZN28WarningAlertPacketDescriptorC2Ev @3282
    _ZN28WarningAlertPacketDescriptorD0Ev @3283
    _ZN28WarningAlertPacketDescriptorD1Ev @3284
    _ZN28WarningAlertPacketDescriptorD2Ev @3285
    _ZN28WarningStartPacketDescriptorC1Ev @3286
    _ZN28WarningStartPacketDescriptorC2Ev @3287
    _ZN28WarningStartPacketDescriptorD0Ev @3288
    _ZN28WarningStartPacketDescriptorD1Ev @3289
    _ZN28WarningStartPacketDescriptorD2Ev @3290
    _ZN29CreateContextAppAckDescriptorC1Ev @3291
    _ZN29CreateContextAppAckDescriptorC2Ev @3292
    _ZN29CreateContextAppAckDescriptorD0Ev @3293
    _ZN29CreateContextAppAckDescriptorD1Ev @3294
    _ZN29CreateContextAppAckDescriptorD2Ev @3295
    _ZN29DeviceAppStopPacketDescriptorC1Ev @3296
    _ZN29DeviceAppStopPacketDescriptorC2Ev @3297
    _ZN29DeviceAppStopPacketDescriptorD0Ev @3298
    _ZN29DeviceAppStopPacketDescriptorD1Ev @3299
    _ZN29DeviceAppStopPacketDescriptorD2Ev @3300
    _ZN30ActiveUeNotificationDescriptorC1Ev @3301
    _ZN30ActiveUeNotificationDescriptorC2Ev @3302
    _ZN30ActiveUeNotificationDescriptorD0Ev @3303
    _ZN30ActiveUeNotificationDescriptorD1Ev @3304
    _ZN30ActiveUeNotificationDescriptorD2Ev @3305
    _ZN30CircleNotificationSubscription16sendNotificationEP17EventNotification @3306
    _ZN30CircleNotificationSubscription18handleSubscriptionEv @3307
    _ZN30CircleNotificationSubscription24sendSubscriptionResponseEv @3308
    _ZN30CircleNotificationSubscription6findUeEt @3309
    _ZN30CircleNotificationSubscription8fromJsonERKN8nlohmann10basic_jsonINS0_11ordered_mapESt6vectorNSt7__cxx1112basic_stringIcSt11char_traitsIcESaIcEEEbxydSaNS0_14adl_serializerES3_IhSaIhEEEE @3310
    _ZN30CircleNotificationSubscriptionC1EjPN4inet9TcpSocketERKNSt7__cxx1112basic_stringIcSt11char_traitsIcESaIcEEERSt3setIPN7omnetpp7cModuleESt4lessISE_ESaISE_EE @3311
    _ZN30CircleNotificationSubscriptionC1EjPN4inet9TcpSocketERKNSt7__cxx1112basic_stringIcSt11char_traitsIcESaIcEEERSt3setIPN7omnetpp7cModuleESt4lessISE_ESaISE_EEbNSC_7SimTimeE @3312
    _ZN30CircleNotificationSubscriptionC1Ev @3313
    _ZN30CircleNotificationSubscriptionC2EjPN4inet9TcpSocketERKNSt7__cxx1112basic_stringIcSt11char_traitsIcESaIcEEERSt3setIPN7omnetpp7cModuleESt4lessISE_ESaISE_EE @3314
    _ZN30CircleNotificationSubscriptionC2EjPN4inet9TcpSocketERKNSt7__cxx1112basic_stringIcSt11char_traitsIcESaIcEEERSt3setIPN7omnetpp7cModuleESt4lessISE_ESaISE_EEbNSC_7SimTimeE @3315
    _ZN30CircleNotificationSubscriptionC2Ev @3316
    _ZN30CircleNotificationSubscriptionD0Ev @3317
    _ZN30CircleNotificationSubscriptionD1Ev @3318
    _ZN30CircleNotificationSubscriptionD2Ev @3319
    _ZN30DeviceAppStartPacketDescriptorC1Ev @3320
    _ZN30DeviceAppStartPacketDescriptorC2Ev @3321
    _ZN30DeviceAppStartPacketDescriptorD0Ev @3322
    _ZN30DeviceAppStartPacketDescriptorD1Ev @3323
    _ZN30DeviceAppStartPacketDescriptorD2Ev @3324
    _ZN30HttpRequestMessage_mDescriptorC1Ev @3325
    _ZN30HttpRequestMessage_mDescriptorC2Ev @3326
    _ZN30HttpRequestMessage_mDescriptorD0Ev @3327
    _ZN30HttpRequestMessage_mDescriptorD1Ev @3328
    _ZN30HttpRequestMessage_mDescriptorD2Ev @3329
    _ZN30X2InformationElementDescriptorC1Ev @3330
    _ZN30X2InformationElementDescriptorC2Ev @3331
    _ZN30X2InformationElementDescriptorD0Ev @3332
    _ZN30X2InformationElementDescriptorD1Ev @3333
    _ZN30X2InformationElementDescriptorD2Ev @3334
    _ZN31HttpResponseMessage_mDescriptorC1Ev @3335
    _ZN31HttpResponseMessage_mDescriptorC2Ev @3336
    _ZN31HttpResponseMessage_mDescriptorD0Ev @3337
    _ZN31HttpResponseMessage_mDescriptorD1Ev @3338
    _ZN31HttpResponseMessage_mDescriptorD2Ev @3339
    _ZN31LteFeedbackComputationRealistic11computeRankEt @3340
    _ZN31LteFeedbackComputationRealistic15computeFeedbackE12FeedbackType16RbAllocationType6TxModeSt3mapI6RemoteiSt4lessIS4_ESaISt4pairIKS4_iEEEi21FeedbackGeneratorTypeiSt6vectorIdSaIdEEt @3341
    _ZN31LteFeedbackComputationRealistic15computeFeedbackE6Remote12FeedbackType16RbAllocationType6TxModeii21FeedbackGeneratorTypeiSt6vectorIdSaIdEEt @3342
    _ZN31LteFeedbackComputationRealistic15computeFeedbackE6Remote6TxMode12FeedbackType16RbAllocationTypeii21FeedbackGeneratorTypeiSt6vectorIdSaIdEEt @3343
    _ZN31LteFeedbackComputationRealistic20generateBaseFeedbackEiiR11LteFeedback12FeedbackTypei16RbAllocationType6TxModeSt6vectorIdSaIdEE @3344
    _ZN31LteFeedbackComputationRealistic6getCqiE6TxModed @3345
    _ZN31LteFeedbackComputationRealistic7meanSnrESt6vectorIdSaIdEE @3346
    _ZN31LteFeedbackComputationRealisticC1EdPSt3mapIt6LambdaSt4lessItESaISt4pairIKtS1_EEEdddj @3347
    _ZN31LteFeedbackComputationRealisticC2EdPSt3mapIt6LambdaSt4lessItESaISt4pairIKtS1_EEEdddj @3348
    _ZN31LteFeedbackComputationRealisticD0Ev @3349
    _ZN31LteFeedbackComputationRealisticD1Ev @3350
    _ZN31LteFeedbackComputationRealisticD2Ev @3351
    _ZN31LteHarqFeedbackMirrorDescriptorC1Ev @3352
    _ZN31LteHarqFeedbackMirrorDescriptorC2Ev @3353
    _ZN31LteHarqFeedbackMirrorDescriptorD0Ev @3354
    _ZN31LteHarqFeedbackMirrorDescriptorD1Ev @3355
    _ZN31LteHarqFeedbackMirrorDescriptorD2Ev @3356
    _ZN31ProcessingTimeMessageDescriptorC1Ev @3357
    _ZN31ProcessingTimeMessageDescriptorC2Ev @3358
    _ZN31ProcessingTimeMessageDescriptorD0Ev @3359
    _ZN31ProcessingTimeMessageDescriptorD1Ev @3360
    _ZN31ProcessingTimeMessageDescriptorD2Ev @3361
    _ZN31RealTimeVideoStreamingAppPacket12parsimUnpackEPN7omnetpp11cCommBufferE @3362
    _ZN31RealTimeVideoStreamingAppPacket4copyERKS_ @3363
    _ZN31RealTimeVideoStreamingAppPacket7setTypeEi @3364
    _ZN31RealTimeVideoStreamingAppPacketC1ERKS_ @3365
    _ZN31RealTimeVideoStreamingAppPacketC1Ev @3366
    _ZN31RealTimeVideoStreamingAppPacketC2ERKS_ @3367
    _ZN31RealTimeVideoStreamingAppPacketC2Ev @3368
    _ZN31RealTimeVideoStreamingAppPacketD0Ev @3369
    _ZN31RealTimeVideoStreamingAppPacketD1Ev @3370
    _ZN31RealTimeVideoStreamingAppPacketD2Ev @3371
    _ZN31RealTimeVideoStreamingAppPacketaSERKS_ @3372
    _ZN32AvailableResourcesSelectionBased15findBestMecHostERK21ApplicationDescriptor @3373
    _ZN32AvailableResourcesSelectionBasedD0Ev @3374
    _ZN32DeviceAppStopAckPacketDescriptorC1Ev @3375
    _ZN32DeviceAppStopAckPacketDescriptorC2Ev @3376
    _ZN32DeviceAppStopAckPacketDescriptorD0Ev @3377
    _ZN32DeviceAppStopAckPacketDescriptorD1Ev @3378
    _ZN32DeviceAppStopAckPacketDescriptorD2Ev @3379
    _ZN32MECOrchestratorMessageDescriptorC1Ev @3380
    _ZN32MECOrchestratorMessageDescriptorC2Ev @3381
    _ZN32MECOrchestratorMessageDescriptorD0Ev @3382
    _ZN32MECOrchestratorMessageDescriptorD1Ev @3383
    _ZN32MECOrchestratorMessageDescriptorD2Ev @3384
    _ZN32MecRequestBackgroundGeneratorApp10initializeEi @3385
    _ZN32MecRequestBackgroundGeneratorApp11establishedEi @3386
    _ZN32MecRequestBackgroundGeneratorApp15handleUeMessageEPN7omnetpp8cMessageE @3387
    _ZN32MecRequestBackgroundGeneratorApp15sendBulkRequestEv @3388
    _ZN32MecRequestBackgroundGeneratorApp16handleMp1MessageEi @3389
    _ZN32MecRequestBackgroundGeneratorApp17handleHttpMessageEi @3390
    _ZN32MecRequestBackgroundGeneratorApp17handleSelfMessageEPN7omnetpp8cMessageE @3391
    _ZN32MecRequestBackgroundGeneratorApp20handleServiceMessageEi @3392
    _ZN32MecRequestBackgroundGeneratorApp6finishEv @3393
    _ZN32MecRequestBackgroundGeneratorAppC1Ev @3394
    _ZN32MecRequestBackgroundGeneratorAppC2Ev @3395
    _ZN32MecRequestBackgroundGeneratorAppD0Ev @3396
    _ZN32MecRequestBackgroundGeneratorAppD1Ev @3397
    _ZN32MecRequestBackgroundGeneratorAppD2Ev @3398
    _ZN33DeleteContextAppMessageDescriptorC1Ev @3399
    _ZN33DeleteContextAppMessageDescriptorC2Ev @3400
    _ZN33DeleteContextAppMessageDescriptorD0Ev @3401
    _ZN33DeleteContextAppMessageDescriptorD1Ev @3402
    _ZN33DeleteContextAppMessageDescriptorD2Ev @3403
    _ZN33DeviceAppStartAckPacketDescriptorC1Ev @3404
    _ZN33DeviceAppStartAckPacketDescriptorC2Ev @3405
    _ZN33DeviceAppStartAckPacketDescriptorD0Ev @3406
    _ZN33DeviceAppStartAckPacketDescriptorD1Ev @3407
    _ZN33DeviceAppStartAckPacketDescriptorD2Ev @3408
    _ZN33LteAllocationModuleFrequencyReuse15storeAllocationESt6vectorIS0_ISt3mapIt23AllocatedRbsPerBandInfoSt4lessItESaISt4pairIKtS2_EEESaIS9_EESaISB_EEPSt3setItS4_SaItEE @3409
    _ZN33LteAllocationModuleFrequencyReuse25getAllocatorOccupiedBandsEv @3410
    _ZN33LteAllocationModuleFrequencyReuseC1EP9LteMacEnb9Direction @3411
    _ZN33LteAllocationModuleFrequencyReuseC2EP9LteMacEnb9Direction @3412
    _ZN33LteAllocationModuleFrequencyReuseD0Ev @3413
    _ZN33TerminateVehicleMessageDescriptorC1Ev @3414
    _ZN33TerminateVehicleMessageDescriptorC2Ev @3415
    _ZN33TerminateVehicleMessageDescriptorD0Ev @3416
    _ZN33TerminateVehicleMessageDescriptorD1Ev @3417
    _ZN33TerminateVehicleMessageDescriptorD2Ev @3418
    _ZN34MecRequestResponsePacketDescriptorC1Ev @3419
    _ZN34MecRequestResponsePacketDescriptorC2Ev @3420
    _ZN34MecRequestResponsePacketDescriptorD0Ev @3421
    _ZN34MecRequestResponsePacketDescriptorD1Ev @3422
    _ZN34MecRequestResponsePacketDescriptorD2Ev @3423
    _ZN34RequestResponseAppPacketDescriptorC1Ev @3424
    _ZN34RequestResponseAppPacketDescriptorC2Ev @3425
    _ZN34RequestResponseAppPacketDescriptorD0Ev @3426
    _ZN34RequestResponseAppPacketDescriptorD1Ev @3427
    _ZN34RequestResponseAppPacketDescriptorD2Ev @3428
    _ZN35D2DModeSwitchNotificationDescriptorC1Ev @3429
    _ZN35D2DModeSwitchNotificationDescriptorC2Ev @3430
    _ZN35D2DModeSwitchNotificationDescriptorD0Ev @3431
    _ZN35D2DModeSwitchNotificationDescriptorD1Ev @3432
    _ZN35D2DModeSwitchNotificationDescriptorD2Ev @3433
    _ZN35VirtualisationInfrastructureManager10initializeEi @3434
    _ZN35VirtualisationInfrastructureManager10terminateREP16DeleteAppMessagePN7omnetpp7cModuleE @3435
    _ZN35VirtualisationInfrastructureManager11findServiceEPKc @3436
    _ZN35VirtualisationInfrastructureManager13CalculateLoadEv @3437
    _ZN35VirtualisationInfrastructureManager13handleMessageEPN7omnetpp8cMessageE @3438
    _ZN35VirtualisationInfrastructureManager14PrintResourcesEv @3439
    _ZN35VirtualisationInfrastructureManager14printResourcesEv @3440
    _ZN35VirtualisationInfrastructureManager14registerMecAppEiiid @3441
    _ZN35VirtualisationInfrastructureManager14terminateMEAppEP16DeleteAppMessage @3442
    _ZN35VirtualisationInfrastructureManager16deRegisterMecAppEi @3443
    _ZN35VirtualisationInfrastructureManager16instantiateMEAppEP16CreateAppMessage @3444
    _ZN35VirtualisationInfrastructureManager22reserveResourcesBGAppsEv @3445
    _ZN35VirtualisationInfrastructureManager22terminateEmulatedMEAppEP16DeleteAppMessage @3446
    _ZN35VirtualisationInfrastructureManager23calculateProcessingTimeEid @3447
    _ZN35VirtualisationInfrastructureManager23calculateProcessingTimeEii @3448
    _ZN35VirtualisationInfrastructureManager24instantiateEmulatedMEAppEP16CreateAppMessage @3449
    _ZN35VirtualisationInfrastructureManagerC1Ev @3450
    _ZN35VirtualisationInfrastructureManagerC2Ev @3451
    _ZN35VirtualisationInfrastructureManagerD0Ev @3452
    _ZN35VirtualisationInfrastructureManagerD2Ev @3453
    _ZN36DeleteContextAppAckMessageDescriptorC1Ev @3454
    _ZN36DeleteContextAppAckMessageDescriptorC2Ev @3455
    _ZN36DeleteContextAppAckMessageDescriptorD0Ev @3456
    _ZN36DeleteContextAppAckMessageDescriptorD1Ev @3457
    _ZN36DeleteContextAppAckMessageDescriptorD2Ev @3458
    _ZN36StartRealTimeVideoStreamingAppPacket12parsimUnpackEPN7omnetpp11cCommBufferE @3459
    _ZN36StartRealTimeVideoStreamingAppPacket12setSessionIdEi @3460
    _ZN36StartRealTimeVideoStreamingAppPacket4copyERKS_ @3461
    _ZN36StartRealTimeVideoStreamingAppPacket6setFpsEi @3462
    _ZN36StartRealTimeVideoStreamingAppPacket8setCodecEPKc @3463
    _ZN36StartRealTimeVideoStreamingAppPacketC1ERKS_ @3464
    _ZN36StartRealTimeVideoStreamingAppPacketC1Ev @3465
    _ZN36StartRealTimeVideoStreamingAppPacketC2ERKS_ @3466
    _ZN36StartRealTimeVideoStreamingAppPacketC2Ev @3467
    _ZN36StartRealTimeVideoStreamingAppPacketD0Ev @3468
    _ZN36StartRealTimeVideoStreamingAppPacketD1Ev @3469
    _ZN36StartRealTimeVideoStreamingAppPacketD2Ev @3470
    _ZN36StartRealTimeVideoStreamingAppPacketaSERKS_ @3471
    _ZN36TerminateContextAppMessageDescriptorC1Ev @3472
    _ZN36TerminateContextAppMessageDescriptorC2Ev @3473
    _ZN36TerminateContextAppMessageDescriptorD0Ev @3474
    _ZN36TerminateContextAppMessageDescriptorD1Ev @3475
    _ZN36TerminateContextAppMessageDescriptorD2Ev @3476
    _ZN38AperiodicSubscriptionTimer_mDescriptorC1Ev @3477
    _ZN38AperiodicSubscriptionTimer_mDescriptorC2Ev @3478
    _ZN38AperiodicSubscriptionTimer_mDescriptorD0Ev @3479
    _ZN38AperiodicSubscriptionTimer_mDescriptorD1Ev @3480
    _ZN38AperiodicSubscriptionTimer_mDescriptorD2Ev @3481
    _ZN38RealTimeVideoStreamingAppSegmentHeader12parsimUnpackEPN7omnetpp11cCommBufferE @3482
    _ZN38RealTimeVideoStreamingAppSegmentHeader12setSessionIdEi @3483
    _ZN38RealTimeVideoStreamingAppSegmentHeader13setTotalFragsEi @3484
    _ZN38RealTimeVideoStreamingAppSegmentHeader14setFrameLengthEi @3485
    _ZN38RealTimeVideoStreamingAppSegmentHeader14setFrameNumberEm @3486
    _ZN38RealTimeVideoStreamingAppSegmentHeader14setPictureTypeEh @3487
    _ZN38RealTimeVideoStreamingAppSegmentHeader15setCurrentFragsEi @3488
    _ZN38RealTimeVideoStreamingAppSegmentHeader15setHeaderLengthEi @3489
    _ZN38RealTimeVideoStreamingAppSegmentHeader15setIsFragmentedEb @3490
    _ZN38RealTimeVideoStreamingAppSegmentHeader16setPayloadLengthEi @3491
    _ZN38RealTimeVideoStreamingAppSegmentHeader17setIsLastFragmentEb @3492
    _ZN38RealTimeVideoStreamingAppSegmentHeader17setSequenceNumberEm @3493
    _ZN38RealTimeVideoStreamingAppSegmentHeader19setPayloadTimestampEN7omnetpp7SimTimeE @3494
    _ZN38RealTimeVideoStreamingAppSegmentHeader4copyERKS_ @3495
    _ZN38RealTimeVideoStreamingAppSegmentHeaderC1ERKS_ @3496
    _ZN38RealTimeVideoStreamingAppSegmentHeaderC1Ev @3497
    _ZN38RealTimeVideoStreamingAppSegmentHeaderC2ERKS_ @3498
    _ZN38RealTimeVideoStreamingAppSegmentHeaderC2Ev @3499
    _ZN38RealTimeVideoStreamingAppSegmentHeaderD0Ev @3500
    _ZN38RealTimeVideoStreamingAppSegmentHeaderD1Ev @3501
    _ZN38RealTimeVideoStreamingAppSegmentHeaderD2Ev @3502
    _ZN38RealTimeVideoStreamingAppSegmentHeaderaSERKS_ @3503
    _ZN3lte5utils11splitStringERKNSt7__cxx1112basic_stringIcSt11char_traitsIcESaIcEEES6_ @3504
    _ZN3lte5utils16getPacketPayloadB5cxx11EPN7omnetpp8cMessageE @3505
    _ZN3mec11AssociateIdC2ERKS0_ @3506
    _ZN3mec11AssociateIdD2Ev @3507
    _ZN3mec4EcgiD2Ev @3508
    _ZN3mec4PlmnC2ERKS0_ @3509
    _ZN3mec4PlmnD2Ev @3510
    _ZN41RealTimeVideoStreamingAppPacketDescriptorC1Ev @3511
    _ZN41RealTimeVideoStreamingAppPacketDescriptorC2Ev @3512
    _ZN41RealTimeVideoStreamingAppPacketDescriptorD0Ev @3513
    _ZN41RealTimeVideoStreamingAppPacketDescriptorD1Ev @3514
    _ZN41RealTimeVideoStreamingAppPacketDescriptorD2Ev @3515
    _ZN42StopSessionRealTimeVideoStreamingAppPacket12parsimUnpackEPN7omnetpp11cCommBufferE @3516
    _ZN42StopSessionRealTimeVideoStreamingAppPacket12setSessionIdEi @3517
    _ZN42StopSessionRealTimeVideoStreamingAppPacket4copyERKS_ @3518
    _ZN42StopSessionRealTimeVideoStreamingAppPacketC1ERKS_ @3519
    _ZN42StopSessionRealTimeVideoStreamingAppPacketC1Ev @3520
    _ZN42StopSessionRealTimeVideoStreamingAppPacketC2ERKS_ @3521
    _ZN42StopSessionRealTimeVideoStreamingAppPacketC2Ev @3522
    _ZN42StopSessionRealTimeVideoStreamingAppPacketD0Ev @3523
    _ZN42StopSessionRealTimeVideoStreamingAppPacketD1Ev @3524
    _ZN42StopSessionRealTimeVideoStreamingAppPacketD2Ev @3525
    _ZN42StopSessionRealTimeVideoStreamingAppPacketaSERKS_ @3526
    _ZN43StartSessionRealTimeVideoStreamingAppPacket12parsimUnpackEPN7omnetpp11cCommBufferE @3527
    _ZN43StartSessionRealTimeVideoStreamingAppPacket12setSessionIdEi @3528
    _ZN43StartSessionRealTimeVideoStreamingAppPacket4copyERKS_ @3529
    _ZN43StartSessionRealTimeVideoStreamingAppPacket6setFpsEi @3530
    _ZN43StartSessionRealTimeVideoStreamingAppPacket8setCodecEPKc @3531
    _ZN43StartSessionRealTimeVideoStreamingAppPacketC1ERKS_ @3532
    _ZN43StartSessionRealTimeVideoStreamingAppPacketC1Ev @3533
    _ZN43StartSessionRealTimeVideoStreamingAppPacketC2ERKS_ @3534
    _ZN43StartSessionRealTimeVideoStreamingAppPacketC2Ev @3535
    _ZN43StartSessionRealTimeVideoStreamingAppPacketD0Ev @3536
    _ZN43StartSessionRealTimeVideoStreamingAppPacketD1Ev @3537
    _ZN43StartSessionRealTimeVideoStreamingAppPacketD2Ev @3538
    _ZN43StartSessionRealTimeVideoStreamingAppPacketaSERKS_ @3539
    _ZN46StartRealTimeVideoStreamingAppPacketDescriptorC1Ev @3540
    _ZN46StartRealTimeVideoStreamingAppPacketDescriptorC2Ev @3541
    _ZN46StartRealTimeVideoStreamingAppPacketDescriptorD0Ev @3542
    _ZN46StartRealTimeVideoStreamingAppPacketDescriptorD1Ev @3543
    _ZN46StartRealTimeVideoStreamingAppPacketDescriptorD2Ev @3544
    _ZN48RealTimeVideoStreamingAppSegmentHeaderDescriptorC1Ev @3545
    _ZN48RealTimeVideoStreamingAppSegmentHeaderDescriptorC2Ev @3546
    _ZN48RealTimeVideoStreamingAppSegmentHeaderDescriptorD0Ev @3547
    _ZN48RealTimeVideoStreamingAppSegmentHeaderDescriptorD1Ev @3548
    _ZN48RealTimeVideoStreamingAppSegmentHeaderDescriptorD2Ev @3549
    _ZN4DLBM15findBestMecHostERK21ApplicationDescriptor @3550
    _ZN4DLBMC1EP15MecOrchestratorddd @3551
    _ZN4DLBMC2EP15MecOrchestratorddd @3552
    _ZN4DLBMD0Ev @3553
    _ZN4Ecgi7setEcgiERKN3mec4EcgiE @3554
    _ZN4Ecgi7setPlmnEN3mec4PlmnE @3555
    _ZN4Ecgi7setPlmnERK4Plmn @3556
    _ZN4Ecgi9setCellIdEt @3557
    _ZN4EcgiC1EN3mec4EcgiE @3558
    _ZN4EcgiC1Et @3559
    _ZN4EcgiC1EtR4Plmn @3560
    _ZN4EcgiC1Ev @3561
    _ZN4EcgiC2EN3mec4EcgiE @3562
    _ZN4EcgiC2Et @3563
    _ZN4EcgiC2EtR4Plmn @3564
    _ZN4EcgiC2Ev @3565
    _ZN4EcgiD0Ev @3566
    _ZN4EcgiD1Ev @3567
    _ZN4EcgiD2Ev @3568
    _ZN4Http10sendPacketEPKcPN4inet9TcpSocketE @3569
    _ZN4Http11parseHeaderERKNSt7__cxx1112basic_stringIcSt11char_traitsIcESaIcEEE @3570
    _ZN4Http12addBodyChunkEPNSt7__cxx1112basic_stringIcSt11char_traitsIcESaIcEEEP15HttpBaseMessage @3571
    _ZN4Http12parseTcpDataEPNSt7__cxx1112basic_stringIcSt11char_traitsIcESaIcEEEP15HttpBaseMessage @3572
    _ZN4Http14sendGetRequestEPN4inet9TcpSocketEPKcS4_S4_S4_ @3573
    _ZN4Http14sendPutRequestEPN4inet9TcpSocketEPKcS4_S4_S4_ @3574
    _ZN4Http15send200ResponseEPN4inet9TcpSocketEPKc @3575
    _ZN4Http15send201ResponseEPN4inet9TcpSocketEPKc @3576
    _ZN4Http15send201ResponseEPN4inet9TcpSocketEPKcRSt3mapINSt7__cxx1112basic_stringIcSt11char_traitsIcESaIcEEESB_St4lessISB_ESaISt4pairIKSB_SB_EEE @3577
    _ZN4Http15send201ResponseEPN4inet9TcpSocketEPKcRSt4pairINSt7__cxx1112basic_stringIcSt11char_traitsIcESaIcEEESB_E @3578
    _ZN4Http15send204ResponseEPN4inet9TcpSocketE @3579
    _ZN4Http15send400ResponseEPN4inet9TcpSocketE @3580
    _ZN4Http15send400ResponseEPN4inet9TcpSocketEPKc @3581
    _ZN4Http15send404ResponseEPN4inet9TcpSocketE @3582
    _ZN4Http15send404ResponseEPN4inet9TcpSocketEPKc @3583
    _ZN4Http15send405ResponseEPN4inet9TcpSocketEPKc @3584
    _ZN4Http15send500ResponseEPN4inet9TcpSocketEPKc @3585
    _ZN4Http15send503ResponseEPN4inet9TcpSocketEPKc @3586
    _ZN4Http15send505ResponseEPN4inet9TcpSocketE @3587
    _ZN4Http15sendHttpRequestEPN4inet9TcpSocketEPKcS4_RSt3mapINSt7__cxx1112basic_stringIcSt11char_traitsIcESaIcEEESB_St4lessISB_ESaISt4pairIKSB_SB_EEES4_S4_S4_ @3588
    _ZN4Http15sendHttpRequestEPN4inet9TcpSocketEPKcS4_RSt4pairINSt7__cxx1112basic_stringIcSt11char_traitsIcESaIcEEESB_ES4_S4_S4_ @3589
    _ZN4Http15sendHttpRequestEPN4inet9TcpSocketEPKcS4_S4_S4_S4_ @3590
    _ZN4Http15sendPostRequestEPN4inet9TcpSocketEPKcS4_S4_S4_ @3591
    _ZN4Http16checkHttpVersionERNSt7__cxx1112basic_stringIcSt11char_traitsIcESaIcEEE @3592
    _ZN4Http16parseReceivedMsgERNSt7__cxx1112basic_stringIcSt11char_traitsIcESaIcEEEPS5_PP15HttpBaseMessage @3593
    _ZN4Http16parseReceivedMsgEiRNSt7__cxx1112basic_stringIcSt11char_traitsIcESaIcEEERN7omnetpp6cQueueEPS5_PP15HttpBaseMessage @3594
    _ZN4Http16sendHttpResponseEPN4inet9TcpSocketEiPKcRSt3mapINSt7__cxx1112basic_stringIcSt11char_traitsIcESaIcEEESB_St4lessISB_ESaISt4pairIKSB_SB_EEES4_ @3595
    _ZN4Http16sendHttpResponseEPN4inet9TcpSocketEiPKcRSt4pairINSt7__cxx1112basic_stringIcSt11char_traitsIcESaIcEEESB_ES4_ @3596
    _ZN4Http16sendHttpResponseEPN4inet9TcpSocketEiPKcS4_ @3597
    _ZN4Http17ProblemDetailBase6toJsonB5cxx11Ev @3598
    _ZN4Http17ProblemDetailBaseD2Ev @3599
    _ZN4Http17sendDeleteRequestEPN4inet9TcpSocketEPKcS4_ @3600
    _ZN4Http22checkHttpRequestMethodERKNSt7__cxx1112basic_stringIcSt11char_traitsIcESaIcEEE @3601
    _ZN4Plmn6setMccERKNSt7__cxx1112basic_stringIcSt11char_traitsIcESaIcEEE @3602
    _ZN4Plmn6setMncERKNSt7__cxx1112basic_stringIcSt11char_traitsIcESaIcEEE @3603
    _ZN4PlmnC1ERKNSt7__cxx1112basic_stringIcSt11char_traitsIcESaIcEEES7_ @3604
    _ZN4PlmnC1Ev @3605
    _ZN4PlmnC2ERKNSt7__cxx1112basic_stringIcSt11char_traitsIcESaIcEEES7_ @3606
    _ZN4PlmnC2ERKS_ @3607
    _ZN4PlmnC2Ev @3608
    _ZN4PlmnD0Ev @3609
    _ZN4PlmnD1Ev @3610
    _ZN4PlmnD2Ev @3611
    _ZN4UserC1ERKN4inet11Ipv4AddressEtRKNSt7__cxx1112basic_stringIcSt11char_traitsIcESaIcEEEi @3612
    _ZN4UserC1Ev @3613
    _ZN4UserC2ERKN4inet11Ipv4AddressEtRKNSt7__cxx1112basic_stringIcSt11char_traitsIcESaIcEEEi @3614
    _ZN4UserC2Ev @3615
    _ZN4UserD0Ev @3616
    _ZN4UserD2Ev @3617
    _ZN4inet10SctpClient15socketAvailableEPNS_10SctpSocketEPNS_10IndicationE @3618
    _ZN4inet10SctpSocket9ICallback13socketDeletedEPS0_ @3619
    _ZN4inet10SctpSocket9ICallback19addressAddedArrivedEPS0_NS_9L3AddressES3_ @3620
    _ZN4inet10SctpSocket9ICallback20sendqueueFullArrivedEPS0_ @3621
    _ZN4inet10SctpSocket9ICallback20socketOptionsArrivedEPS0_PNS_10IndicationE @3622
    _ZN4inet10makeSharedI18LteSchedulingGrantJEEENS_12IntrusivePtrIT_EEDpOT0_ @3623
    _ZN4inet10makeSharedI23DeviceAppStartAckPacketJEEENS_12IntrusivePtrIT_EEDpOT0_ @3624
    _ZN4inet10makeSharedI6LteRacJEEENS_12IntrusivePtrIT_EEDpOT0_ @3625
    _ZN4inet11FieldsChunk14addChunkLengthENS_5units5valueIxNS1_5units1bEEE @3626
    _ZN4inet11FieldsChunk14setChunkLengthENS_5units5valueIxNS1_5units1bEEE @3627
    _ZN4inet12MobilityBase17findSubjectModuleEv @3628
    _ZN4inet13SharingTagSet14addTagIfAbsentI15FlowControlInfoEEKNS_12IntrusivePtrIT_EEv @3629
    _ZN4inet13SharingTagSet14addTagIfAbsentI15UserControlInfoEEKNS_12IntrusivePtrIT_EEv @3630
    _ZN4inet13SharingTagSet14addTagIfAbsentI16X2ControlInfoTagEEKNS_12IntrusivePtrIT_EEv @3631
    _ZN4inet13SharingTagSet14addTagIfAbsentINS_11SctpSendReqEEEKNS_12IntrusivePtrIT_EEv @3632
    _ZN4inet13SharingTagSet14addTagIfAbsentINS_12InterfaceIndEEEKNS_12IntrusivePtrIT_EEv @3633
    _ZN4inet13SharingTagSet14addTagIfAbsentINS_12InterfaceReqEEEKNS_12IntrusivePtrIT_EEv @3634
    _ZN4inet13SharingTagSet14addTagIfAbsentINS_15CreationTimeTagEEEKNS_12IntrusivePtrIT_EEv @3635
    _ZN4inet13SharingTagSet14addTagIfAbsentINS_17PacketProtocolTagEEEKNS_12IntrusivePtrIT_EEv @3636
    _ZN4inet13SharingTagSet14addTagIfAbsentINS_18NetworkProtocolIndEEEKNS_12IntrusivePtrIT_EEv @3637
    _ZN4inet13SharingTagSet14addTagIfAbsentINS_19DispatchProtocolReqEEEKNS_12IntrusivePtrIT_EEv @3638
    _ZN4inet13SharingTagSet15getTagForUpdateI15FlowControlInfoEEKNS_12IntrusivePtrIT_EEv @3639
    _ZN4inet13SharingTagSet15getTagForUpdateI15UserControlInfoEEKNS_12IntrusivePtrIT_EEv @3640
    _ZN4inet13SharingTagSet16findTagForUpdateI15FlowControlInfoEEKNS_12IntrusivePtrIT_EEv @3641
    _ZN4inet13SharingTagSet16findTagForUpdateI15UserControlInfoEEKNS_12IntrusivePtrIT_EEv @3642
    _ZN4inet13SharingTagSet16findTagForUpdateI16X2ControlInfoTagEEKNS_12IntrusivePtrIT_EEv @3643
    _ZN4inet13SharingTagSet16findTagForUpdateINS_11SctpSendReqEEEKNS_12IntrusivePtrIT_EEv @3644
    _ZN4inet13SharingTagSet16findTagForUpdateINS_12InterfaceIndEEEKNS_12IntrusivePtrIT_EEv @3645
    _ZN4inet13SharingTagSet16findTagForUpdateINS_12InterfaceReqEEEKNS_12IntrusivePtrIT_EEv @3646
    _ZN4inet13SharingTagSet16findTagForUpdateINS_15CreationTimeTagEEEKNS_12IntrusivePtrIT_EEv @3647
    _ZN4inet13SharingTagSet16findTagForUpdateINS_17PacketProtocolTagEEEKNS_12IntrusivePtrIT_EEv @3648
    _ZN4inet13SharingTagSet16findTagForUpdateINS_18NetworkProtocolIndEEEKNS_12IntrusivePtrIT_EEv @3649
    _ZN4inet13SharingTagSet16findTagForUpdateINS_19DispatchProtocolReqEEEKNS_12IntrusivePtrIT_EEv @3650
    _ZN4inet13SharingTagSet6addTagI14TftControlInfoEEKNS_12IntrusivePtrIT_EEv @3651
    _ZN4inet13SharingTagSet6addTagI15FlowControlInfoEEKNS_12IntrusivePtrIT_EEv @3652
    _ZN4inet13SharingTagSet6addTagINS_19DispatchProtocolReqEEEKNS_12IntrusivePtrIT_EEv @3653
    _ZN4inet13SharingTagSet9removeTagI14TftControlInfoEEKNS_12IntrusivePtrIT_EEv @3654
    _ZN4inet13SharingTagSet9removeTagI15FlowControlInfoEEKNS_12IntrusivePtrIT_EEv @3655
    _ZN4inet13SharingTagSet9removeTagI15UserControlInfoEEKNS_12IntrusivePtrIT_EEv @3656
    _ZN4inet13SharingTagSetD2Ev @3657
    _ZN4inet16getModuleFromParINS_15IInterfaceTableEEEPT_RN7omnetpp4cParEPKNS4_7cModuleE @3658
    _ZN4inet16getModuleFromParINS_17IIpv4RoutingTableEEEPT_RN7omnetpp4cParEPKNS4_7cModuleE @3659
    _ZN4inet17MemoryInputStream10readStringB5cxx11Ev @3660
    _ZN4inet17MemoryInputStream8readByteEv @3661
    _ZN4inet17MemoryInputStream9readBytesERSt6vectorIhSaIhEENS_5units5valueIxNS5_8intscaleINS5_5units1bELi1ELi8EEEEE @3662
    _ZN4inet18MemoryOutputStream11writeStringENSt7__cxx1112basic_stringIcSt11char_traitsIcESaIcEEE @3663
    _ZN4inet18MemoryOutputStream9writeByteEh @3664
    _ZN4inet18MovingMobilityBase22getCurrentAccelerationEv @3665
    _ZN4inet18MovingMobilityBase29getCurrentAngularAccelerationEv @3666
    _ZN4inet19SharingRegionTagSet14addTagIfAbsentI15FlowControlInfoEEKNS_12IntrusivePtrIT_EENS_5units5valueIxNS7_5units1bEEESB_ @3667
    _ZN4inet19SharingRegionTagSet14addTagIfAbsentINS_15CreationTimeTagEEEKNS_12IntrusivePtrIT_EENS_5units5valueIxNS7_5units1bEEESB_ @3668
    _ZN4inet19SharingRegionTagSet21getRegionTagForUpdateEi @3669
    _ZN4inet19SharingRegionTagSet6addTagINS_15CreationTimeTagEEEKNS_12IntrusivePtrIT_EENS_5units5valueIxNS7_5units1bEEESB_ @3670
    _ZN4inet20LifecycleUnsupported20handleOperationStageEPNS_18LifecycleOperationEPNS_13IDoneCallbackE @3671
    _ZN4inet22SafetyPacketSerializerD0Ev @3672
    _ZN4inet26DeviceAppMessageSerializerD0Ev @3673
    _ZN4inet28HttpRequestMessageSerializerD0Ev @3674
    _ZN4inet28WarningAlertPacketSerializerD0Ev @3675
    _ZN4inet29HttpResponseMessageSerializerD0Ev @3676
    _ZN4inet5Chunk10doInsertAtERKNS_12IntrusivePtrIKS0_EENS_5units5valueIxNS6_5units1bEEE @3677
    _ZN4inet5Chunk10doRemoveAtENS_5units5valueIxNS1_5units1bEEES5_ @3678
    _ZN4inet5Chunk13getRegionTagsEv @3679
    _ZN4inet5Chunk13markImmutableEv @3680
    _ZN4inet5Chunk13markIncorrectEv @3681
    _ZN4inet5Chunk14doInsertAtBackERKNS_12IntrusivePtrIKS0_EE @3682
    _ZN4inet5Chunk14doRemoveAtBackENS_5units5valueIxNS1_5units1bEEE @3683
    _ZN4inet5Chunk14markIncompleteEv @3684
    _ZN4inet5Chunk15doInsertAtFrontERKNS_12IntrusivePtrIKS0_EE @3685
    _ZN4inet5Chunk15doRemoveAtFrontENS_5units5valueIxNS1_5units1bEEE @3686
    _ZN4inet5Chunk25markImproperlyRepresentedEv @3687
    _ZN4inet5units5valueIxNS0_8intscaleINS0_5units1bELi1ELi8EEEEC2IxS4_EERKNS1_IT_T0_EE @3688
    _ZN4inet5units6values11unit2stringIxNS0_8intscaleINS0_5units1bELi1ELi8EEEEENSt7__cxx1112basic_stringIcSt11char_traitsIcESaIcEEERKNS0_5valueIT_T0_EE @3689
    _ZN4inet5unitslsIxEERSoS2_RKNS0_5valueIT_NS0_5units1bEEE @3690
    _ZN4inet6Packet10popAtFrontI10GtpUserMsgEEKNS_12IntrusivePtrIKT_EENS_5units5valueIxNS8_5units1bEEEi @3691
    _ZN4inet6Packet10popAtFrontI10LtePdcpPduEEKNS_12IntrusivePtrIKT_EENS_5units5valueIxNS8_5units1bEEEi @3692
    _ZN4inet6Packet10popAtFrontI10VoipPacketEEKNS_12IntrusivePtrIKT_EENS_5units5valueIxNS8_5units1bEEEi @3693
    _ZN4inet6Packet10popAtFrontI11AlertPacketEEKNS_12IntrusivePtrIKT_EENS_5units5valueIxNS8_5units1bEEEi @3694
    _ZN4inet6Packet10popAtFrontI11BurstPacketEEKNS_12IntrusivePtrIKT_EENS_5units5valueIxNS8_5units1bEEEi @3695
    _ZN4inet6Packet10popAtFrontI11LteRlcAmPduEEKNS_12IntrusivePtrIKT_EENS_5units5valueIxNS8_5units1bEEEi @3696
    _ZN4inet6Packet10popAtFrontI11LteRlcAmSduEEKNS_12IntrusivePtrIKT_EENS_5units5valueIxNS8_5units1bEEEi @3697
    _ZN4inet6Packet10popAtFrontI12LteX2MessageEEKNS_12IntrusivePtrIKT_EENS_5units5valueIxNS8_5units1bEEEi @3698
    _ZN4inet6Packet10popAtFrontI16LteRlcPduNewDataEEKNS_12IntrusivePtrIKT_EENS_5units5valueIxNS8_5units1bEEEi @3699
    _ZN4inet6Packet10popAtFrontI17MultihopD2DPacketEEKNS_12IntrusivePtrIKT_EENS_5units5valueIxNS8_5units1bEEEi @3700
    _ZN4inet6Packet10popAtFrontI18LteSchedulingGrantEEKNS_12IntrusivePtrIKT_EENS_5units5valueIxNS8_5units1bEEEi @3701
    _ZN4inet6Packet10popAtFrontI24MecRequestResponsePacketEEKNS_12IntrusivePtrIKT_EENS_5units5valueIxNS8_5units1bEEEi @3702
    _ZN4inet6Packet10popAtFrontI38RealTimeVideoStreamingAppSegmentHeaderEEKNS_12IntrusivePtrIKT_EENS_5units5valueIxNS8_5units1bEEEi @3703
    _ZN4inet6Packet10popAtFrontI9CbrPacketEEKNS_12IntrusivePtrIKT_EENS_5units5valueIxNS8_5units1bEEEi @3704
    _ZN4inet6Packet10popAtFrontI9LteRlcSduEEKNS_12IntrusivePtrIKT_EENS_5units5valueIxNS8_5units1bEEEi @3705
    _ZN4inet6Packet10popAtFrontINS_5ChunkEEEKNS_12IntrusivePtrIKT_EENS_5units5valueIxNS8_5units1bEEEi @3706
    _ZN4inet6Packet13removeAtFrontI10LteRohcPduEEKNS_12IntrusivePtrIT_EENS_5units5valueIxNS7_5units1bEEEi @3707
    _ZN4inet6Packet13removeAtFrontI11LteRlcAmPduEEKNS_12IntrusivePtrIT_EENS_5units5valueIxNS7_5units1bEEEi @3708
    _ZN4inet6Packet13removeAtFrontI12LteX2MessageEEKNS_12IntrusivePtrIT_EENS_5units5valueIxNS7_5units1bEEEi @3709
    _ZN4inet6Packet13removeAtFrontI14LteFeedbackPktEEKNS_12IntrusivePtrIT_EENS_5units5valueIxNS7_5units1bEEEi @3710
    _ZN4inet6Packet13removeAtFrontI15LteRlcUmDataPduEEKNS_12IntrusivePtrIT_EENS_5units5valueIxNS7_5units1bEEEi @3711
    _ZN4inet6Packet13removeAtFrontI24RequestResponseAppPacketEEKNS_12IntrusivePtrIT_EENS_5units5valueIxNS7_5units1bEEEi @3712
    _ZN4inet6Packet13removeAtFrontI25D2DModeSwitchNotificationEEKNS_12IntrusivePtrIT_EENS_5units5valueIxNS7_5units1bEEEi @3713
    _ZN4inet6Packet13removeAtFrontI25X2DualConnectivityDataMsgEEKNS_12IntrusivePtrIT_EENS_5units5valueIxNS7_5units1bEEEi @3714
    _ZN4inet6Packet13removeAtFrontI31RealTimeVideoStreamingAppPacketEEKNS_12IntrusivePtrIT_EENS_5units5valueIxNS7_5units1bEEEi @3715
    _ZN4inet6Packet13removeAtFrontI36StartRealTimeVideoStreamingAppPacketEEKNS_12IntrusivePtrIT_EENS_5units5valueIxNS7_5units1bEEEi @3716
    _ZN4inet6Packet13removeAtFrontI42StopSessionRealTimeVideoStreamingAppPacketEEKNS_12IntrusivePtrIT_EENS_5units5valueIxNS7_5units1bEEEi @3717
    _ZN4inet6Packet13removeAtFrontI43StartSessionRealTimeVideoStreamingAppPacketEEKNS_12IntrusivePtrIT_EENS_5units5valueIxNS7_5units1bEEEi @3718
    _ZN4inet6Packet13removeAtFrontI6LteRacEEKNS_12IntrusivePtrIT_EENS_5units5valueIxNS7_5units1bEEEi @3719
    _ZN4inet6Packet13removeAtFrontI9LteMacPduEEKNS_12IntrusivePtrIT_EENS_5units5valueIxNS7_5units1bEEEi @3720
    _ZN4inet6Packet13removeAtFrontI9X2CompMsgEEKNS_12IntrusivePtrIT_EENS_5units5valueIxNS7_5units1bEEEi @3721
    _ZN4inet6Packet13removeAtFrontINS_10Ipv4HeaderEEEKNS_12IntrusivePtrIT_EENS_5units5valueIxNS7_5units1bEEEi @3722
    _ZN4inet6Packet13removeAtFrontINS_3tcp9TcpHeaderEEEKNS_12IntrusivePtrIT_EENS_5units5valueIxNS8_5units1bEEEi @3723
    _ZN4inet6Packet13removeAtFrontINS_9UdpHeaderEEEKNS_12IntrusivePtrIT_EENS_5units5valueIxNS7_5units1bEEEi @3724
    _ZN4inet6PacketD2Ev @3725
    _ZN4inet9SocketMapD2Ev @3726
    _ZN4inetlsERSoRKNS_9L3AddressE @3727
    _ZN52StopSessionRealTimeVideoStreamingAppPacketDescriptorC1Ev @3728
    _ZN52StopSessionRealTimeVideoStreamingAppPacketDescriptorC2Ev @3729
    _ZN52StopSessionRealTimeVideoStreamingAppPacketDescriptorD0Ev @3730
    _ZN52StopSessionRealTimeVideoStreamingAppPacketDescriptorD1Ev @3731
    _ZN52StopSessionRealTimeVideoStreamingAppPacketDescriptorD2Ev @3732
    _ZN53StartSessionRealTimeVideoStreamingAppPacketDescriptorC1Ev @3733
    _ZN53StartSessionRealTimeVideoStreamingAppPacketDescriptorC2Ev @3734
    _ZN53StartSessionRealTimeVideoStreamingAppPacketDescriptorD0Ev @3735
    _ZN53StartSessionRealTimeVideoStreamingAppPacketDescriptorD1Ev @3736
    _ZN53StartSessionRealTimeVideoStreamingAppPacketDescriptorD2Ev @3737
    _ZN5LtePf14commitScheduleEv @3738
    _ZN5LtePf15prepareScheduleEv @3739
    _ZN5LtePfD0Ev @3740
    _ZN5LtePfD2Ev @3741
    _ZN5NRAmc16getMcsElemPerCqiEt9Direction @3742
    _ZN5NRAmc17computeBitsOnNRbsEttj9Directiond @3743
    _ZN5NRAmc17computeBitsOnNRbsEtttj9Directiond @3744
    _ZN5NRAmc17getSymbolsPerSlotEd9Direction @3745
    _ZN5NRAmc18computeCodewordTbsEP12UserTxParamst9Directionj @3746
    _ZN5NRAmc19computeTbsFromNinfoEdd @3747
    _ZN5NRAmc19getResourceElementsEjj @3748
    _ZN5NRAmc26computeBitsPerRbBackgroundEt9Directiond @3749
    _ZN5NRAmc27getResourceElementsPerBlockEj @3750
    _ZN5NRAmcC1EP9LteMacEnbP6BinderP8CellInfoi @3751
    _ZN5NRAmcC2EP9LteMacEnbP6BinderP8CellInfoi @3752
    _ZN5NRAmcD0Ev @3753
    _ZN5NRAmcD1Ev @3754
    _ZN5NRAmcD2Ev @3755
    _ZN6Binder10addExtCellEP7ExtCelld @3756
    _ZN6Binder10getD2DModeEtt @3757
    _ZN6Binder10getNextHopEt @3758
    _ZN6Binder10getOmnetIdEt @3759
    _ZN6Binder10initializeEi @3760
    _ZN6Binder11computeSinrEjidN4inet5CoordES1_9Directionb @3761
    _ZN6Binder12getMacNodeIdEN4inet11Ipv4AddressE @3762
    _ZN6Binder12registerNameEtPKc @3763
    _ZN6Binder12registerNodeEPN7omnetpp7cModuleE11RanNodeTypetb @3764
    _ZN6Binder12setMacNodeIdEN4inet11Ipv4AddressEt @3765
    _ZN6Binder13getMasterNodeEt @3766
    _ZN6Binder13getSlotFormatEd @3767
    _ZN6Binder13handleMessageEPN7omnetpp8cMessageE @3768
    _ZN6Binder14getDeployedUesEt9Direction @3769
    _ZN6Binder14getExtCellListEd @3770
    _ZN6Binder14registerModuleEtPN7omnetpp7cModuleE @3771
    _ZN6Binder14registerX2PortEti @3772
    _ZN6Binder14unregisterNodeEt @3773
    _ZN6Binder15getCarrierUeSetEd @3774
    _ZN6Binder15moveUeCollectorEttt @3775
    _ZN6Binder15registerCarrierEdjjbjj @3776
    _ZN6Binder15registerMecHostERKN4inet9L3AddressE @3777
    _ZN6Binder15registerNextHopEtt @3778
    _ZN6Binder16getD2DCapabilityEtt @3779
    _ZN6Binder16getD2DPeeringMapEv @3780
    _ZN6Binder16getNodeIdListEndEv @3781
    _ZN6Binder16getX2PeerAddressEtt @3782
    _ZN6Binder17computeSlotFormatEbjj @3783
    _ZN6Binder17getUpfFromMecHostERKN4inet9L3AddressE @3784
    _ZN6Binder17registerCarrierUeEdjt @3785
    _ZN6Binder17unregisterNextHopEtt @3786
    _ZN6Binder18checkD2DCapabilityEtt @3787
    _ZN6Binder18getNodeIdListBeginEv @3788
    _ZN6Binder18isInMulticastGroupEti @3789
    _ZN6Binder18registerMasterNodeEtt @3790
    _ZN6Binder18updateUeInfoCellIdEtt @3791
    _ZN6Binder19getMacFromMacNodeIdEt @3792
    _ZN6Binder20addHandoverTriggeredEttt @3793
    _ZN6Binder20getHandoverTriggeredEt @3794
    _ZN6Binder20getModuleByMacNodeIdEt @3795
    _ZN6Binder20getUeNumerologyIndexEt @3796
    _ZN6Binder20getUlTransmissionMapEd20UlTransmissionMapTTI @3797
    _ZN6Binder22addBackgroundSchedulerEP19BackgroundSchedulerd @3798
    _ZN6Binder22addUeCollectorToEnodeBEtP16UeStatsCollectort @3799
    _ZN6Binder22addUeHandoverTriggeredEt @3800
    _ZN6Binder22getBaseStationTypeByIdEt @3801
    _ZN6Binder22hasUeHandoverTriggeredEt @3802
    _ZN6Binder22registerMulticastGroupEti @3803
    _ZN6Binder22storeUlTransmissionMapEd6RemoteRSt3mapIS0_S1_ItjSt4lessItESaISt4pairIKtjEEES2_IS0_ESaIS4_IKS0_S8_EEEttP10LtePhyBase9Direction @3804
    _ZN6Binder22storeUlTransmissionMapEd6RemoteRSt3mapIS0_S1_ItjSt4lessItESaISt4pairIKtjEEES2_IS0_ESaIS4_IKS0_S8_EEEttP20TrafficGeneratorBase9Direction @3805
    _ZN6Binder23getMacNodeIdFromOmnetIdEj @3806
    _ZN6Binder23getUeMaxNumerologyIndexEt @3807
    _ZN6Binder23isFrequencyReuseEnabledEt @3808
    _ZN6Binder23removeHandoverTriggeredEt @3809
    _ZN6Binder24getModuleNameByMacNodeIdEt @3810
    _ZN6Binder24updateMutualInterferenceEjj9Direction @3811
    _ZN6Binder25registerMecHostUpfAddressERKN4inet9L3AddressES3_ @3812
    _ZN6Binder25removeUeHandoverTriggeredEt @3813
    _ZN6Binder26addD2DMulticastTransmitterEt @3814
    _ZN6Binder27computeRequestedRbsFromSinrEdd @3815
    _ZN6Binder27getD2DMulticastTransmittersEv @3816
    _ZN6Binder30initAndResetUlTransmissionInfoEv @3817
    _ZN6Binder31computeInterferencePercentageDlEddj @3818
    _ZN6Binder31computeInterferencePercentageUlEdddd @3819
    _ZN6Binder31getLastUpdateUlTransmissionInfoEv @3820
    _ZN6Binder33computeAverageCqiForBackgroundUesEv @3821
    _ZN6Binder6finishEv @3822
    _ZN6Binder7meanCqiESt6vectorItSaItEEt9Direction @3823
    _ZN6Binder9getX2PortEt @3824
    _ZN6Binder9isMecHostERKN4inet9L3AddressE @3825
    _ZN6Binder9medianCqiESt6vectorItSaItEEt9Direction @3826
    _ZN6BinderC2Ev @3827
    _ZN6BinderD0Ev @3828
    _ZN6BinderD2Ev @3829
    _ZN6IP2Nic10initializeEi @3830
    _ZN6IP2Nic10markPacketEN4inet12IntrusivePtrI15FlowControlInfoEE @3831
    _ZN6IP2Nic11setNodeTypeENSt7__cxx1112basic_stringIcSt11char_traitsIcESaIcEEE @3832
    _ZN6IP2Nic13handleMessageEPN7omnetpp8cMessageE @3833
    _ZN6IP2Nic14prepareForIpv4EPN4inet6PacketEPKNS0_8ProtocolE @3834
    _ZN6IP2Nic16printControlInfoEPN4inet6PacketE @3835
    _ZN6IP2Nic17registerInterfaceEv @3836
    _ZN6IP2Nic17triggerHandoverUeEtb @3837
    _ZN6IP2Nic21triggerHandoverSourceEtt @3838
    _ZN6IP2Nic21triggerHandoverTargetEtt @3839
    _ZN6IP2Nic23registerMulticastGroupsEv @3840
    _ZN6IP2Nic24signalHandoverCompleteUeEb @3841
    _ZN6IP2Nic28sendTunneledPacketOnHandoverEPN4inet6PacketEt @3842
    _ZN6IP2Nic28signalHandoverCompleteSourceEtt @3843
    _ZN6IP2Nic28signalHandoverCompleteTargetEtt @3844
    _ZN6IP2Nic31receiveTunneledPacketOnHandoverEPN4inet6PacketEt @3845
    _ZN6IP2Nic6finishEv @3846
    _ZN6IP2Nic6toIpBsEPN4inet6PacketE @3847
    _ZN6IP2Nic6toIpUeEPN4inet6PacketE @3848
    _ZN6IP2Nic8fromIpBsEPN4inet6PacketE @3849
    _ZN6IP2Nic8fromIpUeEPN4inet6PacketE @3850
    _ZN6IP2Nic9toStackBsEPN4inet6PacketE @3851
    _ZN6IP2Nic9toStackUeEPN4inet6PacketE @3852
    _ZN6IP2NicD0Ev @3853
    _ZN6IP2NicD1Ev @3854
    _ZN6IP2NicD2Ev @3855
    _ZN6L2Meas9addEnodeBEPN7omnetpp7cModuleE @3856
    _ZN6L2Meas9addEnodeBERSt3setIPN7omnetpp7cModuleESt4lessIS3_ESaIS3_EE @3857
    _ZN6L2MeasC1ERSt3setIPN7omnetpp7cModuleESt4lessIS3_ESaIS3_EE @3858
    _ZN6L2MeasC1Ev @3859
    _ZN6L2MeasC2ERSt3setIPN7omnetpp7cModuleESt4lessIS3_ESaIS3_EE @3860
    _ZN6L2MeasC2Ev @3861
    _ZN6L2MeasD0Ev @3862
    _ZN6L2MeasD1Ev @3863
    _ZN6L2MeasD2Ev @3864
    _ZN6LteAmc10attachUserEt9Direction @3865
    _ZN6LteAmc10detachUserEt9Direction @3866
    _ZN6LteAmc10getHistoryE9Directiond @3867
    _ZN6LteAmc10getNextHopEt @3868
    _ZN6LteAmc10initializeEv @3869
    _ZN6LteAmc10rescaleMcsEd9Direction @3870
    _ZN6LteAmc11getAmcPilotERKN7omnetpp4cParE @3871
    _ZN6LteAmc11getFeedbackEt6Remote6TxMode9Directiond @3872
    _ZN6LteAmc11getTxParamsEt9Directiond @3873
    _ZN6LteAmc11readTbsVectEtj9Direction @3874
    _ZN6LteAmc11setTxParamsEt9DirectionR12UserTxParamsd @3875
    _ZN6LteAmc12pushFeedbackEt9Direction11LteFeedbackd @3876
    _ZN6LteAmc12setPilotModeE21PilotComputationModes @3877
    _ZN6LteAmc13existTxParamsEt9Directiond @3878
    _ZN6LteAmc13getItbsPerCqiEt9Direction @3879
    _ZN6LteAmc13printTxParamsE9Directiond @3880
    _ZN6LteAmc14getFeedbackD2DEt6Remote6TxModetd @3881
    _ZN6LteAmc14writeCqiWeightEd @3882
    _ZN6LteAmc14writePmiWeightEd @3883
    _ZN6LteAmc15computeTxParamsEt9Directiond @3884
    _ZN6LteAmc15printParametersEv @3885
    _ZN6LteAmc15pushFeedbackD2DEt11LteFeedbacktd @3886
    _ZN6LteAmc16readMultiBandCqiEt9Directiond @3887
    _ZN6LteAmc17computeBitsOnNRbsEttj9Directiond @3888
    _ZN6LteAmc17computeBitsOnNRbsEtttj9Directiond @3889
    _ZN6LteAmc17printMuMimoMatrixEPKc @3890
    _ZN6LteAmc18computeBytesOnNRbsEttj9Directiond @3891
    _ZN6LteAmc18computeBytesOnNRbsEtttj9Directiond @3892
    _ZN6LteAmc19getPilotUsableBandsEtRPSt6vectorItSaItEE @3893
    _ZN6LteAmc19setPilotUsableBandsEtSt6vectorItSaItEE @3894
    _ZN6LteAmc20computeBitsOnNRbs_MBEttj9Directiond @3895
    _ZN6LteAmc20computeMuMimoPairingEt9Direction @3896
    _ZN6LteAmc21computeBytesOnNRbs_MBEttj9Directiond @3897
    _ZN6LteAmc26computeBitsPerRbBackgroundEt9Directiond @3898
    _ZN6LteAmc6testUeEt9Direction @3899
    _ZN6LteAmc9blockGainEtjj9Direction @3900
    _ZN6LteAmc9bytesGainEtjj9Direction @3901
    _ZN6LteAmc9printFbhbE9Direction @3902
    _ZN6LteAmc9readWbCqiERKSt6vectorItSaItEE @3903
    _ZN6LteAmc9readWbPmiERKSt6vectorItSaItEE @3904
    _ZN6LteAmcC1EP9LteMacEnbP6BinderP8CellInfoi @3905
    _ZN6LteAmcC2EP9LteMacEnbP6BinderP8CellInfoi @3906
    _ZN6LteAmcD0Ev @3907
    _ZN6LteAmcD1Ev @3908
    _ZN6LteAmcD2Ev @3909
    _ZN6LteAmcaSERKS_ @3910
    _ZN6LteDrr14commitScheduleEv @3911
    _ZN6LteDrr15prepareScheduleEv @3912
    _ZN6LteDrr20updateSchedulingInfoEv @3913
    _ZN6LteDrr22notifyActiveConnectionEj @3914
    _ZN6LteDrrD0Ev @3915
    _ZN6LteDrrD2Ev @3916
    _ZN6LteRac10setSuccessEb @3917
    _ZN6LteRac12parsimUnpackEPN7omnetpp11cCommBufferE @3918
    _ZN6LteRac4copyERKS_ @3919
    _ZN6LteRacC1ERKS_ @3920
    _ZN6LteRacC1Ev @3921
    _ZN6LteRacC2ERKS_ @3922
    _ZN6LteRacC2Ev @3923
    _ZN6LteRacD0Ev @3924
    _ZN6LteRacD1Ev @3925
    _ZN6LteRacD2Ev @3926
    _ZN6LteRacaSERKS_ @3927
    _ZN6MacBsr12parsimUnpackEPN7omnetpp11cCommBufferE @3928
    _ZN6MacBsr4copyERKS_ @3929
    _ZN6MacBsr7setSizeEi @3930
    _ZN6MacBsrC1ERKS_ @3931
    _ZN6MacBsrC1Ev @3932
    _ZN6MacBsrC2ERKS_ @3933
    _ZN6MacBsrC2Ev @3934
    _ZN6MacBsrD0Ev @3935
    _ZN6MacBsrD1Ev @3936
    _ZN6MacBsrD2Ev @3937
    _ZN6MacBsraSERKS_ @3938
    _ZN6TTimer4stopEv @3939
    _ZN6TTimer5startEN7omnetpp7SimTimeE @3940
    _ZN6TTimer6handleEv @3941
    _ZN6TTimerD0Ev @3942
    _ZN7ExtCell10initializeEi @3943
    _ZN7ExtCell13handleMessageEPN7omnetpp8cMessageE @3944
    _ZN7ExtCell15resetBandStatusEv @3945
    _ZN7ExtCell16updateBandStatusEv @3946
    _ZN7ExtCell18setBandUtilizationEd @3947
    _ZN7ExtCellD0Ev @3948
    _ZN7ExtCellD2Ev @3949
    _ZN7GtpUser10initializeEi @3950
    _ZN7GtpUser13handleFromUdpEPN4inet6PacketE @3951
    _ZN7GtpUser13handleMessageEPN7omnetpp8cMessageE @3952
    _ZN7GtpUser15detectInterfaceEv @3953
    _ZN7GtpUser15selectOwnerTypeEPKc @3954
    _ZN7GtpUser27handleFromTrafficFlowFilterEPN4inet6PacketE @3955
    _ZN7GtpUserD0Ev @3956
    _ZN7GtpUserD2Ev @3957
    _ZN7NRMacUe10macPduMakeEj @3958
    _ZN7NRMacUe13macSduRequestEv @3959
    _ZN7NRMacUe17handleSelfMessageEv @3960
    _ZN7NRMacUeC1Ev @3961
    _ZN7NRMacUeC2Ev @3962
    _ZN7NRMacUeD0Ev @3963
    _ZN7NRMacUeD1Ev @3964
    _ZN7NRMacUeD2Ev @3965
    _ZN7NRPhyUe10doHandoverEv @3966
    _ZN7NRPhyUe10initializeEi @3967
    _ZN7NRPhyUe13forceHandoverEtd @3968
    _ZN7NRPhyUe14handleAirFrameEPN7omnetpp8cMessageE @3969
    _ZN7NRPhyUe15triggerHandoverEv @3970
    _ZN7NRPhyUe16deleteOldBuffersEt @3971
    _ZN7NRPhyUeC1Ev @3972
    _ZN7NRPhyUeC2Ev @3973
    _ZN7NRPhyUeD0Ev @3974
    _ZN7NRPhyUeD1Ev @3975
    _ZN7NRPhyUeD2Ev @3976
    _ZN7omnetpp10cComponent10initializeEi @3977
    _ZN7omnetpp10cComponent12recordScalarEPKcNS_7SimTimeES2_ @3978
    _ZN7omnetpp10cComponent4emitEiPKNS_7cObjectEPS1_ @3979
    _ZN7omnetpp10cComponent4emitEicPNS_7cObjectE @3980
    _ZN7omnetpp10cComponent4emitEiePNS_7cObjectE @3981
    _ZN7omnetpp10cComponent4emitEifPNS_7cObjectE @3982
    _ZN7omnetpp10cComponent4emitEihPNS_7cObjectE @3983
    _ZN7omnetpp10cComponent4emitEiiPNS_7cObjectE @3984
    _ZN7omnetpp10cComponent4emitEijPNS_7cObjectE @3985
    _ZN7omnetpp10cComponent4emitEilPNS_7cObjectE @3986
    _ZN7omnetpp10cComponent4emitEimPNS_7cObjectE @3987
    _ZN7omnetpp10cComponent4emitEisPNS_7cObjectE @3988
    _ZN7omnetpp10cComponent4emitEitPNS_7cObjectE @3989
    _ZN7omnetpp10cComponent4emitEixPNS_7cObjectE @3990
    _ZN7omnetpp10cComponent4emitEiyPNS_7cObjectE @3991
    _ZN7omnetpp10cComponent9setRNGMapEsPi @3992
    _ZN7omnetpp10cExceptionD2Ev @3993
    _ZN7omnetpp10cIListener12subscribedToEPNS_10cComponentEi @3994
    _ZN7omnetpp10cIListener16unsubscribedFromEPNS_10cComponentEi @3995
    _ZN7omnetpp10cIListener6finishEPNS_10cComponentEi @3996
    _ZN7omnetpp10cWatchBase6assignEPKc @3997
    _ZN7omnetpp10fromAnyPtrI10DataPacketEEPT_NS_7any_ptrE @3998
    _ZN7omnetpp10fromAnyPtrI10GtpUserMsgEEPT_NS_7any_ptrE @3999
    _ZN7omnetpp10fromAnyPtrI10LtePdcpPduEEPT_NS_7any_ptrE @4000
    _ZN7omnetpp10fromAnyPtrI10LteRohcPduEEPT_NS_7any_ptrE @4001
    _ZN7omnetpp10fromAnyPtrI10VoipPacketEEPT_NS_7any_ptrE @4002
    _ZN7omnetpp10fromAnyPtrI11AlertPacketEEPT_NS_7any_ptrE @4003
    _ZN7omnetpp10fromAnyPtrI11BurstPacketEEPT_NS_7any_ptrE @4004
    _ZN7omnetpp10fromAnyPtrI11LteRlcAmSduEEPT_NS_7any_ptrE @4005
    _ZN7omnetpp10fromAnyPtrI11MEAppPacketEEPT_NS_7any_ptrE @4006
    _ZN7omnetpp10fromAnyPtrI12SafetyPacketEEPT_NS_7any_ptrE @4007
    _ZN7omnetpp10fromAnyPtrI13UALCMPMessageEEPT_NS_7any_ptrE @4008
    _ZN7omnetpp10fromAnyPtrI14LteControlInfoEEPT_NS_7any_ptrE @4009
    _ZN7omnetpp10fromAnyPtrI14LteMacPdu_BaseEEPT_NS_7any_ptrE @4010
    _ZN7omnetpp10fromAnyPtrI14MigrationTimerEEPT_NS_7any_ptrE @4011
    _ZN7omnetpp10fromAnyPtrI14TMultiTimerMsgEEPT_NS_7any_ptrE @4012
    _ZN7omnetpp10fromAnyPtrI14TftControlInfoEEPT_NS_7any_ptrE @4013
    _ZN7omnetpp10fromAnyPtrI15DangerAppPacketEEPT_NS_7any_ptrE @4014
    _ZN7omnetpp10fromAnyPtrI15DeviceAppPacketEEPT_NS_7any_ptrE @4015
    _ZN7omnetpp10fromAnyPtrI15FlowControlInfoEEPT_NS_7any_ptrE @4016
    _ZN7omnetpp10fromAnyPtrI15HttpBaseMessageEEPT_NS_7any_ptrE @4017
    _ZN7omnetpp10fromAnyPtrI15LocationUpdatesEEPT_NS_7any_ptrE @4018
    _ZN7omnetpp10fromAnyPtrI15LteHarqFeedbackEEPT_NS_7any_ptrE @4019
    _ZN7omnetpp10fromAnyPtrI15RtxNotificationEEPT_NS_7any_ptrE @4020
    _ZN7omnetpp10fromAnyPtrI15SafetyAppPacketEEPT_NS_7any_ptrE @4021
    _ZN7omnetpp10fromAnyPtrI15TrickleTimerMsgEEPT_NS_7any_ptrE @4022
    _ZN7omnetpp10fromAnyPtrI16CreateAppMessageEEPT_NS_7any_ptrE @4023
    _ZN7omnetpp10fromAnyPtrI16CreateContextAppEEPT_NS_7any_ptrE @4024
    _ZN7omnetpp10fromAnyPtrI16DeleteAppMessageEEPT_NS_7any_ptrE @4025
    _ZN7omnetpp10fromAnyPtrI16LteAirFrame_BaseEEPT_NS_7any_ptrE @4026
    _ZN7omnetpp10fromAnyPtrI16LteRlcAmPdu_BaseEEPT_NS_7any_ptrE @4027
    _ZN7omnetpp10fromAnyPtrI16LteRlcPduNewDataEEPT_NS_7any_ptrE @4028
    _ZN7omnetpp10fromAnyPtrI16SafetyStopPacketEEPT_NS_7any_ptrE @4029
    _ZN7omnetpp10fromAnyPtrI16WarningAppPacketEEPT_NS_7any_ptrE @4030
    _ZN7omnetpp10fromAnyPtrI16X2ControlInfoTagEEPT_NS_7any_ptrE @4031
    _ZN7omnetpp10fromAnyPtrI17DangerAlertPacketEEPT_NS_7any_ptrE @4032
    _ZN7omnetpp10fromAnyPtrI17LteX2Message_BaseEEPT_NS_7any_ptrE @4033
    _ZN7omnetpp10fromAnyPtrI17MultihopD2DPacketEEPT_NS_7any_ptrE @4034
    _ZN7omnetpp10fromAnyPtrI17SafetyStartPacketEEPT_NS_7any_ptrE @4035
    _ZN7omnetpp10fromAnyPtrI17WarningStopPacketEEPT_NS_7any_ptrE @4036
    _ZN7omnetpp10fromAnyPtrI18LteRlcDataPdu_BaseEEPT_NS_7any_ptrE @4037
    _ZN7omnetpp10fromAnyPtrI18WarningAlertPacketEEPT_NS_7any_ptrE @4038
    _ZN7omnetpp10fromAnyPtrI18WarningStartPacketEEPT_NS_7any_ptrE @4039
    _ZN7omnetpp10fromAnyPtrI19CreateContextAppAckEEPT_NS_7any_ptrE @4040
    _ZN7omnetpp10fromAnyPtrI19DeviceAppStopPacketEEPT_NS_7any_ptrE @4041
    _ZN7omnetpp10fromAnyPtrI19LteFeedbackPkt_BaseEEPT_NS_7any_ptrE @4042
    _ZN7omnetpp10fromAnyPtrI20ActiveUeNotificationEEPT_NS_7any_ptrE @4043
    _ZN7omnetpp10fromAnyPtrI20DeviceAppStartPacketEEPT_NS_7any_ptrE @4044
    _ZN7omnetpp10fromAnyPtrI20HttpRequestMessage_mEEPT_NS_7any_ptrE @4045
    _ZN7omnetpp10fromAnyPtrI20UserControlInfo_BaseEEPT_NS_7any_ptrE @4046
    _ZN7omnetpp10fromAnyPtrI21HttpResponseMessage_mEEPT_NS_7any_ptrE @4047
    _ZN7omnetpp10fromAnyPtrI21LteHarqFeedbackMirrorEEPT_NS_7any_ptrE @4048
    _ZN7omnetpp10fromAnyPtrI21LteMacSduRequest_BaseEEPT_NS_7any_ptrE @4049
    _ZN7omnetpp10fromAnyPtrI21ProcessingTimeMessageEEPT_NS_7any_ptrE @4050
    _ZN7omnetpp10fromAnyPtrI22DeviceAppStopAckPacketEEPT_NS_7any_ptrE @4051
    _ZN7omnetpp10fromAnyPtrI22MECOrchestratorMessageEEPT_NS_7any_ptrE @4052
    _ZN7omnetpp10fromAnyPtrI23DeleteContextAppMessageEEPT_NS_7any_ptrE @4053
    _ZN7omnetpp10fromAnyPtrI23DeviceAppStartAckPacketEEPT_NS_7any_ptrE @4054
    _ZN7omnetpp10fromAnyPtrI23LteSchedulingGrant_BaseEEPT_NS_7any_ptrE @4055
    _ZN7omnetpp10fromAnyPtrI23TerminateVehicleMessageEEPT_NS_7any_ptrE @4056
    _ZN7omnetpp10fromAnyPtrI24MecRequestResponsePacketEEPT_NS_7any_ptrE @4057
    _ZN7omnetpp10fromAnyPtrI24RequestResponseAppPacketEEPT_NS_7any_ptrE @4058
    _ZN7omnetpp10fromAnyPtrI25D2DModeSwitchNotificationEEPT_NS_7any_ptrE @4059
    _ZN7omnetpp10fromAnyPtrI26DeleteContextAppAckMessageEEPT_NS_7any_ptrE @4060
    _ZN7omnetpp10fromAnyPtrI26TerminateContextAppMessageEEPT_NS_7any_ptrE @4061
    _ZN7omnetpp10fromAnyPtrI28AperiodicSubscriptionTimer_mEEPT_NS_7any_ptrE @4062
    _ZN7omnetpp10fromAnyPtrI31RealTimeVideoStreamingAppPacketEEPT_NS_7any_ptrE @4063
    _ZN7omnetpp10fromAnyPtrI36StartRealTimeVideoStreamingAppPacketEEPT_NS_7any_ptrE @4064
    _ZN7omnetpp10fromAnyPtrI38RealTimeVideoStreamingAppSegmentHeaderEEPT_NS_7any_ptrE @4065
    _ZN7omnetpp10fromAnyPtrI42StopSessionRealTimeVideoStreamingAppPacketEEPT_NS_7any_ptrE @4066
    _ZN7omnetpp10fromAnyPtrI43StartSessionRealTimeVideoStreamingAppPacketEEPT_NS_7any_ptrE @4067
    _ZN7omnetpp10fromAnyPtrI6LteRacEEPT_NS_7any_ptrE @4068
    _ZN7omnetpp10fromAnyPtrI8AirFrameEEPT_NS_7any_ptrE @4069
    _ZN7omnetpp10fromAnyPtrI9CbrPacketEEPT_NS_7any_ptrE @4070
    _ZN7omnetpp10fromAnyPtrI9LteRlcPduEEPT_NS_7any_ptrE @4071
    _ZN7omnetpp10fromAnyPtrI9LteRlcSduEEPT_NS_7any_ptrE @4072
    _ZN7omnetpp10fromAnyPtrI9M1MessageEEPT_NS_7any_ptrE @4073
    _ZN7omnetpp10fromAnyPtrI9MECPacketEEPT_NS_7any_ptrE @4074
    _ZN7omnetpp10fromAnyPtrI9TTimerMsgEEPT_NS_7any_ptrE @4075
    _ZN7omnetpp10fromAnyPtrI9VoDPacketEEPT_NS_7any_ptrE @4076
    _ZN7omnetpp10opp_stringpLEPKc @4077
    _ZN7omnetpp12cNamedObject14getNamePoolingEv @4078
    _ZN7omnetpp13cSimpleModule10sendDirectEPNS_8cMessageENS_7SimTimeES3_PNS_5cGateE @4079
    _ZN7omnetpp13cSimpleModule10sendDirectEPNS_8cMessageENS_7SimTimeES3_PNS_7cModuleEPKci @4080
    _ZN7omnetpp13cSimpleModule10sendDirectEPNS_8cMessageENS_7SimTimeES3_PNS_7cModuleEi @4081
    _ZN7omnetpp13cSimpleModule10sendDirectEPNS_8cMessageEPNS_5cGateE @4082
    _ZN7omnetpp13cSimpleModule10sendDirectEPNS_8cMessageEPNS_7cModuleEPKci @4083
    _ZN7omnetpp13cSimpleModule10sendDirectEPNS_8cMessageEPNS_7cModuleEi @4084
    _ZN7omnetpp13cSimpleModule10sendDirectEPNS_8cMessageERKNS_11SendOptionsEPNS_7cModuleEPKci @4085
    _ZN7omnetpp13cSimpleModule10sendDirectEPNS_8cMessageERKNS_11SendOptionsEPNS_7cModuleEi @4086
    _ZN7omnetpp13cSimpleModule11sendDelayedEPNS_8cMessageENS_7SimTimeEPKci @4087
    _ZN7omnetpp13cSimpleModule11sendDelayedEPNS_8cMessageENS_7SimTimeEPNS_5cGateE @4088
    _ZN7omnetpp13cSimpleModule11sendDelayedEPNS_8cMessageENS_7SimTimeEi @4089
    _ZN7omnetpp13cSimpleModule4sendEPNS_8cMessageEPKci @4090
    _ZN7omnetpp13cSimpleModule4sendEPNS_8cMessageEPNS_5cGateE @4091
    _ZN7omnetpp13cSimpleModule4sendEPNS_8cMessageERKNS_11SendOptionsEPKci @4092
    _ZN7omnetpp13cSimpleModule4sendEPNS_8cMessageERKNS_11SendOptionsEi @4093
    _ZN7omnetpp13cSimpleModule4sendEPNS_8cMessageEi @4094
    _ZN7omnetpp14cStdMapWatcherIjP10UmRxEntitySt4lessIjEEC2EPKcRSt3mapIjS2_S4_SaISt4pairIKjS2_EEE @4095
    _ZN7omnetpp14cStdMapWatcherIjP10UmRxEntitySt4lessIjEED0Ev @4096
    _ZN7omnetpp14cStdMapWatcherIjP10UmRxEntitySt4lessIjEED2Ev @4097
    _ZN7omnetpp14cStdMapWatcherIjP10UmTxEntitySt4lessIjEEC2EPKcRSt3mapIjS2_S4_SaISt4pairIKjS2_EEE @4098
    _ZN7omnetpp14cStdMapWatcherIjP10UmTxEntitySt4lessIjEED0Ev @4099
    _ZN7omnetpp14cStdMapWatcherIjP10UmTxEntitySt4lessIjEED2Ev @4100
    _ZN7omnetpp14cStdMapWatcherIjP11LteMacQueueSt4lessIjEEC2EPKcRSt3mapIjS2_S4_SaISt4pairIKjS2_EEE @4101
    _ZN7omnetpp14cStdMapWatcherIjP11LteMacQueueSt4lessIjEED0Ev @4102
    _ZN7omnetpp14cStdMapWatcherIjP11LteMacQueueSt4lessIjEED2Ev @4103
    _ZN7omnetpp14cStdMapWatcherIjP12LteMacBufferSt4lessIjEEC2EPKcRSt3mapIjS2_S4_SaISt4pairIKjS2_EEE @4104
    _ZN7omnetpp14cStdMapWatcherIjP12LteMacBufferSt4lessIjEED0Ev @4105
    _ZN7omnetpp14cStdMapWatcherIjP12LteMacBufferSt4lessIjEED2Ev @4106
    _ZN7omnetpp14check_and_castIP10DataPacketNS_7cObjectEEET_PT0_ @4107
    _ZN7omnetpp14check_and_castIP10GtpUserMsgNS_7cObjectEEET_PT0_ @4108
    _ZN7omnetpp14check_and_castIP10LteMacBaseNS_7cModuleEEET_PT0_ @4109
    _ZN7omnetpp14check_and_castIP10LtePdcpPduNS_7cObjectEEET_PT0_ @4110
    _ZN7omnetpp14check_and_castIP10LtePhyBaseNS_7cModuleEEET_PT0_ @4111
    _ZN7omnetpp14check_and_castIP10LteRohcPduNS_7cObjectEEET_PT0_ @4112
    _ZN7omnetpp14check_and_castIP10UmRxEntityNS_7cModuleEEET_PT0_ @4113
    _ZN7omnetpp14check_and_castIP10UmTxEntityNS_7cModuleEEET_PT0_ @4114
    _ZN7omnetpp14check_and_castIP10VoipPacketNS_7cObjectEEET_PT0_ @4115
    _ZN7omnetpp14check_and_castIP11AlertPacketNS_7cObjectEEET_PT0_ @4116
    _ZN7omnetpp14check_and_castIP11AmcPilotD2D8AmcPilotEET_PT0_ @4117
    _ZN7omnetpp14check_and_castIP11BurstPacketNS_7cObjectEEET_PT0_ @4118
    _ZN7omnetpp14check_and_castIP11LteMacUeD2D10LteMacBaseEET_PT0_ @4119
    _ZN7omnetpp14check_and_castIP11LteRlcAmSduNS_7cObjectEEET_PT0_ @4120
    _ZN7omnetpp14check_and_castIP11MEAppPacketNS_7cObjectEEET_PT0_ @4121
    _ZN7omnetpp14check_and_castIP11X2AppClientNS_7cModuleEEET_PT0_ @4122
    _ZN7omnetpp14check_and_castIP12LteMacEnbD2D10LteMacBaseEET_PT0_ @4123
    _ZN7omnetpp14check_and_castIP12LteMacEnbD2D9LteMacEnbEET_PT0_ @4124
    _ZN7omnetpp14check_and_castIP12LteMacEnbD2DNS_7cModuleEEET_PT0_ @4125
    _ZN7omnetpp14check_and_castIP12NRPdcpRrcEnbNS_7cModuleEEET_PT0_ @4126
    _ZN7omnetpp14check_and_castIP12SafetyPacketNS_7cObjectEEET_PT0_ @4127
    _ZN7omnetpp14check_and_castIP13LtePdcpRrcEnbNS_7cModuleEEET_PT0_ @4128
    _ZN7omnetpp14check_and_castIP13SocketManagerNS_7cModuleEEET_PT0_ @4129
    _ZN7omnetpp14check_and_castIP13UALCMPMessageNS_7cObjectEEET_PT0_ @4130
    _ZN7omnetpp14check_and_castIP13UALCMPMessageNS_8cMessageEEET_PT0_ @4131
    _ZN7omnetpp14check_and_castIP14EventGeneratorNS_7cModuleEEET_PT0_ @4132
    _ZN7omnetpp14check_and_castIP14LteControlInfoNS_7cObjectEEET_PT0_ @4133
    _ZN7omnetpp14check_and_castIP14LteMacPdu_BaseNS_7cObjectEEET_PT0_ @4134
    _ZN7omnetpp14check_and_castIP14LtePdcpRrcBaseNS_7cModuleEEET_PT0_ @4135
    _ZN7omnetpp14check_and_castIP14MigrationTimerNS_7cObjectEEET_PT0_ @4136
    _ZN7omnetpp14check_and_castIP14NRRxPdcpEntityNS_7cModuleEEET_PT0_ @4137
    _ZN7omnetpp14check_and_castIP14NRTxPdcpEntityNS_7cModuleEEET_PT0_ @4138
    _ZN7omnetpp14check_and_castIP14TMultiTimerMsg9TTimerMsgEET_PT0_ @4139
    _ZN7omnetpp14check_and_castIP14TMultiTimerMsgNS_7cObjectEEET_PT0_ @4140
    _ZN7omnetpp14check_and_castIP14TftControlInfoNS_7cObjectEEET_PT0_ @4141
    _ZN7omnetpp14check_and_castIP15DangerAppPacketNS_7cObjectEEET_PT0_ @4142
    _ZN7omnetpp14check_and_castIP15DeviceAppPacketNS_7cObjectEEET_PT0_ @4143
    _ZN7omnetpp14check_and_castIP15FlowControlInfoNS_7cObjectEEET_PT0_ @4144
    _ZN7omnetpp14check_and_castIP15HttpBaseMessageNS_7cObjectEEET_PT0_ @4145
    _ZN7omnetpp14check_and_castIP15LocationServiceNS_7cModuleEEET_PT0_ @4146
    _ZN7omnetpp14check_and_castIP15LocationUpdatesNS_7cObjectEEET_PT0_ @4147
    _ZN7omnetpp14check_and_castIP15LteChannelModelNS_7cModuleEEET_PT0_ @4148
    _ZN7omnetpp14check_and_castIP15LteHarqFeedbackNS_7cObjectEEET_PT0_ @4149
    _ZN7omnetpp14check_and_castIP15LteRxPdcpEntityNS_7cModuleEEET_PT0_ @4150
    _ZN7omnetpp14check_and_castIP15LteTxPdcpEntityNS_7cModuleEEET_PT0_ @4151
    _ZN7omnetpp14check_and_castIP15MecOrchestratorNS_7cModuleEEET_PT0_ @4152
    _ZN7omnetpp14check_and_castIP15RtxNotificationNS_7cObjectEEET_PT0_ @4153
    _ZN7omnetpp14check_and_castIP15SafetyAppPacketNS_7cObjectEEET_PT0_ @4154
    _ZN7omnetpp14check_and_castIP15ServiceRegistryNS_7cModuleEEET_PT0_ @4155
    _ZN7omnetpp14check_and_castIP15TrickleTimerMsgNS_7cObjectEEET_PT0_ @4156
    _ZN7omnetpp14check_and_castIP15TrickleTimerMsgNS_8cMessageEEET_PT0_ @4157
    _ZN7omnetpp14check_and_castIP15UserControlInfoNS_7cObjectEEET_PT0_ @4158
    _ZN7omnetpp14check_and_castIP16ComponentCarrierNS_7cModuleEEET_PT0_ @4159
    _ZN7omnetpp14check_and_castIP16CreateAppMessageNS_7cObjectEEET_PT0_ @4160
    _ZN7omnetpp14check_and_castIP16CreateContextAppNS_7cObjectEEET_PT0_ @4161
    _ZN7omnetpp14check_and_castIP16DeleteAppMessageNS_7cObjectEEET_PT0_ @4162
    _ZN7omnetpp14check_and_castIP16LteAirFrame_BaseNS_7cObjectEEET_PT0_ @4163
    _ZN7omnetpp14check_and_castIP16LteRlcAmPdu_BaseNS_7cObjectEEET_PT0_ @4164
    _ZN7omnetpp14check_and_castIP16LteRlcPduNewDataNS_7cObjectEEET_PT0_ @4165
    _ZN7omnetpp14check_and_castIP16SafetyStopPacketNS_7cObjectEEET_PT0_ @4166
    _ZN7omnetpp14check_and_castIP16UeStatsCollectorNS_7cModuleEEET_PT0_ @4167
    _ZN7omnetpp14check_and_castIP16WarningAppPacketNS_7cObjectEEET_PT0_ @4168
    _ZN7omnetpp14check_and_castIP16X2ControlInfoTagNS_7cObjectEEET_PT0_ @4169
    _ZN7omnetpp14check_and_castIP17DangerAlertPacketNS_7cObjectEEET_PT0_ @4170
    _ZN7omnetpp14check_and_castIP17LteX2Message_BaseNS_7cObjectEEET_PT0_ @4171
    _ZN7omnetpp14check_and_castIP17MultihopD2DPacketNS_7cObjectEEET_PT0_ @4172
    _ZN7omnetpp14check_and_castIP17SafetyStartPacketNS_7cObjectEEET_PT0_ @4173
    _ZN7omnetpp14check_and_castIP17WarningStopPacketNS_7cObjectEEET_PT0_ @4174
    _ZN7omnetpp14check_and_castIP18HttpRequestMessage15HttpBaseMessageEET_PT0_ @4175
    _ZN7omnetpp14check_and_castIP18HttpRequestMessageNS_7cObjectEEET_PT0_ @4176
    _ZN7omnetpp14check_and_castIP18LteHandoverManagerNS_7cModuleEEET_PT0_ @4177
    _ZN7omnetpp14check_and_castIP18LteRlcDataPdu_BaseNS_7cObjectEEET_PT0_ @4178
    _ZN7omnetpp14check_and_castIP18MecPlatformManagerNS_7cModuleEEET_PT0_ @4179
    _ZN7omnetpp14check_and_castIP18WarningAlertPacketNS_7cObjectEEET_PT0_ @4180
    _ZN7omnetpp14check_and_castIP18WarningStartPacketNS_7cObjectEEET_PT0_ @4181
    _ZN7omnetpp14check_and_castIP19BackgroundSchedulerNS_7cModuleEEET_PT0_ @4182
    _ZN7omnetpp14check_and_castIP19CreateContextAppAckNS_7cObjectEEET_PT0_ @4183
    _ZN7omnetpp14check_and_castIP19DeviceAppStopPacketNS_7cObjectEEET_PT0_ @4184
    _ZN7omnetpp14check_and_castIP19LteFeedbackPkt_BaseNS_7cObjectEEET_PT0_ @4185
    _ZN7omnetpp14check_and_castIP19PacketFlowManagerUeNS_7cModuleEEET_PT0_ @4186
    _ZN7omnetpp14check_and_castIP19X2HandoverCommandIE20X2InformationElementEET_PT0_ @4187
    _ZN7omnetpp14check_and_castIP20ActiveUeNotificationNS_7cObjectEEET_PT0_ @4188
    _ZN7omnetpp14check_and_castIP20D2DModeSelectionBaseNS_7cModuleEEET_PT0_ @4189
    _ZN7omnetpp14check_and_castIP20DeviceAppStartPacketNS_7cObjectEEET_PT0_ @4190
    _ZN7omnetpp14check_and_castIP20HttpRequestMessage_mNS_7cObjectEEET_PT0_ @4191
    _ZN7omnetpp14check_and_castIP20PacketFlowManagerEnbNS_7cModuleEEET_PT0_ @4192
    _ZN7omnetpp14check_and_castIP20TrafficGeneratorBaseNS_7cModuleEEET_PT0_ @4193
    _ZN7omnetpp14check_and_castIP20UserControlInfo_BaseNS_7cObjectEEET_PT0_ @4194
    _ZN7omnetpp14check_and_castIP20X2HandoverControlMsg12LteX2MessageEET_PT0_ @4195
    _ZN7omnetpp14check_and_castIP21HttpResponseMessage_mNS_7cObjectEEET_PT0_ @4196
    _ZN7omnetpp14check_and_castIP21LteHarqFeedbackMirrorNS_7cObjectEEET_PT0_ @4197
    _ZN7omnetpp14check_and_castIP21LteMacSduRequest_BaseNS_7cObjectEEET_PT0_ @4198
    _ZN7omnetpp14check_and_castIP21MultihopD2DStatisticsNS_7cModuleEEET_PT0_ @4199
    _ZN7omnetpp14check_and_castIP21PacketFlowManagerBaseNS_7cModuleEEET_PT0_ @4200
    _ZN7omnetpp14check_and_castIP21ProcessingTimeMessageNS_7cObjectEEET_PT0_ @4201
    _ZN7omnetpp14check_and_castIP22DeviceAppStopAckPacketNS_7cObjectEEET_PT0_ @4202
    _ZN7omnetpp14check_and_castIP22LteDlFeedbackGeneratorNS_7cModuleEEET_PT0_ @4203
    _ZN7omnetpp14check_and_castIP22MECOrchestratorMessageNS_7cObjectEEET_PT0_ @4204
    _ZN7omnetpp14check_and_castIP22TrafficLightControllerNS_7cModuleEEET_PT0_ @4205
    _ZN7omnetpp14check_and_castIP23CircleNotificationEvent17EventNotificationEET_PT0_ @4206
    _ZN7omnetpp14check_and_castIP23CreateContextAppMessage13UALCMPMessageEET_PT0_ @4207
    _ZN7omnetpp14check_and_castIP23DeleteContextAppMessage13UALCMPMessageEET_PT0_ @4208
    _ZN7omnetpp14check_and_castIP23DeleteContextAppMessageNS_7cObjectEEET_PT0_ @4209
    _ZN7omnetpp14check_and_castIP23DeviceAppStartAckPacketNS_7cObjectEEET_PT0_ @4210
    _ZN7omnetpp14check_and_castIP23DualConnectivityManagerNS_7cModuleEEET_PT0_ @4211
    _ZN7omnetpp14check_and_castIP23LteSchedulingGrant_BaseNS_7cObjectEEET_PT0_ @4212
    _ZN7omnetpp14check_and_castIP23TerminateVehicleMessageNS_7cObjectEEET_PT0_ @4213
    _ZN7omnetpp14check_and_castIP24BackgroundTrafficManagerNS_7cModuleEEET_PT0_ @4214
    _ZN7omnetpp14check_and_castIP24MecRequestResponsePacketNS_7cObjectEEET_PT0_ @4215
    _ZN7omnetpp14check_and_castIP24RequestResponseAppPacketNS_7cObjectEEET_PT0_ @4216
    _ZN7omnetpp14check_and_castIP25BaseStationStatsCollectorNS_7cModuleEEET_PT0_ @4217
    _ZN7omnetpp14check_and_castIP25D2DModeSwitchNotificationNS_7cObjectEEET_PT0_ @4218
    _ZN7omnetpp14check_and_castIP25X2CompProportionalReplyIE20X2InformationElementEET_PT0_ @4219
    _ZN7omnetpp14check_and_castIP26BackgroundCellChannelModelNS_7cModuleEEET_PT0_ @4220
    _ZN7omnetpp14check_and_castIP26CreateContextAppAckMessage13UALCMPMessageEET_PT0_ @4221
    _ZN7omnetpp14check_and_castIP26DeleteContextAppAckMessage13UALCMPMessageEET_PT0_ @4222
    _ZN7omnetpp14check_and_castIP26DeleteContextAppAckMessageNS_7cObjectEEET_PT0_ @4223
    _ZN7omnetpp14check_and_castIP26TerminateContextAppMessage13UALCMPMessageEET_PT0_ @4224
    _ZN7omnetpp14check_and_castIP26TerminateContextAppMessageNS_7cObjectEEET_PT0_ @4225
    _ZN7omnetpp14check_and_castIP27X2CompProportionalRequestIE20X2InformationElementEET_PT0_ @4226
    _ZN7omnetpp14check_and_castIP28AperiodicSubscriptionTimer_mNS_7cObjectEEET_PT0_ @4227
    _ZN7omnetpp14check_and_castIP31RealTimeVideoStreamingAppPacketNS_7cObjectEEET_PT0_ @4228
    _ZN7omnetpp14check_and_castIP35VirtualisationInfrastructureManagerNS_7cModuleEEET_PT0_ @4229
    _ZN7omnetpp14check_and_castIP36StartRealTimeVideoStreamingAppPacketNS_7cObjectEEET_PT0_ @4230
    _ZN7omnetpp14check_and_castIP38RealTimeVideoStreamingAppSegmentHeaderNS_7cObjectEEET_PT0_ @4231
    _ZN7omnetpp14check_and_castIP42StopSessionRealTimeVideoStreamingAppPacketNS_7cObjectEEET_PT0_ @4232
    _ZN7omnetpp14check_and_castIP43StartSessionRealTimeVideoStreamingAppPacketNS_7cObjectEEET_PT0_ @4233
    _ZN7omnetpp14check_and_castIP6BinderNS_7cModuleEEET_PT0_ @4234
    _ZN7omnetpp14check_and_castIP6IP2NicNS_7cModuleEEET_PT0_ @4235
    _ZN7omnetpp14check_and_castIP6LteRacNS_7cObjectEEET_PT0_ @4236
    _ZN7omnetpp14check_and_castIP6MacBsr17MacControlElementEET_PT0_ @4237
    _ZN7omnetpp14check_and_castIP7NRPhyUeNS_7cModuleEEET_PT0_ @4238
    _ZN7omnetpp14check_and_castIP8AirFrameNS_7cObjectEEET_PT0_ @4239
    _ZN7omnetpp14check_and_castIP8CellInfoNS_7cModuleEEET_PT0_ @4240
    _ZN7omnetpp14check_and_castIP8LteMacUeNS_7cModuleEEET_PT0_ @4241
    _ZN7omnetpp14check_and_castIP8LtePhyUe10LtePhyBaseEET_PT0_ @4242
    _ZN7omnetpp14check_and_castIP8LtePhyUeNS_7cModuleEEET_PT0_ @4243
    _ZN7omnetpp14check_and_castIP8LteRlcAmNS_7cModuleEEET_PT0_ @4244
    _ZN7omnetpp14check_and_castIP8LteRlcUmNS_7cModuleEEET_PT0_ @4245
    _ZN7omnetpp14check_and_castIP9AmRxQueueNS_7cModuleEEET_PT0_ @4246
    _ZN7omnetpp14check_and_castIP9AmTxQueueNS_7cModuleEEET_PT0_ @4247
    _ZN7omnetpp14check_and_castIP9CbrPacketNS_7cObjectEEET_PT0_ @4248
    _ZN7omnetpp14check_and_castIP9LteMacEnb10LteMacBaseEET_PT0_ @4249
    _ZN7omnetpp14check_and_castIP9LteMacEnbNS_7cModuleEEET_PT0_ @4250
    _ZN7omnetpp14check_and_castIP9LtePhyEnbNS_7cModuleEEET_PT0_ @4251
    _ZN7omnetpp14check_and_castIP9LteRlcPduNS_7cObjectEEET_PT0_ @4252
    _ZN7omnetpp14check_and_castIP9LteRlcSduNS_7cObjectEEET_PT0_ @4253
    _ZN7omnetpp14check_and_castIP9M1MessageNS_7cObjectEEET_PT0_ @4254
    _ZN7omnetpp14check_and_castIP9MECPacketNS_7cObjectEEET_PT0_ @4255
    _ZN7omnetpp14check_and_castIP9TTimerMsgNS_7cObjectEEET_PT0_ @4256
    _ZN7omnetpp14check_and_castIP9TTimerMsgNS_8cMessageEEET_PT0_ @4257
    _ZN7omnetpp14check_and_castIP9VoDPacketNS_7cObjectEEET_PT0_ @4258
    _ZN7omnetpp14check_and_castIPN4inet14InterfaceTableENS_7cModuleEEET_PT0_ @4259
    _ZN7omnetpp14check_and_castIPN4inet18StationaryMobilityENS_7cModuleEEET_PT0_ @4260
    _ZN7omnetpp14check_and_castIPN4inet23Ipv4NetworkConfiguratorENS_7cModuleEEET_PT0_ @4261
    _ZN7omnetpp14check_and_castIPN4inet6PacketENS_7cObjectEEET_PT0_ @4262
    _ZN7omnetpp14check_and_castIPN4inet6PacketENS_7cPacketEEET_PT0_ @4263
    _ZN7omnetpp14check_and_castIPN4inet6PacketENS_8cMessageEEET_PT0_ @4264
    _ZN7omnetpp14check_and_castIPN4inet9IMobilityENS_7cModuleEEET_PT0_ @4265
    _ZN7omnetpp14check_and_castIPN4inet9IMobilityENS_7cObjectEEET_PT0_ @4266
    _ZN7omnetpp14check_and_castIPN4inet9TcpSocketENS1_7ISocketEEET_PT0_ @4267
    _ZN7omnetpp14check_and_castIPNS_13cSimpleModuleENS_7cModuleEEET_PT0_ @4268
    _ZN7omnetpp14check_and_castIPNS_7cPacketENS_7cObjectEEET_PT0_ @4269
    _ZN7omnetpp14check_and_castIPNS_7cPacketENS_8cMessageEEET_PT0_ @4270
    _ZN7omnetpp16checked_int_castIhxEET_T0_PKNS_7cObjectEPKc @4271
    _ZN7omnetpp16checked_int_castIhxEET_T0_PKc @4272
    _ZN7omnetpp16checked_int_castIixEET_T0_PKNS_7cObjectEPKc @4273
    _ZN7omnetpp16checked_int_castIixEET_T0_PKc @4274
    _ZN7omnetpp16checked_int_castIjxEET_T0_PKNS_7cObjectEPKc @4275
    _ZN7omnetpp16checked_int_castIjxEET_T0_PKc @4276
    _ZN7omnetpp16checked_int_castIlxEET_T0_PKc @4277
    _ZN7omnetpp16checked_int_castImxEET_T0_PKc @4278
    _ZN7omnetpp16checked_int_castItxEET_T0_PKNS_7cObjectEPKc @4279
    _ZN7omnetpp16checked_int_castItxEET_T0_PKc @4280
    _ZN7omnetpp21cGenericReadonlyWatchI11RanNodeTypeED0Ev @4281
    _ZN7omnetpp21cGenericReadonlyWatchI12FeedbackTypeED0Ev @4282
    _ZN7omnetpp21cGenericReadonlyWatchI16RbAllocationTypeED0Ev @4283
    _ZN7omnetpp21cGenericReadonlyWatchI6TxModeED0Ev @4284
    _ZN7omnetpp21cGenericReadonlyWatchIN4inet5units5valueIxNS2_8intscaleINS2_5units1bELi1ELi8EEEEEED0Ev @4285
    _ZN7omnetpp21cGenericReadonlyWatchINS_7SimTimeEED0Ev @4286
    _ZN7omnetpp22check_and_cast_failureIP10DataPacketNS_7cObjectEEEvPT0_T_ @4287
    _ZN7omnetpp22check_and_cast_failureIP10GtpUserMsgNS_7cObjectEEEvPT0_T_ @4288
    _ZN7omnetpp22check_and_cast_failureIP10LteMacBaseNS_7cModuleEEEvPT0_T_ @4289
    _ZN7omnetpp22check_and_cast_failureIP10LtePdcpPduNS_7cObjectEEEvPT0_T_ @4290
    _ZN7omnetpp22check_and_cast_failureIP10LtePhyBaseNS_7cModuleEEEvPT0_T_ @4291
    _ZN7omnetpp22check_and_cast_failureIP10LteRohcPduNS_7cObjectEEEvPT0_T_ @4292
    _ZN7omnetpp22check_and_cast_failureIP10UmRxEntityNS_7cModuleEEEvPT0_T_ @4293
    _ZN7omnetpp22check_and_cast_failureIP10UmTxEntityNS_7cModuleEEEvPT0_T_ @4294
    _ZN7omnetpp22check_and_cast_failureIP10VoipPacketNS_7cObjectEEEvPT0_T_ @4295
    _ZN7omnetpp22check_and_cast_failureIP11AlertPacketNS_7cObjectEEEvPT0_T_ @4296
    _ZN7omnetpp22check_and_cast_failureIP11AmcPilotD2D8AmcPilotEEvPT0_T_ @4297
    _ZN7omnetpp22check_and_cast_failureIP11BurstPacketNS_7cObjectEEEvPT0_T_ @4298
    _ZN7omnetpp22check_and_cast_failureIP11LteAirFrameNS_8cMessageEEEvPT0_T_ @4299
    _ZN7omnetpp22check_and_cast_failureIP11LteMacUeD2D10LteMacBaseEEvPT0_T_ @4300
    _ZN7omnetpp22check_and_cast_failureIP11LteRlcAmSduNS_7cObjectEEEvPT0_T_ @4301
    _ZN7omnetpp22check_and_cast_failureIP11MEAppPacketNS_7cObjectEEEvPT0_T_ @4302
    _ZN7omnetpp22check_and_cast_failureIP11X2AppClientNS_7cModuleEEEvPT0_T_ @4303
    _ZN7omnetpp22check_and_cast_failureIP12LteMacEnbD2D10LteMacBaseEEvPT0_T_ @4304
    _ZN7omnetpp22check_and_cast_failureIP12LteMacEnbD2D9LteMacEnbEEvPT0_T_ @4305
    _ZN7omnetpp22check_and_cast_failureIP12LteMacEnbD2DNS_7cModuleEEEvPT0_T_ @4306
    _ZN7omnetpp22check_and_cast_failureIP12NRPdcpRrcEnbNS_7cModuleEEEvPT0_T_ @4307
    _ZN7omnetpp22check_and_cast_failureIP12SafetyPacketNS_7cObjectEEEvPT0_T_ @4308
    _ZN7omnetpp22check_and_cast_failureIP13LtePdcpRrcEnbNS_7cModuleEEEvPT0_T_ @4309
    _ZN7omnetpp22check_and_cast_failureIP13SocketManagerNS_7cModuleEEEvPT0_T_ @4310
    _ZN7omnetpp22check_and_cast_failureIP13UALCMPMessageNS_7cObjectEEEvPT0_T_ @4311
    _ZN7omnetpp22check_and_cast_failureIP13UALCMPMessageNS_8cMessageEEEvPT0_T_ @4312
    _ZN7omnetpp22check_and_cast_failureIP14EventGeneratorNS_7cModuleEEEvPT0_T_ @4313
    _ZN7omnetpp22check_and_cast_failureIP14LteControlInfoNS_7cObjectEEEvPT0_T_ @4314
    _ZN7omnetpp22check_and_cast_failureIP14LteMacPdu_BaseNS_7cObjectEEEvPT0_T_ @4315
    _ZN7omnetpp22check_and_cast_failureIP14LtePdcpRrcBaseNS_7cModuleEEEvPT0_T_ @4316
    _ZN7omnetpp22check_and_cast_failureIP14MigrationTimerNS_7cObjectEEEvPT0_T_ @4317
    _ZN7omnetpp22check_and_cast_failureIP14MigrationTimerNS_8cMessageEEEvPT0_T_ @4318
    _ZN7omnetpp22check_and_cast_failureIP14NRRxPdcpEntityNS_7cModuleEEEvPT0_T_ @4319
    _ZN7omnetpp22check_and_cast_failureIP14NRTxPdcpEntityNS_7cModuleEEEvPT0_T_ @4320
    _ZN7omnetpp22check_and_cast_failureIP14TMultiTimerMsg9TTimerMsgEEvPT0_T_ @4321
    _ZN7omnetpp22check_and_cast_failureIP14TMultiTimerMsgNS_7cObjectEEEvPT0_T_ @4322
    _ZN7omnetpp22check_and_cast_failureIP14TftControlInfoNS_7cObjectEEEvPT0_T_ @4323
    _ZN7omnetpp22check_and_cast_failureIP15DangerAppPacketNS_7cObjectEEEvPT0_T_ @4324
    _ZN7omnetpp22check_and_cast_failureIP15DeviceAppPacketNS_7cObjectEEEvPT0_T_ @4325
    _ZN7omnetpp22check_and_cast_failureIP15FlowControlInfoNS_7cObjectEEEvPT0_T_ @4326
    _ZN7omnetpp22check_and_cast_failureIP15HttpBaseMessageNS_7cObjectEEEvPT0_T_ @4327
    _ZN7omnetpp22check_and_cast_failureIP15LocationServiceNS_7cModuleEEEvPT0_T_ @4328
    _ZN7omnetpp22check_and_cast_failureIP15LocationUpdatesNS_7cObjectEEEvPT0_T_ @4329
    _ZN7omnetpp22check_and_cast_failureIP15LteChannelModelNS_7cModuleEEEvPT0_T_ @4330
    _ZN7omnetpp22check_and_cast_failureIP15LteHarqFeedbackNS_7cObjectEEEvPT0_T_ @4331
    _ZN7omnetpp22check_and_cast_failureIP15LteRlcUmDataPduN4inet6PacketEEEvPT0_T_ @4332
    _ZN7omnetpp22check_and_cast_failureIP15LteRxPdcpEntityNS_7cModuleEEEvPT0_T_ @4333
    _ZN7omnetpp22check_and_cast_failureIP15LteTxPdcpEntityNS_7cModuleEEEvPT0_T_ @4334
    _ZN7omnetpp22check_and_cast_failureIP15MecOrchestratorNS_7cModuleEEEvPT0_T_ @4335
    _ZN7omnetpp22check_and_cast_failureIP15RtxNotificationNS_7cObjectEEEvPT0_T_ @4336
    _ZN7omnetpp22check_and_cast_failureIP15RtxNotificationNS_8cMessageEEEvPT0_T_ @4337
    _ZN7omnetpp22check_and_cast_failureIP15SafetyAppPacketNS_7cObjectEEEvPT0_T_ @4338
    _ZN7omnetpp22check_and_cast_failureIP15ServiceRegistryNS_7cModuleEEEvPT0_T_ @4339
    _ZN7omnetpp22check_and_cast_failureIP15TrickleTimerMsgNS_7cObjectEEEvPT0_T_ @4340
    _ZN7omnetpp22check_and_cast_failureIP15TrickleTimerMsgNS_8cMessageEEEvPT0_T_ @4341
    _ZN7omnetpp22check_and_cast_failureIP15UserControlInfoNS_7cObjectEEEvPT0_T_ @4342
    _ZN7omnetpp22check_and_cast_failureIP16ComponentCarrierNS_7cModuleEEEvPT0_T_ @4343
    _ZN7omnetpp22check_and_cast_failureIP16CreateAppMessageNS_7cObjectEEEvPT0_T_ @4344
    _ZN7omnetpp22check_and_cast_failureIP16CreateContextAppNS_7cObjectEEEvPT0_T_ @4345
    _ZN7omnetpp22check_and_cast_failureIP16DeleteAppMessageNS_7cObjectEEEvPT0_T_ @4346
    _ZN7omnetpp22check_and_cast_failureIP16LteAirFrame_BaseNS_7cObjectEEEvPT0_T_ @4347
    _ZN7omnetpp22check_and_cast_failureIP16LteRlcAmPdu_BaseNS_7cObjectEEEvPT0_T_ @4348
    _ZN7omnetpp22check_and_cast_failureIP16LteRlcPduNewDataNS_7cObjectEEEvPT0_T_ @4349
    _ZN7omnetpp22check_and_cast_failureIP16SafetyStopPacketNS_7cObjectEEEvPT0_T_ @4350
    _ZN7omnetpp22check_and_cast_failureIP16UeStatsCollectorNS_7cModuleEEEvPT0_T_ @4351
    _ZN7omnetpp22check_and_cast_failureIP16WarningAppPacketNS_7cObjectEEEvPT0_T_ @4352
    _ZN7omnetpp22check_and_cast_failureIP16X2ControlInfoTagNS_7cObjectEEEvPT0_T_ @4353
    _ZN7omnetpp22check_and_cast_failureIP17DangerAlertPacketNS_7cObjectEEEvPT0_T_ @4354
    _ZN7omnetpp22check_and_cast_failureIP17LteX2Message_BaseNS_7cObjectEEEvPT0_T_ @4355
    _ZN7omnetpp22check_and_cast_failureIP17MultihopD2DPacketNS_7cObjectEEEvPT0_T_ @4356
    _ZN7omnetpp22check_and_cast_failureIP17SafetyStartPacketNS_7cObjectEEEvPT0_T_ @4357
    _ZN7omnetpp22check_and_cast_failureIP17WarningStopPacketNS_7cObjectEEEvPT0_T_ @4358
    _ZN7omnetpp22check_and_cast_failureIP18HttpRequestMessage15HttpBaseMessageEEvPT0_T_ @4359
    _ZN7omnetpp22check_and_cast_failureIP18HttpRequestMessageNS_7cObjectEEEvPT0_T_ @4360
    _ZN7omnetpp22check_and_cast_failureIP18LteHandoverManagerNS_7cModuleEEEvPT0_T_ @4361
    _ZN7omnetpp22check_and_cast_failureIP18LteRlcDataPdu_BaseNS_7cObjectEEEvPT0_T_ @4362
    _ZN7omnetpp22check_and_cast_failureIP18MecPlatformManagerNS_7cModuleEEEvPT0_T_ @4363
    _ZN7omnetpp22check_and_cast_failureIP18WarningAlertPacketNS_7cObjectEEEvPT0_T_ @4364
    _ZN7omnetpp22check_and_cast_failureIP18WarningStartPacketNS_7cObjectEEEvPT0_T_ @4365
    _ZN7omnetpp22check_and_cast_failureIP19BackgroundSchedulerNS_7cModuleEEEvPT0_T_ @4366
    _ZN7omnetpp22check_and_cast_failureIP19CreateContextAppAckNS_7cObjectEEEvPT0_T_ @4367
    _ZN7omnetpp22check_and_cast_failureIP19DeviceAppStopPacketNS_7cObjectEEEvPT0_T_ @4368
    _ZN7omnetpp22check_and_cast_failureIP19LteFeedbackPkt_BaseNS_7cObjectEEEvPT0_T_ @4369
    _ZN7omnetpp22check_and_cast_failureIP19LteHarqProcessRxD2D16LteHarqProcessRxEEvPT0_T_ @4370
    _ZN7omnetpp22check_and_cast_failureIP19PacketFlowManagerUeNS_7cModuleEEEvPT0_T_ @4371
    _ZN7omnetpp22check_and_cast_failureIP19X2HandoverCommandIE20X2InformationElementEEvPT0_T_ @4372
    _ZN7omnetpp22check_and_cast_failureIP20ActiveUeNotificationNS_7cObjectEEEvPT0_T_ @4373
    _ZN7omnetpp22check_and_cast_failureIP20ActiveUeNotificationNS_8cMessageEEEvPT0_T_ @4374
    _ZN7omnetpp22check_and_cast_failureIP20D2DModeSelectionBaseNS_7cModuleEEEvPT0_T_ @4375
    _ZN7omnetpp22check_and_cast_failureIP20DeviceAppStartPacketNS_7cObjectEEEvPT0_T_ @4376
    _ZN7omnetpp22check_and_cast_failureIP20HttpRequestMessage_mNS_7cObjectEEEvPT0_T_ @4377
    _ZN7omnetpp22check_and_cast_failureIP20PacketFlowManagerEnbNS_7cModuleEEEvPT0_T_ @4378
    _ZN7omnetpp22check_and_cast_failureIP20TrafficGeneratorBaseNS_7cModuleEEEvPT0_T_ @4379
    _ZN7omnetpp22check_and_cast_failureIP20UserControlInfo_BaseNS_7cObjectEEEvPT0_T_ @4380
    _ZN7omnetpp22check_and_cast_failureIP20X2HandoverControlMsg12LteX2MessageEEvPT0_T_ @4381
    _ZN7omnetpp22check_and_cast_failureIP21HttpResponseMessage_mNS_7cObjectEEEvPT0_T_ @4382
    _ZN7omnetpp22check_and_cast_failureIP21LteHarqFeedbackMirrorNS_7cObjectEEEvPT0_T_ @4383
    _ZN7omnetpp22check_and_cast_failureIP21LteMacSduRequest_BaseNS_7cObjectEEEvPT0_T_ @4384
    _ZN7omnetpp22check_and_cast_failureIP21MultihopD2DStatisticsNS_7cModuleEEEvPT0_T_ @4385
    _ZN7omnetpp22check_and_cast_failureIP21PacketFlowManagerBaseNS_7cModuleEEEvPT0_T_ @4386
    _ZN7omnetpp22check_and_cast_failureIP21ProcessingTimeMessageNS_7cObjectEEEvPT0_T_ @4387
    _ZN7omnetpp22check_and_cast_failureIP21ProcessingTimeMessageNS_8cMessageEEEvPT0_T_ @4388
    _ZN7omnetpp22check_and_cast_failureIP22DeviceAppStopAckPacketNS_7cObjectEEEvPT0_T_ @4389
    _ZN7omnetpp22check_and_cast_failureIP22LteDlFeedbackGeneratorNS_7cModuleEEEvPT0_T_ @4390
    _ZN7omnetpp22check_and_cast_failureIP22MECOrchestratorMessageNS_7cObjectEEEvPT0_T_ @4391
    _ZN7omnetpp22check_and_cast_failureIP22MECOrchestratorMessageNS_8cMessageEEEvPT0_T_ @4392
    _ZN7omnetpp22check_and_cast_failureIP22TrafficLightControllerNS_7cModuleEEEvPT0_T_ @4393
    _ZN7omnetpp22check_and_cast_failureIP23CircleNotificationEvent17EventNotificationEEvPT0_T_ @4394
    _ZN7omnetpp22check_and_cast_failureIP23CreateContextAppMessage13UALCMPMessageEEvPT0_T_ @4395
    _ZN7omnetpp22check_and_cast_failureIP23DeleteContextAppMessage13UALCMPMessageEEvPT0_T_ @4396
    _ZN7omnetpp22check_and_cast_failureIP23DeleteContextAppMessageNS_7cObjectEEEvPT0_T_ @4397
    _ZN7omnetpp22check_and_cast_failureIP23DeviceAppStartAckPacketNS_7cObjectEEEvPT0_T_ @4398
    _ZN7omnetpp22check_and_cast_failureIP23DualConnectivityManagerNS_7cModuleEEEvPT0_T_ @4399
    _ZN7omnetpp22check_and_cast_failureIP23LteSchedulingGrant_BaseNS_7cObjectEEEvPT0_T_ @4400
    _ZN7omnetpp22check_and_cast_failureIP23TerminateVehicleMessageNS_7cObjectEEEvPT0_T_ @4401
    _ZN7omnetpp22check_and_cast_failureIP24BackgroundTrafficManagerNS_7cModuleEEEvPT0_T_ @4402
    _ZN7omnetpp22check_and_cast_failureIP24MecRequestResponsePacketNS_7cObjectEEEvPT0_T_ @4403
    _ZN7omnetpp22check_and_cast_failureIP24RequestResponseAppPacketNS_7cObjectEEEvPT0_T_ @4404
    _ZN7omnetpp22check_and_cast_failureIP25BaseStationStatsCollectorNS_7cModuleEEEvPT0_T_ @4405
    _ZN7omnetpp22check_and_cast_failureIP25D2DModeSwitchNotificationNS_7cObjectEEEvPT0_T_ @4406
    _ZN7omnetpp22check_and_cast_failureIP25X2CompProportionalReplyIE20X2InformationElementEEvPT0_T_ @4407
    _ZN7omnetpp22check_and_cast_failureIP26AperiodicSubscriptionTimerNS_8cMessageEEEvPT0_T_ @4408
    _ZN7omnetpp22check_and_cast_failureIP26BackgroundCellChannelModelNS_7cModuleEEEvPT0_T_ @4409
    _ZN7omnetpp22check_and_cast_failureIP26CreateContextAppAckMessage13UALCMPMessageEEvPT0_T_ @4410
    _ZN7omnetpp22check_and_cast_failureIP26DeleteContextAppAckMessage13UALCMPMessageEEvPT0_T_ @4411
    _ZN7omnetpp22check_and_cast_failureIP26DeleteContextAppAckMessageNS_7cObjectEEEvPT0_T_ @4412
    _ZN7omnetpp22check_and_cast_failureIP26DistanceBasedConflictGraph13ConflictGraphEEvPT0_T_ @4413
    _ZN7omnetpp22check_and_cast_failureIP26TerminateContextAppMessage13UALCMPMessageEEvPT0_T_ @4414
    _ZN7omnetpp22check_and_cast_failureIP26TerminateContextAppMessageNS_7cObjectEEEvPT0_T_ @4415
    _ZN7omnetpp22check_and_cast_failureIP27X2CompProportionalRequestIE20X2InformationElementEEvPT0_T_ @4416
    _ZN7omnetpp22check_and_cast_failureIP28AperiodicSubscriptionTimer_mNS_7cObjectEEEvPT0_T_ @4417
    _ZN7omnetpp22check_and_cast_failureIP31RealTimeVideoStreamingAppPacketNS_7cObjectEEEvPT0_T_ @4418
    _ZN7omnetpp22check_and_cast_failureIP35VirtualisationInfrastructureManagerNS_7cModuleEEEvPT0_T_ @4419
    _ZN7omnetpp22check_and_cast_failureIP36StartRealTimeVideoStreamingAppPacketNS_7cObjectEEEvPT0_T_ @4420
    _ZN7omnetpp22check_and_cast_failureIP38RealTimeVideoStreamingAppSegmentHeaderNS_7cObjectEEEvPT0_T_ @4421
    _ZN7omnetpp22check_and_cast_failureIP42StopSessionRealTimeVideoStreamingAppPacketNS_7cObjectEEEvPT0_T_ @4422
    _ZN7omnetpp22check_and_cast_failureIP43StartSessionRealTimeVideoStreamingAppPacketNS_7cObjectEEEvPT0_T_ @4423
    _ZN7omnetpp22check_and_cast_failureIP6BinderNS_7cModuleEEEvPT0_T_ @4424
    _ZN7omnetpp22check_and_cast_failureIP6IP2NicNS_7cModuleEEEvPT0_T_ @4425
    _ZN7omnetpp22check_and_cast_failureIP6LteRacNS_7cObjectEEEvPT0_T_ @4426
    _ZN7omnetpp22check_and_cast_failureIP6MacBsr17MacControlElementEEvPT0_T_ @4427
    _ZN7omnetpp22check_and_cast_failureIP7NRPhyUeNS_7cModuleEEEvPT0_T_ @4428
    _ZN7omnetpp22check_and_cast_failureIP8AirFrameNS_7cObjectEEEvPT0_T_ @4429
    _ZN7omnetpp22check_and_cast_failureIP8CellInfoNS_7cModuleEEEvPT0_T_ @4430
    _ZN7omnetpp22check_and_cast_failureIP8LteMacUeNS_7cModuleEEEvPT0_T_ @4431
    _ZN7omnetpp22check_and_cast_failureIP8LtePhyUe10LtePhyBaseEEvPT0_T_ @4432
    _ZN7omnetpp22check_and_cast_failureIP8LtePhyUeNS_7cModuleEEEvPT0_T_ @4433
    _ZN7omnetpp22check_and_cast_failureIP8LteRlcAmNS_7cModuleEEEvPT0_T_ @4434
    _ZN7omnetpp22check_and_cast_failureIP8LteRlcUmNS_7cModuleEEEvPT0_T_ @4435
    _ZN7omnetpp22check_and_cast_failureIP9AmRxQueueNS_7cModuleEEEvPT0_T_ @4436
    _ZN7omnetpp22check_and_cast_failureIP9AmTxQueueNS_7cModuleEEEvPT0_T_ @4437
    _ZN7omnetpp22check_and_cast_failureIP9CbrPacketNS_7cObjectEEEvPT0_T_ @4438
    _ZN7omnetpp22check_and_cast_failureIP9LteMacEnb10LteMacBaseEEvPT0_T_ @4439
    _ZN7omnetpp22check_and_cast_failureIP9LteMacEnbNS_7cModuleEEEvPT0_T_ @4440
    _ZN7omnetpp22check_and_cast_failureIP9LtePhyEnbNS_7cModuleEEEvPT0_T_ @4441
    _ZN7omnetpp22check_and_cast_failureIP9LteRlcPduNS_7cObjectEEEvPT0_T_ @4442
    _ZN7omnetpp22check_and_cast_failureIP9LteRlcSduNS_7cObjectEEEvPT0_T_ @4443
    _ZN7omnetpp22check_and_cast_failureIP9M1MessageNS_7cObjectEEEvPT0_T_ @4444
    _ZN7omnetpp22check_and_cast_failureIP9MECPacketNS_7cObjectEEEvPT0_T_ @4445
    _ZN7omnetpp22check_and_cast_failureIP9TTimerMsgNS_7cObjectEEEvPT0_T_ @4446
    _ZN7omnetpp22check_and_cast_failureIP9TTimerMsgNS_8cMessageEEEvPT0_T_ @4447
    _ZN7omnetpp22check_and_cast_failureIP9VoDPacketNS_7cObjectEEEvPT0_T_ @4448
    _ZN7omnetpp22check_and_cast_failureIPN4inet14InterfaceTableENS_7cModuleEEEvPT0_T_ @4449
    _ZN7omnetpp22check_and_cast_failureIPN4inet18StationaryMobilityENS_7cModuleEEEvPT0_T_ @4450
    _ZN7omnetpp22check_and_cast_failureIPN4inet23Ipv4NetworkConfiguratorENS_7cModuleEEEvPT0_T_ @4451
    _ZN7omnetpp22check_and_cast_failureIPN4inet6PacketENS_7cObjectEEEvPT0_T_ @4452
    _ZN7omnetpp22check_and_cast_failureIPN4inet6PacketENS_7cPacketEEEvPT0_T_ @4453
    _ZN7omnetpp22check_and_cast_failureIPN4inet6PacketENS_8cMessageEEEvPT0_T_ @4454
    _ZN7omnetpp22check_and_cast_failureIPN4inet9IMobilityENS_7cModuleEEEvPT0_T_ @4455
    _ZN7omnetpp22check_and_cast_failureIPN4inet9IMobilityENS_7cObjectEEEvPT0_T_ @4456
    _ZN7omnetpp22check_and_cast_failureIPN4inet9TcpSocketENS1_7ISocketEEEvPT0_T_ @4457
    _ZN7omnetpp22check_and_cast_failureIPNS_13cSimpleModuleENS_7cModuleEEEvPT0_T_ @4458
    _ZN7omnetpp22check_and_cast_failureIPNS_7cModuleEN4inet20LifecycleUnsupportedEEEvPT0_T_ @4459
    _ZN7omnetpp22check_and_cast_failureIPNS_7cPacketENS_7cObjectEEEvPT0_T_ @4460
    _ZN7omnetpp22check_and_cast_failureIPNS_7cPacketENS_8cMessageEEEvPT0_T_ @4461
    _ZN7omnetpp23cGenericAssignableWatchIdE6assignEPKc @4462
    _ZN7omnetpp23cGenericAssignableWatchIdED0Ev @4463
    _ZN7omnetpp23cGenericAssignableWatchIiE6assignEPKc @4464
    _ZN7omnetpp23cGenericAssignableWatchIiED0Ev @4465
    _ZN7omnetpp23cGenericAssignableWatchIjE6assignEPKc @4466
    _ZN7omnetpp23cGenericAssignableWatchIjED0Ev @4467
    _ZN7omnetpp23cGenericAssignableWatchItE6assignEPKc @4468
    _ZN7omnetpp23cGenericAssignableWatchItED0Ev @4469
    _ZN7omnetpp23cNoncopyableOwnedObject12parsimUnpackEPNS_11cCommBufferE @4470
    _ZN7omnetpp23cNoncopyableOwnedObjectD2Ev @4471
    _ZN7omnetpp7SimTimeC2Ed @4472
    _ZN7omnetpp7cModule27setBuiltinAnimationsAllowedEb @4473
    _ZN7omnetpp7cPacket11setBitErrorEb @4474
    _ZN7omnetpp8cMessage10getParListEv @4475
    _ZN7omnetpp8cMessage12removeObjectEPKc @4476
    _ZN7omnetpp8cMessage12removeObjectEPNS_7cObjectE @4477
    _ZN7omnetpp8cMessage6addParEPKc @4478
    _ZN7omnetpp8cMessage6addParEPNS_7cMsgParE @4479
    _ZN7omnetpp8cMessage9addObjectEPNS_7cObjectE @4480
    _ZN7omnetpp8cMessage9getObjectEPKc @4481
    _ZN7omnetpp8cMessage9hasObjectEPKc @4482
    _ZN7omnetpplsERSoRKNS_7SimTimeE @4483
    _ZN7omnetppplERKNS_7SimTimeES2_ @4484
    _ZN8AirFrame10setBitrateEd @4485
    _ZN8AirFrame11setDurationEN7omnetpp7SimTimeE @4486
    _ZN8AirFrame11setLossRateEd @4487
    _ZN8AirFrame12parsimUnpackEPN7omnetpp11cCommBufferE @4488
    _ZN8AirFrame12setBandwidthEd @4489
    _ZN8AirFrame12setSenderPosERKN4inet5CoordE @4490
    _ZN8AirFrame16setChannelNumberEi @4491
    _ZN8AirFrame17setModulationTypeERK14ModulationType @4492
    _ZN8AirFrame19setCarrierFrequencyEd @4493
    _ZN8AirFrame21getSenderPosForUpdateEv @4494
    _ZN8AirFrame26getModulationTypeForUpdateEv @4495
    _ZN8AirFrame4copyERKS_ @4496
    _ZN8AirFrame6setSnrEd @4497
    _ZN8AirFrame8setPSendEd @4498
    _ZN8AirFrame9setPowRecEd @4499
    _ZN8AirFrameC1EPKcs @4500
    _ZN8AirFrameC1ERKS_ @4501
    _ZN8AirFrameC2EPKcs @4502
    _ZN8AirFrameC2ERKS_ @4503
    _ZN8AirFrameD0Ev @4504
    _ZN8AirFrameD1Ev @4505
    _ZN8AirFrameD2Ev @4506
    _ZN8AirFrameaSERKS_ @4507
    _ZN8AmcPilotD0Ev @4508
    _ZN8AmcPilotD2Ev @4509
    _ZN8CellInfo10attachUserEt @4510
    _ZN8CellInfo10detachUserEt @4511
    _ZN8CellInfo10initializeEi @4512
    _ZN8CellInfo10lambdaInitEtj @4513
    _ZN8CellInfo11getCarriersEv @4514
    _ZN8CellInfo11getNumBandsEv @4515
    _ZN8CellInfo12lambdaUpdateEtj @4516
    _ZN8CellInfo14updateMCSScaleEPddd9Direction @4517
    _ZN8CellInfo15getCellwiseBandEdt @4518
    _ZN8CellInfo15registerCarrierEdjjbjj @4519
    _ZN8CellInfo17calculateMCSScaleEPdS0_ @4520
    _ZN8CellInfo17computeSlotFormatEbjj @4521
    _ZN8CellInfo17getCarrierInfoMapEv @4522
    _ZN8CellInfo18createAntennaCwMapEv @4523
    _ZN8CellInfo18getCarrierLastBandEd @4524
    _ZN8CellInfo18getCarrierNumBandsEd @4525
    _ZN8CellInfo19getCarrierBandLimitEd @4526
    _ZN8CellInfo21calculateNodePositionEddiiidPdS0_ @4527
    _ZN8CellInfo22getCarrierStartingBandEd @4528
    _ZN8CellInfo25getPrimaryCarrierNumBandsEv @4529
    _ZN8CellInfo26getPrimaryCarrierFrequencyEv @4530
    _ZN8CellInfo8deployRuEddii @4531
    _ZN8CellInfoC1Ev @4532
    _ZN8CellInfoC2Ev @4533
    _ZN8CellInfoD0Ev @4534
    _ZN8CellInfoD1Ev @4535
    _ZN8CellInfoD2Ev @4536
    _ZN8LteMacUe10doHandoverEt @4537
    _ZN8LteMacUe10initializeEi @4538
    _ZN8LteMacUe10macPduMakeEj @4539
    _ZN8LteMacUe12deleteQueuesEt @4540
    _ZN8LteMacUe12macHandleRacEPN7omnetpp7cPacketE @4541
    _ZN8LteMacUe12macPduUnmakeEPN7omnetpp7cPacketE @4542
    _ZN8LteMacUe13handleMessageEPN7omnetpp8cMessageE @4543
    _ZN8LteMacUe13macSduRequestEv @4544
    _ZN8LteMacUe14macHandleGrantEPN7omnetpp7cPacketE @4545
    _ZN8LteMacUe15bufferizePacketEPN7omnetpp7cPacketE @4546
    _ZN8LteMacUe16flushHarqBuffersEv @4547
    _ZN8LteMacUe17handleSelfMessageEv @4548
    _ZN8LteMacUe17updateUserTxParamEPN7omnetpp7cPacketE @4549
    _ZN8LteMacUe18handleUpperMessageEPN7omnetpp7cPacketE @4550
    _ZN8LteMacUe23getLowestBackloggedFlowERjS0_ @4551
    _ZN8LteMacUe24getHighestBackloggedFlowERjS0_ @4552
    _ZN8LteMacUe8checkRACEv @4553
    _ZN8LteMacUeC1Ev @4554
    _ZN8LteMacUeC2Ev @4555
    _ZN8LteMacUeD0Ev @4556
    _ZN8LteMacUeD1Ev @4557
    _ZN8LteMacUeD2Ev @4558
    _ZN8LteMaxCi14commitScheduleEv @4559
    _ZN8LteMaxCi15prepareScheduleEv @4560
    _ZN8LteMaxCiD0Ev @4561
    _ZN8LteMaxCiD1Ev @4562
    _ZN8LtePhyUe10doHandoverEv @4563
    _ZN8LtePhyUe10initializeEi @4564
    _ZN8LtePhyUe12getDasFilterEv @4565
    _ZN8LtePhyUe12sendFeedbackESt6vectorIS0_I11LteFeedbackSaIS1_EESaIS3_EES5_15FeedbackRequest @4566
    _ZN8LtePhyUe13getAverageCqiE9Direction @4567
    _ZN8LtePhyUe14getVarianceCqiE9Direction @4568
    _ZN8LtePhyUe14handleAirFrameEPN7omnetpp8cMessageE @4569
    _ZN8LtePhyUe15handoverHandlerEP11LteAirFrameP15UserControlInfo @4570
    _ZN8LtePhyUe15triggerHandoverEv @4571
    _ZN8LtePhyUe16deleteOldBuffersEt @4572
    _ZN8LtePhyUe17handleSelfMessageEPN7omnetpp8cMessageE @4573
    _ZN8LtePhyUe18handleUpperMessageEPN7omnetpp8cMessageE @4574
    _ZN8LtePhyUe18updateHysteresisThEd @4575
    _ZN8LtePhyUe6finishEPN7omnetpp10cComponentEi @4576
    _ZN8LtePhyUe6finishEv @4577
    _ZN8LtePhyUe9recordCqiEj9Direction @4578
    _ZN8LtePhyUeC1Ev @4579
    _ZN8LtePhyUeC2Ev @4580
    _ZN8LtePhyUeD0Ev @4581
    _ZN8LtePhyUeD1Ev @4582
    _ZN8LtePhyUeD2Ev @4583
    _ZN8LteRlcAm10initializeEv @4584
    _ZN8LteRlcAm11getRxBufferEtt @4585
    _ZN8LteRlcAm11getTxBufferEtt @4586
    _ZN8LteRlcAm12deleteQueuesEt @4587
    _ZN8LteRlcAm13handleMessageEPN7omnetpp8cMessageE @4588
    _ZN8LteRlcAm14sendFragmentedEPN7omnetpp7cPacketE @4589
    _ZN8LteRlcAm16bufferControlPduEPN7omnetpp7cPacketE @4590
    _ZN8LteRlcAm16sendDefragmentedEPN7omnetpp7cPacketE @4591
    _ZN8LteRlcAm18handleLowerMessageEPN7omnetpp7cPacketE @4592
    _ZN8LteRlcAm18handleUpperMessageEPN7omnetpp7cPacketE @4593
    _ZN8LteRlcAm19routeControlMessageEPN7omnetpp7cPacketE @4594
    _ZN8LteRlcAm20indicateNewDataToMacEPN7omnetpp7cPacketE @4595
    _ZN8LteRlcAm6finishEv @4596
    _ZN8LteRlcAmD0Ev @4597
    _ZN8LteRlcAmD2Ev @4598
    _ZN8LteRlcTm10initializeEv @4599
    _ZN8LteRlcTm13handleMessageEPN7omnetpp8cMessageE @4600
    _ZN8LteRlcTm18handleLowerMessageEPN7omnetpp7cPacketE @4601
    _ZN8LteRlcTm18handleUpperMessageEPN7omnetpp7cPacketE @4602
    _ZN8LteRlcTm6finishEv @4603
    _ZN8LteRlcTmD0Ev @4604
    _ZN8LteRlcTmD2Ev @4605
    _ZN8LteRlcUm10activeUeULEPSt3setItSt4lessItESaItEE @4606
    _ZN8LteRlcUm10initializeEi @4607
    _ZN8LteRlcUm11getRxBufferEN4inet12IntrusivePtrI15FlowControlInfoEE @4608
    _ZN8LteRlcUm11getTxBufferEN4inet12IntrusivePtrI15FlowControlInfoEE @4609
    _ZN8LteRlcUm12deleteQueuesEt @4610
    _ZN8LteRlcUm13handleMessageEPN7omnetpp8cMessageE @4611
    _ZN8LteRlcUm15addUeThroughputEt10Throughput @4612
    _ZN8LteRlcUm15getUeThroughputEt @4613
    _ZN8LteRlcUm16sendDefragmentedEPN7omnetpp7cPacketE @4614
    _ZN8LteRlcUm16sendToLowerLayerEPN7omnetpp7cPacketE @4615
    _ZN8LteRlcUm18dropBufferOverflowEPN7omnetpp7cPacketE @4616
    _ZN8LteRlcUm18handleLowerMessageEPN7omnetpp7cPacketE @4617
    _ZN8LteRlcUm18handleUpperMessageEPN7omnetpp7cPacketE @4618
    _ZN8LteRlcUm18isEmptyingTxBufferEt @4619
    _ZN8LteRlcUm20resetThroughputStatsEt @4620
    _ZN8LteRlcUm25resumeDownstreamInPacketsEt @4621
    _ZN8LteRlcUm6finishEv @4622
    _ZN8LteRlcUmD0Ev @4623
    _ZN8LteRlcUmD2Ev @4624
    _ZN8McsTable7rescaleEd @4625
    _ZN8McsTableC1Ev @4626
    _ZN8McsTableC2Ev @4627
    _ZN8NRMacGnb10initializeEi @4628
    _ZN8NRMacGnbC1Ev @4629
    _ZN8NRMacGnbC2Ev @4630
    _ZN8NRMacGnbD0Ev @4631
    _ZN8NRMacGnbD1Ev @4632
    _ZN8NRMacGnbD2Ev @4633
    _ZN8UserInfoC1ERK12LocationInfoRKN4inet11Ipv4AddressEtRKNSt7__cxx1112basic_stringIcSt11char_traitsIcESaIcEEEi @4634
    _ZN8UserInfoC1ERKN4inet5CoordES3_RKNS0_11Ipv4AddressEtRKNSt7__cxx1112basic_stringIcSt11char_traitsIcESaIcEEEi @4635
    _ZN8UserInfoC1Ev @4636
    _ZN8UserInfoC2ERK12LocationInfoRKN4inet11Ipv4AddressEtRKNSt7__cxx1112basic_stringIcSt11char_traitsIcESaIcEEEi @4637
    _ZN8UserInfoC2ERKN4inet5CoordES3_RKNS0_11Ipv4AddressEtRKNSt7__cxx1112basic_stringIcSt11char_traitsIcESaIcEEEi @4638
    _ZN8UserInfoC2Ev @4639
    _ZN8UserInfoD0Ev @4640
    _ZN8UserInfoD2Ev @4641
    _ZN8nlohmann10basic_jsonINS_11ordered_mapESt6vectorNSt7__cxx1112basic_stringIcSt11char_traitsIcESaIcEEEbxydSaNS_14adl_serializerES2_IhSaIhEEE10json_value7destroyENS_6detail7value_tE @4642
    _ZN8nlohmann10basic_jsonINS_11ordered_mapESt6vectorNSt7__cxx1112basic_stringIcSt11char_traitsIcESaIcEEEbxydSaNS_14adl_serializerES2_IhSaIhEEE12get_ref_implIRKNS1_IS8_SC_St4lessIvESaISt4pairIKS8_SC_EEEEKSC_EET_RT0_ @4643
    _ZN8nlohmann10basic_jsonINS_11ordered_mapESt6vectorNSt7__cxx1112basic_stringIcSt11char_traitsIcESaIcEEEbxydSaNS_14adl_serializerES2_IhSaIhEEE12get_ref_implIRKNS_27byte_container_with_subtypeISB_EEKSC_EET_RT0_ @4644
    _ZN8nlohmann10basic_jsonINS_11ordered_mapESt6vectorNSt7__cxx1112basic_stringIcSt11char_traitsIcESaIcEEEbxydSaNS_14adl_serializerES2_IhSaIhEEE12get_ref_implIRKS2_ISC_SaISC_EEKSC_EET_RT0_ @4645
    _ZN8nlohmann10basic_jsonINS_11ordered_mapESt6vectorNSt7__cxx1112basic_stringIcSt11char_traitsIcESaIcEEEbxydSaNS_14adl_serializerES2_IhSaIhEEE12get_ref_implIRKS8_KSC_EET_RT0_ @4646
    _ZN8nlohmann10basic_jsonINS_11ordered_mapESt6vectorNSt7__cxx1112basic_stringIcSt11char_traitsIcESaIcEEEbxydSaNS_14adl_serializerES2_IhSaIhEEE6createIS2_ISC_SaISC_EEJN9__gnu_cxx17__normal_iteratorIPKNS0_ISt3mapS2_S8_bxydSaS9_SB_EES2_ISJ_SaISJ_EEEESO_EEEPT_DpOT0_ @4647
    _ZN8nlohmann10basic_jsonINS_11ordered_mapESt6vectorNSt7__cxx1112basic_stringIcSt11char_traitsIcESaIcEEEbxydSaNS_14adl_serializerES2_IhSaIhEEE6createIS8_JRKPKcEEEPT_DpOT0_ @4648
    _ZN8nlohmann10basic_jsonINS_11ordered_mapESt6vectorNSt7__cxx1112basic_stringIcSt11char_traitsIcESaIcEEEbxydSaNS_14adl_serializerES2_IhSaIhEEE9push_backEOSC_ @4649
    _ZN8nlohmann10basic_jsonINS_11ordered_mapESt6vectorNSt7__cxx1112basic_stringIcSt11char_traitsIcESaIcEEEbxydSaNS_14adl_serializerES2_IhSaIhEEEC2ERKSC_ @4650
    _ZN8nlohmann10basic_jsonINS_11ordered_mapESt6vectorNSt7__cxx1112basic_stringIcSt11char_traitsIcESaIcEEEbxydSaNS_14adl_serializerES2_IhSaIhEEEC2INS0_ISt3mapS2_S8_bxydSaS9_SB_EELi0EEERKT_ @4651
    _ZN8nlohmann10basic_jsonINS_11ordered_mapESt6vectorNSt7__cxx1112basic_stringIcSt11char_traitsIcESaIcEEEbxydSaNS_14adl_serializerES2_IhSaIhEEEC2IRS8_S8_Li0EEEOT_ @4652
    _ZN8nlohmann10basic_jsonINS_11ordered_mapESt6vectorNSt7__cxx1112basic_stringIcSt11char_traitsIcESaIcEEEbxydSaNS_14adl_serializerES2_IhSaIhEEEixERKS8_ @4653
    _ZN8nlohmann10basic_jsonINS_11ordered_mapESt6vectorNSt7__cxx1112basic_stringIcSt11char_traitsIcESaIcEEEbxydSaNS_14adl_serializerES2_IhSaIhEEEixEy @4654
    _ZN8nlohmann10basic_jsonINS_11ordered_mapESt6vectorNSt7__cxx1112basic_stringIcSt11char_traitsIcESaIcEEEbxydSaNS_14adl_serializerES2_IhSaIhEEEixIKcEERSC_PT_ @4655
    _ZN8nlohmann10basic_jsonISt3mapSt6vectorNSt7__cxx1112basic_stringIcSt11char_traitsIcESaIcEEEbxydSaNS_14adl_serializerES2_IhSaIhEEE10json_value7destroyENS_6detail7value_tE @4656
    _ZN8nlohmann10basic_jsonISt3mapSt6vectorNSt7__cxx1112basic_stringIcSt11char_traitsIcESaIcEEEbxydSaNS_14adl_serializerES2_IhSaIhEEE10json_valueC2ENS_6detail7value_tE @4657
    _ZN8nlohmann10basic_jsonISt3mapSt6vectorNSt7__cxx1112basic_stringIcSt11char_traitsIcESaIcEEEbxydSaNS_14adl_serializerES2_IhSaIhEEE12get_ref_implIRKNS_27byte_container_with_subtypeISB_EEKSC_EET_RT0_ @4658
    _ZN8nlohmann10basic_jsonISt3mapSt6vectorNSt7__cxx1112basic_stringIcSt11char_traitsIcESaIcEEEbxydSaNS_14adl_serializerES2_IhSaIhEEE12get_ref_implIRKS1_IS8_SC_St4lessIvESaISt4pairIKS8_SC_EEEKSC_EET_RT0_ @4659
    _ZN8nlohmann10basic_jsonISt3mapSt6vectorNSt7__cxx1112basic_stringIcSt11char_traitsIcESaIcEEEbxydSaNS_14adl_serializerES2_IhSaIhEEE12get_ref_implIRKS2_ISC_SaISC_EEKSC_EET_RT0_ @4660
    _ZN8nlohmann10basic_jsonISt3mapSt6vectorNSt7__cxx1112basic_stringIcSt11char_traitsIcESaIcEEEbxydSaNS_14adl_serializerES2_IhSaIhEEE12get_ref_implIRKS8_KSC_EET_RT0_ @4661
    _ZN8nlohmann10basic_jsonISt3mapSt6vectorNSt7__cxx1112basic_stringIcSt11char_traitsIcESaIcEEEbxydSaNS_14adl_serializerES2_IhSaIhEEE2atEy @4662
    _ZN8nlohmann10basic_jsonISt3mapSt6vectorNSt7__cxx1112basic_stringIcSt11char_traitsIcESaIcEEEbxydSaNS_14adl_serializerES2_IhSaIhEEE5eraseINS_6detail9iter_implISC_EELi0EEET_SH_ @4663
    _ZN8nlohmann10basic_jsonISt3mapSt6vectorNSt7__cxx1112basic_stringIcSt11char_traitsIcESaIcEEEbxydSaNS_14adl_serializerES2_IhSaIhEEE5parseIPKcEESC_OT_St8functionIFbiNS_6detail13parse_event_tERSC_EEbb @4664
    _ZN8nlohmann10basic_jsonISt3mapSt6vectorNSt7__cxx1112basic_stringIcSt11char_traitsIcESaIcEEEbxydSaNS_14adl_serializerES2_IhSaIhEEE5parseIRS8_EESC_OT_St8functionIFbiNS_6detail13parse_event_tERSC_EEbb @4665
    _ZN8nlohmann10basic_jsonISt3mapSt6vectorNSt7__cxx1112basic_stringIcSt11char_traitsIcESaIcEEEbxydSaNS_14adl_serializerES2_IhSaIhEEE6createIS2_ISC_SaISC_EEJN9__gnu_cxx17__normal_iteratorIPKNS0_INS_11ordered_mapES2_S8_bxydSaS9_SB_EES2_ISJ_SaISJ_EEEESO_EEEPT_DpOT0_ @4666
    _ZN8nlohmann10basic_jsonISt3mapSt6vectorNSt7__cxx1112basic_stringIcSt11char_traitsIcESaIcEEEbxydSaNS_14adl_serializerES2_IhSaIhEEE6createIS8_JRKPKcEEEPT_DpOT0_ @4667
    _ZN8nlohmann10basic_jsonISt3mapSt6vectorNSt7__cxx1112basic_stringIcSt11char_traitsIcESaIcEEEbxydSaNS_14adl_serializerES2_IhSaIhEEEC2ERKSC_ @4668
    _ZN8nlohmann10basic_jsonISt3mapSt6vectorNSt7__cxx1112basic_stringIcSt11char_traitsIcESaIcEEEbxydSaNS_14adl_serializerES2_IhSaIhEEEC2INS0_INS_11ordered_mapES2_S8_bxydSaS9_SB_EELi0EEERKT_ @4669
    _ZN8nlohmann10basic_jsonISt3mapSt6vectorNSt7__cxx1112basic_stringIcSt11char_traitsIcESaIcEEEbxydSaNS_14adl_serializerES2_IhSaIhEEEixEy @4670
    _ZN8nlohmann10basic_jsonISt3mapSt6vectorNSt7__cxx1112basic_stringIcSt11char_traitsIcESaIcEEEbxydSaNS_14adl_serializerES2_IhSaIhEEEixIKcEERSC_PT_ @4671
    _ZN8nlohmann11ordered_mapINSt7__cxx1112basic_stringIcSt11char_traitsIcESaIcEEENS_10basic_jsonIS0_St6vectorS6_bxydSaNS_14adl_serializerES8_IhSaIhEEEESt4lessIvESaISt4pairIKS6_SC_EEEixERSG_ @4672
    _ZN8nlohmann6detail10serializerINS_10basic_jsonINS_11ordered_mapESt6vectorNSt7__cxx1112basic_stringIcSt11char_traitsIcESaIcEEEbxydSaNS_14adl_serializerES4_IhSaIhEEEEE12dump_escapedERKSA_b @4673
    _ZN8nlohmann6detail10serializerINS_10basic_jsonINS_11ordered_mapESt6vectorNSt7__cxx1112basic_stringIcSt11char_traitsIcESaIcEEEbxydSaNS_14adl_serializerES4_IhSaIhEEEEE12dump_integerIxLi0EEEvT_ @4674
    _ZN8nlohmann6detail10serializerINS_10basic_jsonINS_11ordered_mapESt6vectorNSt7__cxx1112basic_stringIcSt11char_traitsIcESaIcEEEbxydSaNS_14adl_serializerES4_IhSaIhEEEEE4dumpERKSE_bbjj @4675
    _ZN8nlohmann6detail10serializerINS_10basic_jsonINS_11ordered_mapESt6vectorNSt7__cxx1112basic_stringIcSt11char_traitsIcESaIcEEEbxydSaNS_14adl_serializerES4_IhSaIhEEEEED2Ev @4676
    _ZN8nlohmann6detail10serializerINS_10basic_jsonISt3mapSt6vectorNSt7__cxx1112basic_stringIcSt11char_traitsIcESaIcEEEbxydSaNS_14adl_serializerES4_IhSaIhEEEEE12dump_escapedERKSA_b @4677
    _ZN8nlohmann6detail10serializerINS_10basic_jsonISt3mapSt6vectorNSt7__cxx1112basic_stringIcSt11char_traitsIcESaIcEEEbxydSaNS_14adl_serializerES4_IhSaIhEEEEE12dump_integerIxLi0EEEvT_ @4678
    _ZN8nlohmann6detail10serializerINS_10basic_jsonISt3mapSt6vectorNSt7__cxx1112basic_stringIcSt11char_traitsIcESaIcEEEbxydSaNS_14adl_serializerES4_IhSaIhEEEEE4dumpERKSE_bbjj @4679
    _ZN8nlohmann6detail10serializerINS_10basic_jsonISt3mapSt6vectorNSt7__cxx1112basic_stringIcSt11char_traitsIcESaIcEEEbxydSaNS_14adl_serializerES4_IhSaIhEEEEED2Ev @4680
    _ZN8nlohmann6detail10type_error6createEiRKNSt7__cxx1112basic_stringIcSt11char_traitsIcESaIcEEE @4681
    _ZN8nlohmann6detail10type_errorD0Ev @4682
    _ZN8nlohmann6detail11parse_error15position_stringB5cxx11ERKNS0_10position_tE @4683
    _ZN8nlohmann6detail11parse_error6createEiRKNS0_10position_tERKNSt7__cxx1112basic_stringIcSt11char_traitsIcESaIcEEE @4684
    _ZN8nlohmann6detail11parse_errorC2ERKS1_ @4685
    _ZN8nlohmann6detail11parse_errorD0Ev @4686
    _ZN8nlohmann6detail12out_of_range6createEiRKNSt7__cxx1112basic_stringIcSt11char_traitsIcESaIcEEE @4687
    _ZN8nlohmann6detail12out_of_rangeC2ERKS1_ @4688
    _ZN8nlohmann6detail12out_of_rangeD0Ev @4689
    _ZN8nlohmann6detail14output_adapterIcNSt7__cxx1112basic_stringIcSt11char_traitsIcESaIcEEEED2Ev @4690
    _ZN8nlohmann6detail16invalid_iterator6createEiRKNSt7__cxx1112basic_stringIcSt11char_traitsIcESaIcEEE @4691
    _ZN8nlohmann6detail16invalid_iteratorD0Ev @4692
    _ZN8nlohmann6detail19json_sax_dom_parserINS_10basic_jsonISt3mapSt6vectorNSt7__cxx1112basic_stringIcSt11char_traitsIcESaIcEEEbxydSaNS_14adl_serializerES4_IhSaIhEEEEE11parse_errorINS0_11parse_errorEEEbyRKSA_RKT_ @4693
    _ZN8nlohmann6detail19json_sax_dom_parserINS_10basic_jsonISt3mapSt6vectorNSt7__cxx1112basic_stringIcSt11char_traitsIcESaIcEEEbxydSaNS_14adl_serializerES4_IhSaIhEEEEE11parse_errorINS0_12out_of_rangeEEEbyRKSA_RKT_ @4694
    _ZN8nlohmann6detail19json_sax_dom_parserINS_10basic_jsonISt3mapSt6vectorNSt7__cxx1112basic_stringIcSt11char_traitsIcESaIcEEEbxydSaNS_14adl_serializerES4_IhSaIhEEEEE11start_arrayEy @4695
    _ZN8nlohmann6detail19json_sax_dom_parserINS_10basic_jsonISt3mapSt6vectorNSt7__cxx1112basic_stringIcSt11char_traitsIcESaIcEEEbxydSaNS_14adl_serializerES4_IhSaIhEEEEE12handle_valueIDnEEPSE_OT_ @4696
    _ZN8nlohmann6detail19json_sax_dom_parserINS_10basic_jsonISt3mapSt6vectorNSt7__cxx1112basic_stringIcSt11char_traitsIcESaIcEEEbxydSaNS_14adl_serializerES4_IhSaIhEEEEE12handle_valueINS0_7value_tEEEPSE_OT_ @4697
    _ZN8nlohmann6detail19json_sax_dom_parserINS_10basic_jsonISt3mapSt6vectorNSt7__cxx1112basic_stringIcSt11char_traitsIcESaIcEEEbxydSaNS_14adl_serializerES4_IhSaIhEEEEE12handle_valueIRSA_EEPSE_OT_ @4698
    _ZN8nlohmann6detail19json_sax_dom_parserINS_10basic_jsonISt3mapSt6vectorNSt7__cxx1112basic_stringIcSt11char_traitsIcESaIcEEEbxydSaNS_14adl_serializerES4_IhSaIhEEEEE12handle_valueIRbEEPSE_OT_ @4699
    _ZN8nlohmann6detail19json_sax_dom_parserINS_10basic_jsonISt3mapSt6vectorNSt7__cxx1112basic_stringIcSt11char_traitsIcESaIcEEEbxydSaNS_14adl_serializerES4_IhSaIhEEEEE12handle_valueIRdEEPSE_OT_ @4700
    _ZN8nlohmann6detail19json_sax_dom_parserINS_10basic_jsonISt3mapSt6vectorNSt7__cxx1112basic_stringIcSt11char_traitsIcESaIcEEEbxydSaNS_14adl_serializerES4_IhSaIhEEEEE12handle_valueIRxEEPSE_OT_ @4701
    _ZN8nlohmann6detail19json_sax_dom_parserINS_10basic_jsonISt3mapSt6vectorNSt7__cxx1112basic_stringIcSt11char_traitsIcESaIcEEEbxydSaNS_14adl_serializerES4_IhSaIhEEEEE12handle_valueIRyEEPSE_OT_ @4702
    _ZN8nlohmann6detail19json_sax_dom_parserINS_10basic_jsonISt3mapSt6vectorNSt7__cxx1112basic_stringIcSt11char_traitsIcESaIcEEEbxydSaNS_14adl_serializerES4_IhSaIhEEEEE12start_objectEy @4703
    _ZN8nlohmann6detail20external_constructorILNS0_7value_tE8EE9constructINS_10basic_jsonINS_11ordered_mapESt6vectorNSt7__cxx1112basic_stringIcSt11char_traitsIcESaIcEEEbxydSaNS_14adl_serializerES7_IhSaIhEEEEEEvRT_RKNSI_8binary_tE @4704
    _ZN8nlohmann6detail20external_constructorILNS0_7value_tE8EE9constructINS_10basic_jsonISt3mapSt6vectorNSt7__cxx1112basic_stringIcSt11char_traitsIcESaIcEEEbxydSaNS_14adl_serializerES7_IhSaIhEEEEEEvRT_RKNSI_8binary_tE @4705
    _ZN8nlohmann6detail20get_arithmetic_valueINS_10basic_jsonINS_11ordered_mapESt6vectorNSt7__cxx1112basic_stringIcSt11char_traitsIcESaIcEEEbxydSaNS_14adl_serializerES4_IhSaIhEEEEdLi0EEEvRKT_RT0_ @4706
    _ZN8nlohmann6detail20get_arithmetic_valueINS_10basic_jsonINS_11ordered_mapESt6vectorNSt7__cxx1112basic_stringIcSt11char_traitsIcESaIcEEEbxydSaNS_14adl_serializerES4_IhSaIhEEEExLi0EEEvRKT_RT0_ @4707
    _ZN8nlohmann6detail20get_arithmetic_valueINS_10basic_jsonINS_11ordered_mapESt6vectorNSt7__cxx1112basic_stringIcSt11char_traitsIcESaIcEEEbxydSaNS_14adl_serializerES4_IhSaIhEEEEyLi0EEEvRKT_RT0_ @4708
    _ZN8nlohmann6detail20get_arithmetic_valueINS_10basic_jsonISt3mapSt6vectorNSt7__cxx1112basic_stringIcSt11char_traitsIcESaIcEEEbxydSaNS_14adl_serializerES4_IhSaIhEEEEdLi0EEEvRKT_RT0_ @4709
    _ZN8nlohmann6detail20get_arithmetic_valueINS_10basic_jsonISt3mapSt6vectorNSt7__cxx1112basic_stringIcSt11char_traitsIcESaIcEEEbxydSaNS_14adl_serializerES4_IhSaIhEEEExLi0EEEvRKT_RT0_ @4710
    _ZN8nlohmann6detail20get_arithmetic_valueINS_10basic_jsonISt3mapSt6vectorNSt7__cxx1112basic_stringIcSt11char_traitsIcESaIcEEEbxydSaNS_14adl_serializerES4_IhSaIhEEEEyLi0EEEvRKT_RT0_ @4711
    _ZN8nlohmann6detail20input_stream_adapterD2Ev @4712
    _ZN8nlohmann6detail21output_stream_adapterIcE15write_characterEc @4713
    _ZN8nlohmann6detail21output_stream_adapterIcE16write_charactersEPKcy @4714
    _ZN8nlohmann6detail21output_stream_adapterIcED0Ev @4715
    _ZN8nlohmann6detail21output_string_adapterIcNSt7__cxx1112basic_stringIcSt11char_traitsIcESaIcEEEE15write_characterEc @4716
    _ZN8nlohmann6detail21output_string_adapterIcNSt7__cxx1112basic_stringIcSt11char_traitsIcESaIcEEEE16write_charactersEPKcy @4717
    _ZN8nlohmann6detail21output_string_adapterIcNSt7__cxx1112basic_stringIcSt11char_traitsIcESaIcEEEED0Ev @4718
    _ZN8nlohmann6detail23output_adapter_protocolIcED2Ev @4719
    _ZN8nlohmann6detail28json_sax_dom_callback_parserINS_10basic_jsonISt3mapSt6vectorNSt7__cxx1112basic_stringIcSt11char_traitsIcESaIcEEEbxydSaNS_14adl_serializerES4_IhSaIhEEEEE10end_objectEv @4720
    _ZN8nlohmann6detail28json_sax_dom_callback_parserINS_10basic_jsonISt3mapSt6vectorNSt7__cxx1112basic_stringIcSt11char_traitsIcESaIcEEEbxydSaNS_14adl_serializerES4_IhSaIhEEEEE11parse_errorINS0_11parse_errorEEEbyRKSA_RKT_ @4721
    _ZN8nlohmann6detail28json_sax_dom_callback_parserINS_10basic_jsonISt3mapSt6vectorNSt7__cxx1112basic_stringIcSt11char_traitsIcESaIcEEEbxydSaNS_14adl_serializerES4_IhSaIhEEEEE11parse_errorINS0_12out_of_rangeEEEbyRKSA_RKT_ @4722
    _ZN8nlohmann6detail28json_sax_dom_callback_parserINS_10basic_jsonISt3mapSt6vectorNSt7__cxx1112basic_stringIcSt11char_traitsIcESaIcEEEbxydSaNS_14adl_serializerES4_IhSaIhEEEEE11start_arrayEy @4723
    _ZN8nlohmann6detail28json_sax_dom_callback_parserINS_10basic_jsonISt3mapSt6vectorNSt7__cxx1112basic_stringIcSt11char_traitsIcESaIcEEEbxydSaNS_14adl_serializerES4_IhSaIhEEEEE12handle_valueIDnEESt4pairIbPSE_EOT_b @4724
    _ZN8nlohmann6detail28json_sax_dom_callback_parserINS_10basic_jsonISt3mapSt6vectorNSt7__cxx1112basic_stringIcSt11char_traitsIcESaIcEEEbxydSaNS_14adl_serializerES4_IhSaIhEEEEE12handle_valueINS0_7value_tEEESt4pairIbPSE_EOT_b @4725
    _ZN8nlohmann6detail28json_sax_dom_callback_parserINS_10basic_jsonISt3mapSt6vectorNSt7__cxx1112basic_stringIcSt11char_traitsIcESaIcEEEbxydSaNS_14adl_serializerES4_IhSaIhEEEEE12handle_valueIRSA_EESt4pairIbPSE_EOT_b @4726
    _ZN8nlohmann6detail28json_sax_dom_callback_parserINS_10basic_jsonISt3mapSt6vectorNSt7__cxx1112basic_stringIcSt11char_traitsIcESaIcEEEbxydSaNS_14adl_serializerES4_IhSaIhEEEEE12handle_valueIRbEESt4pairIbPSE_EOT_b @4727
    _ZN8nlohmann6detail28json_sax_dom_callback_parserINS_10basic_jsonISt3mapSt6vectorNSt7__cxx1112basic_stringIcSt11char_traitsIcESaIcEEEbxydSaNS_14adl_serializerES4_IhSaIhEEEEE12handle_valueIRdEESt4pairIbPSE_EOT_b @4728
    _ZN8nlohmann6detail28json_sax_dom_callback_parserINS_10basic_jsonISt3mapSt6vectorNSt7__cxx1112basic_stringIcSt11char_traitsIcESaIcEEEbxydSaNS_14adl_serializerES4_IhSaIhEEEEE12handle_valueIRxEESt4pairIbPSE_EOT_b @4729
    _ZN8nlohmann6detail28json_sax_dom_callback_parserINS_10basic_jsonISt3mapSt6vectorNSt7__cxx1112basic_stringIcSt11char_traitsIcESaIcEEEbxydSaNS_14adl_serializerES4_IhSaIhEEEEE12handle_valueIRyEESt4pairIbPSE_EOT_b @4730
    _ZN8nlohmann6detail28json_sax_dom_callback_parserINS_10basic_jsonISt3mapSt6vectorNSt7__cxx1112basic_stringIcSt11char_traitsIcESaIcEEEbxydSaNS_14adl_serializerES4_IhSaIhEEEEE12start_objectEy @4731
    _ZN8nlohmann6detail28json_sax_dom_callback_parserINS_10basic_jsonISt3mapSt6vectorNSt7__cxx1112basic_stringIcSt11char_traitsIcESaIcEEEbxydSaNS_14adl_serializerES4_IhSaIhEEEEE3keyERSA_ @4732
    _ZN8nlohmann6detail28json_sax_dom_callback_parserINS_10basic_jsonISt3mapSt6vectorNSt7__cxx1112basic_stringIcSt11char_traitsIcESaIcEEEbxydSaNS_14adl_serializerES4_IhSaIhEEEEE9end_arrayEv @4733
    _ZN8nlohmann6detail28json_sax_dom_callback_parserINS_10basic_jsonISt3mapSt6vectorNSt7__cxx1112basic_stringIcSt11char_traitsIcESaIcEEEbxydSaNS_14adl_serializerES4_IhSaIhEEEEEC2ERSE_St8functionIFbiNS0_13parse_event_tESG_EEb @4734
    _ZN8nlohmann6detail28json_sax_dom_callback_parserINS_10basic_jsonISt3mapSt6vectorNSt7__cxx1112basic_stringIcSt11char_traitsIcESaIcEEEbxydSaNS_14adl_serializerES4_IhSaIhEEEEED2Ev @4735
    _ZN8nlohmann6detail5lexerINS_10basic_jsonISt3mapSt6vectorNSt7__cxx1112basic_stringIcSt11char_traitsIcESaIcEEEbxydSaNS_14adl_serializerES4_IhSaIhEEEENS0_20input_stream_adapterEE11scan_numberEv @4736
    _ZN8nlohmann6detail5lexerINS_10basic_jsonISt3mapSt6vectorNSt7__cxx1112basic_stringIcSt11char_traitsIcESaIcEEEbxydSaNS_14adl_serializerES4_IhSaIhEEEENS0_20input_stream_adapterEE11scan_stringEv @4737
    _ZN8nlohmann6detail5lexerINS_10basic_jsonISt3mapSt6vectorNSt7__cxx1112basic_stringIcSt11char_traitsIcESaIcEEEbxydSaNS_14adl_serializerES4_IhSaIhEEEENS0_20input_stream_adapterEE12scan_commentEv @4738
    _ZN8nlohmann6detail5lexerINS_10basic_jsonISt3mapSt6vectorNSt7__cxx1112basic_stringIcSt11char_traitsIcESaIcEEEbxydSaNS_14adl_serializerES4_IhSaIhEEEENS0_20input_stream_adapterEE13get_codepointEv @4739
    _ZN8nlohmann6detail5lexerINS_10basic_jsonISt3mapSt6vectorNSt7__cxx1112basic_stringIcSt11char_traitsIcESaIcEEEbxydSaNS_14adl_serializerES4_IhSaIhEEEENS0_20input_stream_adapterEE15skip_whitespaceEv @4740
    _ZN8nlohmann6detail5lexerINS_10basic_jsonISt3mapSt6vectorNSt7__cxx1112basic_stringIcSt11char_traitsIcESaIcEEEbxydSaNS_14adl_serializerES4_IhSaIhEEEENS0_20input_stream_adapterEE18next_byte_in_rangeESt16initializer_listIiE @4741
    _ZN8nlohmann6detail5lexerINS_10basic_jsonISt3mapSt6vectorNSt7__cxx1112basic_stringIcSt11char_traitsIcESaIcEEEbxydSaNS_14adl_serializerES4_IhSaIhEEEENS0_20input_stream_adapterEE3addEi @4742
    _ZN8nlohmann6detail5lexerINS_10basic_jsonISt3mapSt6vectorNSt7__cxx1112basic_stringIcSt11char_traitsIcESaIcEEEbxydSaNS_14adl_serializerES4_IhSaIhEEEENS0_20input_stream_adapterEE3getEv @4743
    _ZN8nlohmann6detail5lexerINS_10basic_jsonISt3mapSt6vectorNSt7__cxx1112basic_stringIcSt11char_traitsIcESaIcEEEbxydSaNS_14adl_serializerES4_IhSaIhEEEENS0_20input_stream_adapterEE4scanEv @4744
    _ZN8nlohmann6detail5lexerINS_10basic_jsonISt3mapSt6vectorNSt7__cxx1112basic_stringIcSt11char_traitsIcESaIcEEEbxydSaNS_14adl_serializerES4_IhSaIhEEEENS0_20input_stream_adapterEED2Ev @4745
    _ZN8nlohmann6detail5lexerINS_10basic_jsonISt3mapSt6vectorNSt7__cxx1112basic_stringIcSt11char_traitsIcESaIcEEEbxydSaNS_14adl_serializerES4_IhSaIhEEEENS0_22iterator_input_adapterIN9__gnu_cxx17__normal_iteratorIPKcSA_EEEEE11scan_numberEv @4746
    _ZN8nlohmann6detail5lexerINS_10basic_jsonISt3mapSt6vectorNSt7__cxx1112basic_stringIcSt11char_traitsIcESaIcEEEbxydSaNS_14adl_serializerES4_IhSaIhEEEENS0_22iterator_input_adapterIN9__gnu_cxx17__normal_iteratorIPKcSA_EEEEE11scan_stringEv @4747
    _ZN8nlohmann6detail5lexerINS_10basic_jsonISt3mapSt6vectorNSt7__cxx1112basic_stringIcSt11char_traitsIcESaIcEEEbxydSaNS_14adl_serializerES4_IhSaIhEEEENS0_22iterator_input_adapterIN9__gnu_cxx17__normal_iteratorIPKcSA_EEEEE12scan_commentEv @4748
    _ZN8nlohmann6detail5lexerINS_10basic_jsonISt3mapSt6vectorNSt7__cxx1112basic_stringIcSt11char_traitsIcESaIcEEEbxydSaNS_14adl_serializerES4_IhSaIhEEEENS0_22iterator_input_adapterIN9__gnu_cxx17__normal_iteratorIPKcSA_EEEEE13get_codepointEv @4749
    _ZN8nlohmann6detail5lexerINS_10basic_jsonISt3mapSt6vectorNSt7__cxx1112basic_stringIcSt11char_traitsIcESaIcEEEbxydSaNS_14adl_serializerES4_IhSaIhEEEENS0_22iterator_input_adapterIN9__gnu_cxx17__normal_iteratorIPKcSA_EEEEE15skip_whitespaceEv @4750
    _ZN8nlohmann6detail5lexerINS_10basic_jsonISt3mapSt6vectorNSt7__cxx1112basic_stringIcSt11char_traitsIcESaIcEEEbxydSaNS_14adl_serializerES4_IhSaIhEEEENS0_22iterator_input_adapterIN9__gnu_cxx17__normal_iteratorIPKcSA_EEEEE18next_byte_in_rangeESt16initializer_listIiE @4751
    _ZN8nlohmann6detail5lexerINS_10basic_jsonISt3mapSt6vectorNSt7__cxx1112basic_stringIcSt11char_traitsIcESaIcEEEbxydSaNS_14adl_serializerES4_IhSaIhEEEENS0_22iterator_input_adapterIN9__gnu_cxx17__normal_iteratorIPKcSA_EEEEE3addEi @4752
    _ZN8nlohmann6detail5lexerINS_10basic_jsonISt3mapSt6vectorNSt7__cxx1112basic_stringIcSt11char_traitsIcESaIcEEEbxydSaNS_14adl_serializerES4_IhSaIhEEEENS0_22iterator_input_adapterIN9__gnu_cxx17__normal_iteratorIPKcSA_EEEEE3getEv @4753
    _ZN8nlohmann6detail5lexerINS_10basic_jsonISt3mapSt6vectorNSt7__cxx1112basic_stringIcSt11char_traitsIcESaIcEEEbxydSaNS_14adl_serializerES4_IhSaIhEEEENS0_22iterator_input_adapterIN9__gnu_cxx17__normal_iteratorIPKcSA_EEEEE4scanEv @4754
    _ZN8nlohmann6detail5lexerINS_10basic_jsonISt3mapSt6vectorNSt7__cxx1112basic_stringIcSt11char_traitsIcESaIcEEEbxydSaNS_14adl_serializerES4_IhSaIhEEEENS0_22iterator_input_adapterIN9__gnu_cxx17__normal_iteratorIPKcSA_EEEEED2Ev @4755
    _ZN8nlohmann6detail5lexerINS_10basic_jsonISt3mapSt6vectorNSt7__cxx1112basic_stringIcSt11char_traitsIcESaIcEEEbxydSaNS_14adl_serializerES4_IhSaIhEEEENS0_22iterator_input_adapterIPKcEEE11scan_numberEv @4756
    _ZN8nlohmann6detail5lexerINS_10basic_jsonISt3mapSt6vectorNSt7__cxx1112basic_stringIcSt11char_traitsIcESaIcEEEbxydSaNS_14adl_serializerES4_IhSaIhEEEENS0_22iterator_input_adapterIPKcEEE11scan_stringEv @4757
    _ZN8nlohmann6detail5lexerINS_10basic_jsonISt3mapSt6vectorNSt7__cxx1112basic_stringIcSt11char_traitsIcESaIcEEEbxydSaNS_14adl_serializerES4_IhSaIhEEEENS0_22iterator_input_adapterIPKcEEE12scan_commentEv @4758
    _ZN8nlohmann6detail5lexerINS_10basic_jsonISt3mapSt6vectorNSt7__cxx1112basic_stringIcSt11char_traitsIcESaIcEEEbxydSaNS_14adl_serializerES4_IhSaIhEEEENS0_22iterator_input_adapterIPKcEEE13get_codepointEv @4759
    _ZN8nlohmann6detail5lexerINS_10basic_jsonISt3mapSt6vectorNSt7__cxx1112basic_stringIcSt11char_traitsIcESaIcEEEbxydSaNS_14adl_serializerES4_IhSaIhEEEENS0_22iterator_input_adapterIPKcEEE15skip_whitespaceEv @4760
    _ZN8nlohmann6detail5lexerINS_10basic_jsonISt3mapSt6vectorNSt7__cxx1112basic_stringIcSt11char_traitsIcESaIcEEEbxydSaNS_14adl_serializerES4_IhSaIhEEEENS0_22iterator_input_adapterIPKcEEE18next_byte_in_rangeESt16initializer_listIiE @4761
    _ZN8nlohmann6detail5lexerINS_10basic_jsonISt3mapSt6vectorNSt7__cxx1112basic_stringIcSt11char_traitsIcESaIcEEEbxydSaNS_14adl_serializerES4_IhSaIhEEEENS0_22iterator_input_adapterIPKcEEE3addEi @4762
    _ZN8nlohmann6detail5lexerINS_10basic_jsonISt3mapSt6vectorNSt7__cxx1112basic_stringIcSt11char_traitsIcESaIcEEEbxydSaNS_14adl_serializerES4_IhSaIhEEEENS0_22iterator_input_adapterIPKcEEE3getEv @4763
    _ZN8nlohmann6detail5lexerINS_10basic_jsonISt3mapSt6vectorNSt7__cxx1112basic_stringIcSt11char_traitsIcESaIcEEEbxydSaNS_14adl_serializerES4_IhSaIhEEEENS0_22iterator_input_adapterIPKcEEE4scanEv @4764
    _ZN8nlohmann6detail5lexerINS_10basic_jsonISt3mapSt6vectorNSt7__cxx1112basic_stringIcSt11char_traitsIcESaIcEEEbxydSaNS_14adl_serializerES4_IhSaIhEEEENS0_22iterator_input_adapterIPKcEEED2Ev @4765
    _ZN8nlohmann6detail6parserINS_10basic_jsonISt3mapSt6vectorNSt7__cxx1112basic_stringIcSt11char_traitsIcESaIcEEEbxydSaNS_14adl_serializerES4_IhSaIhEEEENS0_20input_stream_adapterEE17exception_messageENS0_10lexer_baseISE_E10token_typeERKSA_ @4766
    _ZN8nlohmann6detail6parserINS_10basic_jsonISt3mapSt6vectorNSt7__cxx1112basic_stringIcSt11char_traitsIcESaIcEEEbxydSaNS_14adl_serializerES4_IhSaIhEEEENS0_20input_stream_adapterEE18sax_parse_internalINS0_19json_sax_dom_parserISE_EEEEbPT_ @4767
    _ZN8nlohmann6detail6parserINS_10basic_jsonISt3mapSt6vectorNSt7__cxx1112basic_stringIcSt11char_traitsIcESaIcEEEbxydSaNS_14adl_serializerES4_IhSaIhEEEENS0_20input_stream_adapterEE18sax_parse_internalINS0_28json_sax_dom_callback_parserISE_EEEEbPT_ @4768
    _ZN8nlohmann6detail6parserINS_10basic_jsonISt3mapSt6vectorNSt7__cxx1112basic_stringIcSt11char_traitsIcESaIcEEEbxydSaNS_14adl_serializerES4_IhSaIhEEEENS0_20input_stream_adapterEE5parseEbRSE_ @4769
    _ZN8nlohmann6detail6parserINS_10basic_jsonISt3mapSt6vectorNSt7__cxx1112basic_stringIcSt11char_traitsIcESaIcEEEbxydSaNS_14adl_serializerES4_IhSaIhEEEENS0_20input_stream_adapterEEC2EOSF_St8functionIFbiNS0_13parse_event_tERSE_EEbb @4770
    _ZN8nlohmann6detail6parserINS_10basic_jsonISt3mapSt6vectorNSt7__cxx1112basic_stringIcSt11char_traitsIcESaIcEEEbxydSaNS_14adl_serializerES4_IhSaIhEEEENS0_20input_stream_adapterEED2Ev @4771
    _ZN8nlohmann6detail6parserINS_10basic_jsonISt3mapSt6vectorNSt7__cxx1112basic_stringIcSt11char_traitsIcESaIcEEEbxydSaNS_14adl_serializerES4_IhSaIhEEEENS0_22iterator_input_adapterIN9__gnu_cxx17__normal_iteratorIPKcSA_EEEEE17exception_messageENS0_10lexer_baseISE_E10token_typeERKSA_ @4772
    _ZN8nlohmann6detail6parserINS_10basic_jsonISt3mapSt6vectorNSt7__cxx1112basic_stringIcSt11char_traitsIcESaIcEEEbxydSaNS_14adl_serializerES4_IhSaIhEEEENS0_22iterator_input_adapterIN9__gnu_cxx17__normal_iteratorIPKcSA_EEEEE18sax_parse_internalINS0_19json_sax_dom_parserISE_EEEEbPT_ @4773
    _ZN8nlohmann6detail6parserINS_10basic_jsonISt3mapSt6vectorNSt7__cxx1112basic_stringIcSt11char_traitsIcESaIcEEEbxydSaNS_14adl_serializerES4_IhSaIhEEEENS0_22iterator_input_adapterIN9__gnu_cxx17__normal_iteratorIPKcSA_EEEEE18sax_parse_internalINS0_28json_sax_dom_callback_parserISE_EEEEbPT_ @4774
    _ZN8nlohmann6detail6parserINS_10basic_jsonISt3mapSt6vectorNSt7__cxx1112basic_stringIcSt11char_traitsIcESaIcEEEbxydSaNS_14adl_serializerES4_IhSaIhEEEENS0_22iterator_input_adapterIN9__gnu_cxx17__normal_iteratorIPKcSA_EEEEE5parseEbRSE_ @4775
    _ZN8nlohmann6detail6parserINS_10basic_jsonISt3mapSt6vectorNSt7__cxx1112basic_stringIcSt11char_traitsIcESaIcEEEbxydSaNS_14adl_serializerES4_IhSaIhEEEENS0_22iterator_input_adapterIN9__gnu_cxx17__normal_iteratorIPKcSA_EEEEEC2EOSL_St8functionIFbiNS0_13parse_event_tERSE_EEbb @4776
    _ZN8nlohmann6detail6parserINS_10basic_jsonISt3mapSt6vectorNSt7__cxx1112basic_stringIcSt11char_traitsIcESaIcEEEbxydSaNS_14adl_serializerES4_IhSaIhEEEENS0_22iterator_input_adapterIN9__gnu_cxx17__normal_iteratorIPKcSA_EEEEED2Ev @4777
    _ZN8nlohmann6detail6parserINS_10basic_jsonISt3mapSt6vectorNSt7__cxx1112basic_stringIcSt11char_traitsIcESaIcEEEbxydSaNS_14adl_serializerES4_IhSaIhEEEENS0_22iterator_input_adapterIPKcEEE17exception_messageENS0_10lexer_baseISE_E10token_typeERKSA_ @4778
    _ZN8nlohmann6detail6parserINS_10basic_jsonISt3mapSt6vectorNSt7__cxx1112basic_stringIcSt11char_traitsIcESaIcEEEbxydSaNS_14adl_serializerES4_IhSaIhEEEENS0_22iterator_input_adapterIPKcEEE18sax_parse_internalINS0_19json_sax_dom_parserISE_EEEEbPT_ @4779
    _ZN8nlohmann6detail6parserINS_10basic_jsonISt3mapSt6vectorNSt7__cxx1112basic_stringIcSt11char_traitsIcESaIcEEEbxydSaNS_14adl_serializerES4_IhSaIhEEEENS0_22iterator_input_adapterIPKcEEE18sax_parse_internalINS0_28json_sax_dom_callback_parserISE_EEEEbPT_ @4780
    _ZN8nlohmann6detail6parserINS_10basic_jsonISt3mapSt6vectorNSt7__cxx1112basic_stringIcSt11char_traitsIcESaIcEEEbxydSaNS_14adl_serializerES4_IhSaIhEEEENS0_22iterator_input_adapterIPKcEEE5parseEbRSE_ @4781
    _ZN8nlohmann6detail6parserINS_10basic_jsonISt3mapSt6vectorNSt7__cxx1112basic_stringIcSt11char_traitsIcESaIcEEEbxydSaNS_14adl_serializerES4_IhSaIhEEEENS0_22iterator_input_adapterIPKcEEEC2EOSI_St8functionIFbiNS0_13parse_event_tERSE_EEbb @4782
    _ZN8nlohmann6detail6parserINS_10basic_jsonISt3mapSt6vectorNSt7__cxx1112basic_stringIcSt11char_traitsIcESaIcEEEbxydSaNS_14adl_serializerES4_IhSaIhEEEENS0_22iterator_input_adapterIPKcEEED2Ev @4783
    _ZN8nlohmann6detail8to_charsIdEEPcS2_PKcT_ @4784
    _ZN8nlohmann6detail9dtoa_impl16grisu2_digit_genEPcRiS3_NS1_5diyfpES4_S4_ @4785
    _ZN8nlohmann6detail9dtoa_impl6grisu2IdEEvPcRiS4_T_ @4786
    _ZN8nlohmann6detail9exception4nameERKNSt7__cxx1112basic_stringIcSt11char_traitsIcESaIcEEEi @4787
    _ZN8nlohmann6detail9exceptionD0Ev @4788
    _ZN8nlohmann6detail9exceptionD2Ev @4789
    _ZN8nlohmann6detail9from_jsonINS_10basic_jsonINS_11ordered_mapESt6vectorNSt7__cxx1112basic_stringIcSt11char_traitsIcESaIcEEEbxydSaNS_14adl_serializerES4_IhSaIhEEEEEEvRKT_RNSF_8string_tE @4790
    _ZN8nlohmann6detail9from_jsonINS_10basic_jsonINS_11ordered_mapESt6vectorNSt7__cxx1112basic_stringIcSt11char_traitsIcESaIcEEEbxydSaNS_14adl_serializerES4_IhSaIhEEEEEEvRKT_RNSF_9boolean_tE @4791
    _ZN8nlohmann6detail9from_jsonINS_10basic_jsonINS_11ordered_mapESt6vectorNSt7__cxx1112basic_stringIcSt11char_traitsIcESaIcEEEbxydSaNS_14adl_serializerES4_IhSaIhEEEEiLi0EEEvRKT_RT0_ @4792
    _ZN8nlohmann6detail9from_jsonINS_10basic_jsonISt3mapSt6vectorNSt7__cxx1112basic_stringIcSt11char_traitsIcESaIcEEEbxydSaNS_14adl_serializerES4_IhSaIhEEEEEEvRKT_RNSF_8string_tE @4793
    _ZN8nlohmann6detail9from_jsonINS_10basic_jsonISt3mapSt6vectorNSt7__cxx1112basic_stringIcSt11char_traitsIcESaIcEEEbxydSaNS_14adl_serializerES4_IhSaIhEEEEEEvRKT_RNSF_9boolean_tE @4794
    _ZN8nlohmann6detail9from_jsonINS_10basic_jsonISt3mapSt6vectorNSt7__cxx1112basic_stringIcSt11char_traitsIcESaIcEEEbxydSaNS_14adl_serializerES4_IhSaIhEEEEiLi0EEEvRKT_RT0_ @4795
    _ZN8nlohmanneqERKNS_10basic_jsonISt3mapSt6vectorNSt7__cxx1112basic_stringIcSt11char_traitsIcESaIcEEEbxydSaNS_14adl_serializerES2_IhSaIhEEEESE_ @4796
    _ZN8nlohmanneqIPKcLi0EEEbRKNS_10basic_jsonISt3mapSt6vectorNSt7__cxx1112basic_stringIcSt11char_traitsIcESaIcEEEbxydSaNS_14adl_serializerES5_IhSaIhEEEET_ @4797
    _ZN8nlohmannlsERSoRKNS_10basic_jsonISt3mapSt6vectorNSt7__cxx1112basic_stringIcSt11char_traitsIcESaIcEEEbxydSaNS_14adl_serializerES3_IhSaIhEEEE @4798
    _ZN8nlohmannrsERSiRNS_10basic_jsonISt3mapSt6vectorNSt7__cxx1112basic_stringIcSt11char_traitsIcESaIcEEEbxydSaNS_14adl_serializerES3_IhSaIhEEEE @4799
    _ZN9AmRxQueue10initializeEv @4800
    _ZN9AmRxQueue12moveRxWindowEi @4801
    _ZN9AmRxQueue13handleMessageEPN7omnetpp8cMessageE @4802
    _ZN9AmRxQueue16checkCompleteSduEi @4803
    _ZN9AmRxQueue16defragmentFramesERSt5dequeIPN4inet6PacketESaIS3_EE @4804
    _ZN9AmRxQueue16sendStatusReportEv @4805
    _ZN9AmRxQueue19totalCellRcvdBytes_E @4806 DATA
    _ZN9AmRxQueue5enqueEPN4inet6PacketE @4807
    _ZN9AmRxQueue6passUpEi @4808
    _ZN9AmRxQueue7discardEi @4809
    _ZN9AmRxQueueC1Ev @4810
    _ZN9AmRxQueueC2Ev @4811
    _ZN9AmRxQueueD0Ev @4812
    _ZN9AmRxQueueD1Ev @4813
    _ZN9AmRxQueueD2Ev @4814
    _ZN9AmTxQueue10initializeEv @4815
    _ZN9AmTxQueue10recvMrwAckEi @4816
    _ZN9AmTxQueue11checkForMrwEv @4817
    _ZN9AmTxQueue12moveTxWindowEi @4818
    _ZN9AmTxQueue13fragmentFrameEPN4inet6PacketERSt5dequeIiSaIiEE11RlcFragDesc @4819
    _ZN9AmTxQueue13handleMessageEPN7omnetpp8cMessageE @4820
    _ZN9AmTxQueue14mrwTimerHandleEi @4821
    _ZN9AmTxQueue14pduTimerHandleEi @4822
    _ZN9AmTxQueue16bufferControlPduEPN7omnetpp7cPacketE @4823
    _ZN9AmTxQueue17recvCumulativeAckEi @4824
    _ZN9AmTxQueue19handleControlPacketEPN7omnetpp7cPacketE @4825
    _ZN9AmTxQueue5enqueEPN4inet6PacketE @4826
    _ZN9AmTxQueue7addPdusEv @4827
    _ZN9AmTxQueue7discardEi @4828
    _ZN9AmTxQueue7recvAckEi @4829
    _ZN9AmTxQueue7sendMrwEi @4830
    _ZN9AmTxQueue8sendPdusEi @4831
    _ZN9AmTxQueue9bufferPduEPN7omnetpp7cPacketE @4832
    _ZN9AmTxQueueC1Ev @4833
    _ZN9AmTxQueueC2Ev @4834
    _ZN9AmTxQueueD0Ev @4835
    _ZN9AmTxQueueD1Ev @4836
    _ZN9AmTxQueueD2Ev @4837
    _ZN9CbrPacket10setIDframeEj @4838
    _ZN9CbrPacket10setNframesEj @4839
    _ZN9CbrPacket12parsimUnpackEPN7omnetpp11cCommBufferE @4840
    _ZN9CbrPacket14setArrivalTimeEN7omnetpp7SimTimeE @4841
    _ZN9CbrPacket14setPayloadSizeEj @4842
    _ZN9CbrPacket19setPayloadTimestampEN7omnetpp7SimTimeE @4843
    _ZN9CbrPacket4copyERKS_ @4844
    _ZN9CbrPacketC1ERKS_ @4845
    _ZN9CbrPacketC1Ev @4846
    _ZN9CbrPacketC2ERKS_ @4847
    _ZN9CbrPacketC2Ev @4848
    _ZN9CbrPacketD0Ev @4849
    _ZN9CbrPacketD1Ev @4850
    _ZN9CbrPacketD2Ev @4851
    _ZN9CbrPacketaSERKS_ @4852
    _ZN9CbrSender10initializeEi @4853
    _ZN9CbrSender11initTrafficEv @4854
    _ZN9CbrSender13handleMessageEPN7omnetpp8cMessageE @4855
    _ZN9CbrSender13sendCbrPacketEv @4856
    _ZN9CbrSender17cbrSentPktSignal_E @4857 DATA
    _ZN9CbrSender24cbrGeneratedBytesSignal_E @4858 DATA
    _ZN9CbrSender30cbrGeneratedThroughtputSignal_E @4859 DATA
    _ZN9CbrSender6finishEv @4860
    _ZN9CbrSenderC1Ev @4861
    _ZN9CbrSenderC2Ev @4862
    _ZN9CbrSenderD0Ev @4863
    _ZN9CbrSenderD1Ev @4864
    _ZN9CbrSenderD2Ev @4865
    _ZN9DasFilter14setMasterRuSetEt @4866
    _ZN9DasFilter15getAntennaCoordEi @4867
    _ZN9DasFilter15getReportingSetEv @4868
    _ZN9DasFilter16receiveBroadcastEP11LteAirFrameP15UserControlInfo @4869
    _ZN9DasFilter17getAntennaTxPowerEi @4870
    _ZN9DasFilterC1EP10LtePhyBaseP6BinderP16RemoteAntennaSetd @4871
    _ZN9DasFilterC2EP10LtePhyBaseP6BinderP16RemoteAntennaSetd @4872
    _ZN9DasFilterD0Ev @4873
    _ZN9DasFilterD1Ev @4874
    _ZN9DasFilterD2Ev @4875
    _ZN9DeviceApp10initializeEi @4876
    _ZN9DeviceApp12socketClosedEPN4inet9TcpSocketE @4877
    _ZN9DeviceApp12socketClosedEPN4inet9UdpSocketE @4878
    _ZN9DeviceApp13handleMessageEPN7omnetpp8cMessageE @4879
    _ZN9DeviceApp13socketDeletedEPN4inet9TcpSocketE @4880
    _ZN9DeviceApp13socketFailureEPN4inet9TcpSocketEi @4881
    _ZN9DeviceApp15connectToUALCMPEv @4882
    _ZN9DeviceApp15socketAvailableEPN4inet9TcpSocketEPNS0_16TcpAvailableInfoE @4883
    _ZN9DeviceApp16socketPeerClosedEPN4inet9TcpSocketE @4884
    _ZN9DeviceApp17handleSelfMessageEPN7omnetpp8cMessageE @4885
    _ZN9DeviceApp17socketDataArrivedEPN4inet9TcpSocketEPNS0_6PacketEb @4886
    _ZN9DeviceApp17socketDataArrivedEPN4inet9UdpSocketEPNS0_6PacketE @4887
    _ZN9DeviceApp17socketEstablishedEPN4inet9TcpSocketE @4888
    _ZN9DeviceApp18sendStopAppContextEN4inet12IntrusivePtrIK15DeviceAppPacketEE @4889
    _ZN9DeviceApp18socketErrorArrivedEPN4inet9UdpSocketEPNS0_10IndicationE @4890
    _ZN9DeviceApp19handleUALCMPMessageEv @4891
    _ZN9DeviceApp19sendStartAppContextEN4inet12IntrusivePtrIK15DeviceAppPacketEE @4892
    _ZN9DeviceApp19socketStatusArrivedEPN4inet9TcpSocketEPNS0_13TcpStatusInfoE @4893
    _ZN9DeviceApp6finishEv @4894
    _ZN9DeviceAppC1Ev @4895
    _ZN9DeviceAppC2Ev @4896
    _ZN9DeviceAppD0Ev @4897
    _ZN9DeviceAppD1Ev @4898
    _ZN9DeviceAppD2Ev @4899
    _ZN9GtpUserX210initializeEi @4900
    _ZN9GtpUserX213handleFromUdpEPN4inet6PacketE @4901
    _ZN9GtpUserX213handleMessageEPN7omnetpp8cMessageE @4902
    _ZN9GtpUserX215handleFromStackEPN4inet6PacketE @4903
    _ZN9GtpUserX2D0Ev @4904
    _ZN9GtpUserX2D2Ev @4905
    _ZN9LteMacEnb10initializeEi @4906
    _ZN9LteMacEnb10macPduMakeEj @4907
    _ZN9LteMacEnb10sendGrantsEPSt3mapIdS0_ISt4pairIjtEjSt4lessIS2_ESaIS1_IKS2_jEEES3_IdESaIS1_IKdS8_EEE @4908
    _ZN9LteMacEnb11getCellInfoEv @4909
    _ZN9LteMacEnb12bufferizeBsrEP6MacBsrj @4910
    _ZN9LteMacEnb12deleteQueuesEt @4911
    _ZN9LteMacEnb12getActiveSetE9Direction @4912
    _ZN9LteMacEnb12macHandleRacEPN7omnetpp7cPacketE @4913
    _ZN9LteMacEnb12macPduUnmakeEPN7omnetpp7cPacketE @4914
    _ZN9LteMacEnb13handleMessageEPN7omnetpp8cMessageE @4915
    _ZN9LteMacEnb13macSduRequestEv @4916
    _ZN9LteMacEnb14getNumAntennasEv @4917
    _ZN9LteMacEnb14getUtilizationE9Direction @4918
    _ZN9LteMacEnb15bufferizePacketEPN7omnetpp7cPacketE @4919
    _ZN9LteMacEnb15getDlBandStatusEt @4920
    _ZN9LteMacEnb16flushHarqBuffersEv @4921
    _ZN9LteMacEnb16getConflictGraphEv @4922
    _ZN9LteMacEnb16getProcessForRtxEd9Direction @4923
    _ZN9LteMacEnb17handleSelfMessageEv @4924
    _ZN9LteMacEnb17isReuseD2DEnabledEv @4925
    _ZN9LteMacEnb17updateUserTxParamEPN7omnetpp7cPacketE @4926
    _ZN9LteMacEnb18getActiveUesNumberE9Direction @4927
    _ZN9LteMacEnb18getSchedDisciplineE9Direction @4928
    _ZN9LteMacEnb18handleUpperMessageEPN7omnetpp7cPacketE @4929
    _ZN9LteMacEnb19getDlPrevBandStatusEt @4930
    _ZN9LteMacEnb19signalProcessForRtxEtd9Directionb @4931
    _ZN9LteMacEnb20macHandleFeedbackPktEPN7omnetpp7cPacketE @4932
    _ZN9LteMacEnb22isReuseD2DMultiEnabledEv @4933
    _ZN9LteMacEnb27getBackgroundTrafficManagerEd @4934
    _ZN9LteMacEnb6getAmcEv @4935
    _ZN9LteMacEnbC1Ev @4936
    _ZN9LteMacEnbC2Ev @4937
    _ZN9LteMacEnbD0Ev @4938
    _ZN9LteMacEnbD1Ev @4939
    _ZN9LteMacEnbD2Ev @4940
    _ZN9LteMacPdu11numMacPdus_E @4941 DATA
    _ZN9LteMacPdu15setHeaderLengthEj @4942
    _ZN9LteMacPdu15setSduArraySizeEy @4943
    _ZN9LteMacPdu4copyERKS_ @4944
    _ZN9LteMacPdu5popCeEv @4945
    _ZN9LteMacPdu6popSduEv @4946
    _ZN9LteMacPdu6pushCeEP17MacControlElement @4947
    _ZN9LteMacPdu6setSduEyRKN4inet6PacketE @4948
    _ZN9LteMacPdu7pushSduEPN4inet6PacketE @4949
    _ZN9LteMacPdu8eraseSduEy @4950
    _ZN9LteMacPdu9appendSduERKN4inet6PacketE @4951
    _ZN9LteMacPdu9insertSduEyRKN4inet6PacketE @4952
    _ZN9LteMacPduC2Ev @4953
    _ZN9LteMacPduD0Ev @4954
    _ZN9LteMacPduD2Ev @4955
    _ZN9LtePhyEnb10initializeEi @4956
    _ZN9LtePhyEnb12getDasFilterEv @4957
    _ZN9LtePhyEnb14handleAirFrameEPN7omnetpp8cMessageE @4958
    _ZN9LtePhyEnb15requestFeedbackEP15UserControlInfoP11LteAirFramePN4inet6PacketE @4959
    _ZN9LtePhyEnb16handleControlPktEP15UserControlInfoP11LteAirFrame @4960
    _ZN9LtePhyEnb17handleFeedbackPktEP15UserControlInfoP11LteAirFrame @4961
    _ZN9LtePhyEnb17handleSelfMessageEPN7omnetpp8cMessageE @4962
    _ZN9LtePhyEnb29initializeFeedbackComputationEv @4963
    _ZN9LtePhyEnb30getFeedbackComputationFromNameENSt7__cxx1112basic_stringIcSt11char_traitsIcESaIcEEERSt3mapIS5_N7omnetpp7cMsgParESt4lessIS5_ESaISt4pairIKS5_S8_EEE @4964
    _ZN9LtePhyEnbC1Ev @4965
    _ZN9LtePhyEnbC2Ev @4966
    _ZN9LtePhyEnbD0Ev @4967
    _ZN9LtePhyEnbD1Ev @4968
    _ZN9LtePhyEnbD2Ev @4969
    _ZN9LteRlcMux10initializeEv @4970
    _ZN9LteRlcMux13handleMessageEPN7omnetpp8cMessageE @4971
    _ZN9LteRlcMux6finishEv @4972
    _ZN9LteRlcMux7mac2rlcEPN7omnetpp7cPacketE @4973
    _ZN9LteRlcMux7rlc2macEPN7omnetpp7cPacketE @4974
    _ZN9LteRlcMuxD0Ev @4975
    _ZN9LteRlcPdu12parsimUnpackEPN7omnetpp11cCommBufferE @4976
    _ZN9LteRlcPdu14setSnoFragmentEj @4977
    _ZN9LteRlcPdu16setSnoMainPacketEj @4978
    _ZN9LteRlcPdu17setTotalFragmentsEj @4979
    _ZN9LteRlcPdu4copyERKS_ @4980
    _ZN9LteRlcPduC1ERKS_ @4981
    _ZN9LteRlcPduC1Ev @4982
    _ZN9LteRlcPduC2ERKS_ @4983
    _ZN9LteRlcPduC2Ev @4984
    _ZN9LteRlcPduD0Ev @4985
    _ZN9LteRlcPduD1Ev @4986
    _ZN9LteRlcPduD2Ev @4987
    _ZN9LteRlcPduaSERKS_ @4988
    _ZN9LteRlcSdu12parsimUnpackEPN7omnetpp11cCommBufferE @4989
    _ZN9LteRlcSdu16setSnoMainPacketEj @4990
    _ZN9LteRlcSdu19setLengthMainPacketEj @4991
    _ZN9LteRlcSdu4copyERKS_ @4992
    _ZN9LteRlcSduC1ERKS_ @4993
    _ZN9LteRlcSduC1Ev @4994
    _ZN9LteRlcSduC2ERKS_ @4995
    _ZN9LteRlcSduC2Ev @4996
    _ZN9LteRlcSduD0Ev @4997
    _ZN9LteRlcSduD1Ev @4998
    _ZN9LteRlcSduD2Ev @4999
    _ZN9LteRlcSduaSERKS_ @5000
    _ZN9M1Message12parsimUnpackEPN7omnetpp11cCommBufferE @5001
    _ZN9M1Message12setNumPkSentEl @5002
    _ZN9M1Message13setClientAddrERKN4inet9L3AddressE @5003
    _ZN9M1Message13setClientPortEi @5004
    _ZN9M1Message22getClientAddrForUpdateEv @5005
    _ZN9M1Message4copyERKS_ @5006
    _ZN9M1MessageC1EPKcs @5007
    _ZN9M1MessageC1ERKS_ @5008
    _ZN9M1MessageC2EPKcs @5009
    _ZN9M1MessageC2ERKS_ @5010
    _ZN9M1MessageD0Ev @5011
    _ZN9M1MessageD1Ev @5012
    _ZN9M1MessageD2Ev @5013
    _ZN9M1MessageaSERKS_ @5014
    _ZN9MECPacket12parsimUnpackEPN7omnetpp11cCommBufferE @5015
    _ZN9MECPacket12setTimestampEN7omnetpp7SimTimeE @5016
    _ZN9MECPacket4copyERKS_ @5017
    _ZN9MECPacket6setSnoEj @5018
    _ZN9MECPacket7setTypeEPKc @5019
    _ZN9MECPacketC1ERKS_ @5020
    _ZN9MECPacketC1Ev @5021
    _ZN9MECPacketC2ERKS_ @5022
    _ZN9MECPacketC2Ev @5023
    _ZN9MECPacketD0Ev @5024
    _ZN9MECPacketD1Ev @5025
    _ZN9MECPacketD2Ev @5026
    _ZN9MECPacketaSERKS_ @5027
    _ZN9TTimerMsg10setTimerIdEj @5028
    _ZN9TTimerMsg12parsimUnpackEPN7omnetpp11cCommBufferE @5029
    _ZN9TTimerMsg4copyERKS_ @5030
    _ZN9TTimerMsg7setTypeEt @5031
    _ZN9TTimerMsgC1EPKcs @5032
    _ZN9TTimerMsgC1ERKS_ @5033
    _ZN9TTimerMsgC2EPKcs @5034
    _ZN9TTimerMsgC2ERKS_ @5035
    _ZN9TTimerMsgD0Ev @5036
    _ZN9TTimerMsgD1Ev @5037
    _ZN9TTimerMsgD2Ev @5038
    _ZN9TTimerMsgaSERKS_ @5039
    _ZN9TimeStamp10setSecondsEi @5040
    _ZN9TimeStamp10setSecondsEv @5041
    _ZN9TimeStamp14setNanoSecondsEi @5042
    _ZN9TimeStamp8setValidEb @5043
    _ZN9TimeStampC1Eb @5044
    _ZN9TimeStampC1Ev @5045
    _ZN9TimeStampC2Eb @5046
    _ZN9TimeStampC2Ev @5047
    _ZN9TimeStampD0Ev @5048
    _ZN9TimeStampD1Ev @5049
    _ZN9TimeStampD2Ev @5050
    _ZN9UALCMPApp10initializeEi @5051
    _ZN9UALCMPApp16handleGETRequestEPK18HttpRequestMessagePN4inet9TcpSocketE @5052
    _ZN9UALCMPApp16handlePUTRequestEPK18HttpRequestMessagePN4inet9TcpSocketE @5053
    _ZN9UALCMPApp17handlePOSTRequestEPK18HttpRequestMessagePN4inet9TcpSocketE @5054
    _ZN9UALCMPApp19handleDELETERequestEPK18HttpRequestMessagePN4inet9TcpSocketE @5055
    _ZN9UALCMPApp19handleMessageWhenUpEPN7omnetpp8cMessageE @5056
    _ZN9UALCMPApp20handleStartOperationEPN4inet18LifecycleOperationE @5057
    _ZN9UALCMPApp25parseContextCreateRequestERKN8nlohmann10basic_jsonISt3mapSt6vectorNSt7__cxx1112basic_stringIcSt11char_traitsIcESaIcEEEbxydSaNS0_14adl_serializerES3_IhSaIhEEEE @5058
    _ZN9UALCMPApp32handleCreateContextAppAckMessageEP13UALCMPMessage @5059
    _ZN9UALCMPApp32handleDeleteContextAppAckMessageEP13UALCMPMessage @5060
    _ZN9UALCMPApp32handleTerminateContextAppMessageEP13UALCMPMessage @5061
    _ZN9UALCMPApp6finishEv @5062
    _ZN9UALCMPAppC1Ev @5063
    _ZN9UALCMPAppC2Ev @5064
    _ZN9UALCMPAppD0Ev @5065
    _ZN9UALCMPAppD1Ev @5066
    _ZN9UALCMPAppD2Ev @5067
    _ZN9VoDPacket12parsimUnpackEPN7omnetpp11cCommBufferE @5068
    _ZN9VoDPacket14setFrameLengthEi @5069
    _ZN9VoDPacket14setFrameSeqNumEi @5070
    _ZN9VoDPacket19setPayloadTimestampEN7omnetpp7SimTimeE @5071
    _ZN9VoDPacket4copyERKS_ @5072
    _ZN9VoDPacket6setQidEi @5073
    _ZN9VoDPacket6setTidEi @5074
    _ZN9VoDPacketC1ERKS_ @5075
    _ZN9VoDPacketC1Ev @5076
    _ZN9VoDPacketC2ERKS_ @5077
    _ZN9VoDPacketC2Ev @5078
    _ZN9VoDPacketD0Ev @5079
    _ZN9VoDPacketD1Ev @5080
    _ZN9VoDPacketD2Ev @5081
    _ZN9VoDPacketaSERKS_ @5082
    _ZN9X2CompMsgC1ERKS_ @5083
    _ZN9X2CompMsgC1Ev @5084
    _ZN9X2CompMsgC2ERKS_ @5085
    _ZN9X2CompMsgC2Ev @5086
    _ZN9X2CompMsgD0Ev @5087
    _ZN9X2CompMsgD1Ev @5088
    _ZN9X2CompMsgD2Ev @5089
    _ZN9X2CompMsgaSERKS_ @5090
    _ZN9__gnu_cxx12__to_xstringINSt7__cxx1112basic_stringIcSt11char_traitsIcESaIcEEEcEET_PFiPT0_yPKS8_PcEySB_z @5091
    _ZNK10CellUEInfo6toJsonB5cxx11Ev @5092
    _ZNK10DataPacket10getIDframeEv @5093
    _ZNK10DataPacket10parsimPackEPN7omnetpp11cCommBufferE @5094
    _ZNK10DataPacket12getUeOmnetIDEv @5095
    _ZNK10DataPacket18getCenterPositionXEv @5096
    _ZNK10DataPacket18getCenterPositionYEv @5097
    _ZNK10DataPacket18getCenterPositionZEv @5098
    _ZNK10DataPacket19getPayloadTimestampEv @5099
    _ZNK10DataPacket3dupEv @5100
    _ZNK10DataPacket7getdataEv @5101
    _ZNK10DataPacket9getRadiusEv @5102
    _ZNK10GtpUserMsg10parsimPackEPN7omnetpp11cCommBufferE @5103
    _ZNK10GtpUserMsg3dupEv @5104
    _ZNK10GtpUserMsg7getTeidEv @5105
    _ZNK10LteMacBase13numInitStagesEv @5106
    _ZNK10LteMacBase14refreshDisplayEv @5107
    _ZNK10LtePdcpPdu10parsimPackEPN7omnetpp11cCommBufferE @5108
    _ZNK10LtePdcpPdu3dupEv @5109
    _ZNK10LtePhyBase13numInitStagesEv @5110
    _ZNK10LtePhyBase20getReceiverGateIndexEPKN7omnetpp7cModuleEb @5111
    _ZNK10LteRohcPdu10parsimPackEPN7omnetpp11cCommBufferE @5112
    _ZNK10LteRohcPdu19getOrigSizeIpHeaderEv @5113
    _ZNK10LteRohcPdu26getOrigSizeTransportHeaderEv @5114
    _ZNK10LteRohcPdu3dupEv @5115
    _ZNK10MecAppBase13numInitStagesEv @5116
    _ZNK10VoIPSender13numInitStagesEv @5117
    _ZNK10VoipPacket10getIDframeEv @5118
    _ZNK10VoipPacket10getNframesEv @5119
    _ZNK10VoipPacket10parsimPackEPN7omnetpp11cCommBufferE @5120
    _ZNK10VoipPacket14getArrivalTimeEv @5121
    _ZNK10VoipPacket14getPayloadSizeEv @5122
    _ZNK10VoipPacket14getPlayoutTimeEv @5123
    _ZNK10VoipPacket19getPayloadTimestampEv @5124
    _ZNK10VoipPacket3dupEv @5125
    _ZNK10VoipPacket9getIDtalkEv @5126
    _ZNK11AlertPacket10parsimPackEPN7omnetpp11cCommBufferE @5127
    _ZNK11AlertPacket19getPayloadTimestampEv @5128
    _ZNK11AlertPacket3dupEv @5129
    _ZNK11AlertPacket6getSnoEv @5130
    _ZNK11AlertSender13numInitStagesEv @5131
    _ZNK11AlertSender14refreshDisplayEv @5132
    _ZNK11AssociateId6toJsonB5cxx11Ev @5133
    _ZNK11AssociateId7getTypeB5cxx11Ev @5134
    _ZNK11AssociateId8getValueB5cxx11Ev @5135
    _ZNK11BurstPacket10parsimPackEPN7omnetpp11cCommBufferE @5136
    _ZNK11BurstPacket14getArrivalTimeEv @5137
    _ZNK11BurstPacket14getPayloadSizeEv @5138
    _ZNK11BurstPacket19getPayloadTimestampEv @5139
    _ZNK11BurstPacket3dupEv @5140
    _ZNK11BurstPacket8getMsgIdEv @5141
    _ZNK11BurstSender13numInitStagesEv @5142
    _ZNK11CategoryRef6toJsonB5cxx11Ev @5143
    _ZNK11CbrReceiver13numInitStagesEv @5144
    _ZNK11LteAirFrame3dupEv @5145
    _ZNK11LteFeedback5printEtt9DirectionPKc @5146
    _ZNK11LteMacQueue12getQueueSizeEv @5147
    _ZNK11LteMacQueue14getQueueLengthEv @5148
    _ZNK11LteMacQueue15getHolTimestampEv @5149
    _ZNK11LteMacQueue17getQueueOccupancyEv @5150
    _ZNK11LteMacQueue3dupEv @5151
    _ZNK11LteRlcAmPdu18getBitmapArraySizeEv @5152
    _ZNK11LteRlcAmPdu3dupEv @5153
    _ZNK11LteRlcAmPdu6isLastEv @5154
    _ZNK11LteRlcAmPdu7isFirstEv @5155
    _ZNK11LteRlcAmPdu7isWholeEv @5156
    _ZNK11LteRlcAmPdu8isMiddleEv @5157
    _ZNK11LteRlcAmPdu9getBitmapEy @5158
    _ZNK11LteRlcAmSdu10parsimPackEPN7omnetpp11cCommBufferE @5159
    _ZNK11LteRlcAmSdu3dupEv @5160
    _ZNK11LteRlcUmD2D13numInitStagesEv @5161
    _ZNK11MEAppPacket10getUeAppIDEv @5162
    _ZNK11MEAppPacket10parsimPackEPN7omnetpp11cCommBufferE @5163
    _ZNK11MEAppPacket12getTimestampEv @5164
    _ZNK11MEAppPacket13getSourcePortEv @5165
    _ZNK11MEAppPacket14getRequiredCpuEv @5166
    _ZNK11MEAppPacket14getRequiredRamEv @5167
    _ZNK11MEAppPacket15getMEModuleNameEv @5168
    _ZNK11MEAppPacket15getMEModuleTypeEv @5169
    _ZNK11MEAppPacket15getRequiredDiskEv @5170
    _ZNK11MEAppPacket16getSourceAddressEv @5171
    _ZNK11MEAppPacket18getDestinationPortEv @5172
    _ZNK11MEAppPacket18getRequiredServiceEv @5173
    _ZNK11MEAppPacket21getDestinationAddressEv @5174
    _ZNK11MEAppPacket24getDestinationMecAppPortEv @5175
    _ZNK11MEAppPacket27getDestinationMecAppAddressEv @5176
    _ZNK11MEAppPacket3dupEv @5177
    _ZNK11MEAppPacket6getSnoEv @5178
    _ZNK11MEAppPacket7getTypeEv @5179
    _ZNK11MultihopD2D13numInitStagesEv @5180
    _ZNK11RNICellInfo10toJsonCellB5cxx11Ev @5181
    _ZNK11RNICellInfo15getCollectorMapEv @5182
    _ZNK11RNICellInfo6toJsonB5cxx11Ev @5183
    _ZNK11RNICellInfo7getEcgiEv @5184
    _ZNK11ServiceInfo6toJsonB5cxx11Ev @5185
    _ZNK11TMultiTimer4busyEj @5186
    _ZNK11TMultiTimer4busyEv @5187
    _ZNK11TMultiTimer4idleEv @5188
    _ZNK11UESafetyApp13numInitStagesEv @5189
    _ZNK11X2AppClient13numInitStagesEv @5190
    _ZNK12EndPointInfo6toJsonB5cxx11Ev @5191
    _ZNK12LocationInfo6toJsonB5cxx11Ev @5192
    _ZNK12LteMacBuffer12getProcessedEv @5193
    _ZNK12LteMacBuffer13getPacketlistB5cxx11Ev @5194
    _ZNK12LteMacBuffer14getQueueLengthEv @5195
    _ZNK12LteMacBuffer15getHolTimestampEv @5196
    _ZNK12LteMacBuffer17getQueueOccupancyEv @5197
    _ZNK12LteMacBuffer3dupEv @5198
    _ZNK12LteMacBuffer4backEv @5199
    _ZNK12LteMacBuffer7isEmptyEv @5200
    _ZNK12LteX2Manager13numInitStagesEv @5201
    _ZNK12LteX2Message3dupEv @5202
    _ZNK12LteX2Message5hasIeEv @5203
    _ZNK12LteX2Message9getIeListB5cxx11Ev @5204
    _ZNK12MECSafetyApp13numInitStagesEv @5205
    _ZNK12SafetyPacket10parsimPackEPN7omnetpp11cCommBufferE @5206
    _ZNK12SafetyPacket12getPositionXEv @5207
    _ZNK12SafetyPacket12getPositionYEv @5208
    _ZNK12SafetyPacket12getPositionZEv @5209
    _ZNK12SafetyPacket12getUeOmnetIDEv @5210
    _ZNK12SafetyPacket19getPayloadTimestampEv @5211
    _ZNK12SafetyPacket3dupEv @5212
    _ZNK12SafetyPacket9getDangerEv @5213
    _ZNK12UERequestApp13numInitStagesEv @5214
    _ZNK12UserTxParams3dupEv @5215
    _ZNK12UserTxParams5printEPKc @5216
    _ZNK12VoDUDPClient13numInitStagesEv @5217
    _ZNK12VoDUDPServer13numInitStagesEv @5218
    _ZNK12VoIPReceiver13numInitStagesEv @5219
    _ZNK13AlertReceiver13numInitStagesEv @5220
    _ZNK13AlertReceiver14refreshDisplayEv @5221
    _ZNK13BurstReceiver13numInitStagesEv @5222
    _ZNK13ChannelAccess13numInitStagesEv @5223
    _ZNK13LteRlcDataPdu14getFramingInfoEv @5224
    _ZNK13LteRlcDataPdu20getPduSequenceNumberEv @5225
    _ZNK13LteRlcDataPdu3dupEv @5226
    _ZNK13MecRequestApp13numInitStagesEv @5227
    _ZNK13TransportInfo6toJsonB5cxx11Ev @5228
    _ZNK13UALCMPMessage10parsimPackEPN7omnetpp11cCommBufferE @5229
    _ZNK13UALCMPMessage12getRequestIdEv @5230
    _ZNK13UALCMPMessage15getConnectionIdEv @5231
    _ZNK13UALCMPMessage3dupEv @5232
    _ZNK13UALCMPMessage7getTypeEv @5233
    _ZNK14ChannelControl12getRadioGateEPN15IChannelControl10RadioEntryE @5234
    _ZNK14ChannelControl14getRadioModuleEPN15IChannelControl10RadioEntryE @5235
    _ZNK14ChannelControl15getRadioChannelEPN15IChannelControl10RadioEntryE @5236
    _ZNK14LteControlInfo10getRlcTypeEv @5237
    _ZNK14LteControlInfo10getTrafficEv @5238
    _ZNK14LteControlInfo10parsimPackEPN7omnetpp11cCommBufferE @5239
    _ZNK14LteControlInfo11getSourceIdEv @5240
    _ZNK14LteControlInfo12getDirectionEv @5241
    _ZNK14LteControlInfo14getApplicationEv @5242
    _ZNK14LteControlInfo14getD2dRxPeerIdEv @5243
    _ZNK14LteControlInfo14getD2dTxPeerIdEv @5244
    _ZNK14LteControlInfo19getMulticastGroupIdEv @5245
    _ZNK14LteControlInfo3dupEv @5246
    _ZNK14LteControlInfo7getLcidEv @5247
    _ZNK14LteControlInfo9getDestIdEv @5248
    _ZNK14LteFeedbackPkt15getSourceNodeIdEv @5249
    _ZNK14LteFeedbackPkt28getLteFeedbackDoubleVectorDlEv @5250
    _ZNK14LteFeedbackPkt28getLteFeedbackDoubleVectorUlEv @5251
    _ZNK14LteFeedbackPkt29getLteFeedbackDoubleVectorD2DEv @5252
    _ZNK14LteFeedbackPkt3dupEv @5253
    _ZNK14LteMacPdu_Base10parsimPackEPN7omnetpp11cCommBufferE @5254
    _ZNK14LteMacPdu_Base11getMacPduIdEv @5255
    _ZNK14LteMacPdu_Base15getHeaderLengthEv @5256
    _ZNK14LteMacPdu_Base3dupEv @5257
    _ZNK14LtePdcpRrcBase13numInitStagesEv @5258
    _ZNK14MECResponseApp13numInitStagesEv @5259
    _ZNK14MecResponseApp13numInitStagesEv @5260
    _ZNK14MecServiceBase13numInitStagesEv @5261
    _ZNK14MecServiceBase14refreshDisplayEv @5262
    _ZNK14MigrationTimer10parsimPackEPN7omnetpp11cCommBufferE @5263
    _ZNK14MigrationTimer11getNewAppIdEv @5264
    _ZNK14MigrationTimer11getOldAppIdEv @5265
    _ZNK14MigrationTimer3dupEv @5266
    _ZNK14NRRxPdcpEntity7isEmptyEv @5267
    _ZNK14TMultiTimerMsg10parsimPackEPN7omnetpp11cCommBufferE @5268
    _ZNK14TMultiTimerMsg3dupEv @5269
    _ZNK14TMultiTimerMsg8getEventEv @5270
    _ZNK14TftControlInfo10parsimPackEPN7omnetpp11cCommBufferE @5271
    _ZNK14TftControlInfo3dupEv @5272
    _ZNK14TftControlInfo6getTftEv @5273
    _ZNK15CurrentLocation6toJsonB5cxx11Ev @5274
    _ZNK15DangerAppPacket10parsimPackEPN7omnetpp11cCommBufferE @5275
    _ZNK15DangerAppPacket3dupEv @5276
    _ZNK15DeviceAppPacket10parsimPackEPN7omnetpp11cCommBufferE @5277
    _ZNK15DeviceAppPacket3dupEv @5278
    _ZNK15FlowControlInfo10getDstAddrEv @5279
    _ZNK15FlowControlInfo10getSrcAddrEv @5280
    _ZNK15FlowControlInfo10parsimPackEPN7omnetpp11cCommBufferE @5281
    _ZNK15FlowControlInfo13getHeaderSizeEv @5282
    _ZNK15FlowControlInfo16getTypeOfServiceEv @5283
    _ZNK15FlowControlInfo17getSequenceNumberEv @5284
    _ZNK15FlowControlInfo3dupEv @5285
    _ZNK15FlowControlInfo8getUseNREv @5286
    _ZNK15HttpBaseMessage10parsimPackEPN7omnetpp11cCommBufferE @5287
    _ZNK15HttpBaseMessage13getConnectionEv @5288
    _ZNK15HttpBaseMessage14getArrivalTimeEv @5289
    _ZNK15HttpBaseMessage14getContentTypeEv @5290
    _ZNK15HttpBaseMessage14isReceivingMsgEv @5291
    _ZNK15HttpBaseMessage15getHttpProtocolEv @5292
    _ZNK15HttpBaseMessage16getContentLengthEv @5293
    _ZNK15HttpBaseMessage22getRemainingDataToRecvEv @5294
    _ZNK15HttpBaseMessage3dupEv @5295
    _ZNK15HttpBaseMessage7getBodyEv @5296
    _ZNK15HttpBaseMessage7getTypeEv @5297
    _ZNK15HttpBaseMessage8getStateEv @5298
    _ZNK15HttpBaseMessage9getSockIdEv @5299
    _ZNK15LocationUpdates10parsimPackEPN7omnetpp11cCommBufferE @5300
    _ZNK15LocationUpdates19getcurrentPositionXEv @5301
    _ZNK15LocationUpdates19getcurrentPositionYEv @5302
    _ZNK15LocationUpdates19getcurrentPositionZEv @5303
    _ZNK15LocationUpdates3dupEv @5304
    _ZNK15LteChannelModel11getNumBandsEv @5305
    _ZNK15LteChannelModel13numInitStagesEv @5306
    _ZNK15LteChannelModel18getNumerologyIndexEv @5307
    _ZNK15LteChannelModel19getCarrierFrequencyEv @5308
    _ZNK15LteHarqBufferRx18isHarqBufferActiveEv @5309
    _ZNK15LteHarqBufferTx18isHarqBufferActiveEv @5310
    _ZNK15LteHarqFeedback10parsimPackEPN7omnetpp11cCommBufferE @5311
    _ZNK15LteHarqFeedback13getFbMacPduIdEv @5312
    _ZNK15LteHarqFeedback14getD2dFeedbackEv @5313
    _ZNK15LteHarqFeedback3dupEv @5314
    _ZNK15LteHarqFeedback5getCwEv @5315
    _ZNK15LteHarqFeedback7getAcidEv @5316
    _ZNK15LteHarqFeedback9getResultEv @5317
    _ZNK15LteMuMimoMatrix5printEPKc @5318
    _ZNK15LteRlcUmDataPdu3dupEv @5319
    _ZNK15LteRxPdcpEntity7isEmptyEv @5320
    _ZNK15MecOrchestrator12checkMecHostEiPN7omnetpp7cModuleERKSt3mapIi14mecAppMapEntrySt4lessIiESaISt4pairIKiS4_EEE @5321
    _ZNK15MecOrchestrator13numInitStagesEv @5322
    _ZNK15MecOrchestrator15findPMbyMEChostEPN7omnetpp7cModuleERKSt3mapIi14mecAppMapEntrySt4lessIiESaISt4pairIKiS4_EEE @5323
    _ZNK15MecOrchestrator18registerMecServiceER17ServiceDescriptor @5324
    _ZNK15MecOrchestrator19findDIdByMecUeAppIDB5cxx11EiRKSt3mapIi14mecAppMapEntrySt4lessIiESaISt4pairIKiS1_EEE @5325
    _ZNK15MecOrchestrator19findMecByMecUeAppIDEiRKSt3mapIi14mecAppMapEntrySt4lessIiESaISt4pairIKiS1_EEE @5326
    _ZNK15MecOrchestrator25findContextIdByMecUeAppIDEiRKSt3mapIi14mecAppMapEntrySt4lessIiESaISt4pairIKiS1_EEE @5327
    _ZNK15MecOrchestrator25findMecUeAppIDbycontextIdEiRKSt3mapIi14mecAppMapEntrySt4lessIiESaISt4pairIKiS1_EEE @5328
    _ZNK15MecOrchestrator33getApplicationDescriptorByAppNameERNSt7__cxx1112basic_stringIcSt11char_traitsIcESaIcEEE @5329
    _ZNK15RtxNotification10parsimPackEPN7omnetpp11cCommBufferE @5330
    _ZNK15RtxNotification12getDirectionEv @5331
    _ZNK15RtxNotification3dupEv @5332
    _ZNK15RtxNotification8getBytesEv @5333
    _ZNK15SafetyAppPacket10parsimPackEPN7omnetpp11cCommBufferE @5334
    _ZNK15SafetyAppPacket3dupEv @5335
    _ZNK15ServiceRegistry23getAvailableMecServicesEv @5336
    _ZNK15TrickleTimerMsg10parsimPackEPN7omnetpp11cCommBufferE @5337
    _ZNK15TrickleTimerMsg3dupEv @5338
    _ZNK15TrickleTimerMsg8getMsgidEv @5339
    _ZNK15UserControlInfo3dupEv @5340
    _ZNK15UserControlInfo8getCoordEv @5341
    _ZNK16CreateAppMessage10getUeAppIDEv @5342
    _ZNK16CreateAppMessage10parsimPackEPN7omnetpp11cCommBufferE @5343
    _ZNK16CreateAppMessage12getContextIdEv @5344
    _ZNK16CreateAppMessage12getTimestampEv @5345
    _ZNK16CreateAppMessage13getSourcePortEv @5346
    _ZNK16CreateAppMessage14getRequiredCpuEv @5347
    _ZNK16CreateAppMessage14getRequiredRamEv @5348
    _ZNK16CreateAppMessage15getMEModuleNameEv @5349
    _ZNK16CreateAppMessage15getMEModuleTypeEv @5350
    _ZNK16CreateAppMessage15getRequiredDiskEv @5351
    _ZNK16CreateAppMessage16getSourceAddressEv @5352
    _ZNK16CreateAppMessage18getDestinationPortEv @5353
    _ZNK16CreateAppMessage18getProvidedServiceEv @5354
    _ZNK16CreateAppMessage18getRequiredServiceEv @5355
    _ZNK16CreateAppMessage21getDestinationAddressEv @5356
    _ZNK16CreateAppMessage24getDestinationMecAppPortEv @5357
    _ZNK16CreateAppMessage27getDestinationMecAppAddressEv @5358
    _ZNK16CreateAppMessage3dupEv @5359
    _ZNK16CreateAppMessage6getSnoEv @5360
    _ZNK16CreateAppMessage7getTypeEv @5361
    _ZNK16CreateContextApp10parsimPackEPN7omnetpp11cCommBufferE @5362
    _ZNK16CreateContextApp11getDevAppIdEv @5363
    _ZNK16CreateContextApp12getOnboardedEv @5364
    _ZNK16CreateContextApp14getUeIpAddressEv @5365
    _ZNK16CreateContextApp17getAppPackagePathEv @5366
    _ZNK16CreateContextApp3dupEv @5367
    _ZNK16CreateContextApp9getAppDIdEv @5368
    _ZNK16DeleteAppMessage10getUeAppIDEv @5369
    _ZNK16DeleteAppMessage10parsimPackEPN7omnetpp11cCommBufferE @5370
    _ZNK16DeleteAppMessage12getTimestampEv @5371
    _ZNK16DeleteAppMessage13getSourcePortEv @5372
    _ZNK16DeleteAppMessage14getRequiredCpuEv @5373
    _ZNK16DeleteAppMessage14getRequiredRamEv @5374
    _ZNK16DeleteAppMessage15getMEModuleNameEv @5375
    _ZNK16DeleteAppMessage15getMEModuleTypeEv @5376
    _ZNK16DeleteAppMessage15getRequiredDiskEv @5377
    _ZNK16DeleteAppMessage16getSourceAddressEv @5378
    _ZNK16DeleteAppMessage18getDestinationPortEv @5379
    _ZNK16DeleteAppMessage18getRequiredServiceEv @5380
    _ZNK16DeleteAppMessage21getDestinationAddressEv @5381
    _ZNK16DeleteAppMessage24getDestinationMecAppPortEv @5382
    _ZNK16DeleteAppMessage27getDestinationMecAppAddressEv @5383
    _ZNK16DeleteAppMessage3dupEv @5384
    _ZNK16DeleteAppMessage6getSnoEv @5385
    _ZNK16DeleteAppMessage7getTypeEv @5386
    _ZNK16LocationResource10toJsonCellB5cxx11ERSt6vectorItSaItEE @5387
    _ZNK16LocationResource15getUserByNodeIdEtt @5388
    _ZNK16LocationResource18getUserListPerCellB5cxx11ESt23_Rb_tree_const_iteratorISt4pairIKtP8CellInfoEE @5389
    _ZNK16LocationResource19getUserInfoByNodeIdEtt @5390
    _ZNK16LocationResource6toJsonB5cxx11ERSt6vectorItSaItEERS0_IN4inet11Ipv4AddressESaIS5_EE @5391
    _ZNK16LocationResource6toJsonB5cxx11Ev @5392
    _ZNK16LocationResource8toJsonUeB5cxx11ERSt6vectorIN4inet11Ipv4AddressESaIS2_EE @5393
    _ZNK16LteAirFrame_Base10parsimPackEPN7omnetpp11cCommBufferE @5394
    _ZNK16LteAirFrame_Base3dupEv @5395
    _ZNK16LteMacSduRequest3dupEv @5396
    _ZNK16LteRacDescriptor11doesSupportEPN7omnetpp7cObjectE @5397
    _ZNK16LteRacDescriptor11getPropertyEPKc @5398
    _ZNK16LteRacDescriptor12getFieldNameEi @5399
    _ZNK16LteRacDescriptor13getFieldCountEv @5400
    _ZNK16LteRacDescriptor13getFieldValueEN7omnetpp7any_ptrEii @5401
    _ZNK16LteRacDescriptor13setFieldValueEN7omnetpp7any_ptrEiiRKNS0_6cValueE @5402
    _ZNK16LteRacDescriptor16getFieldPropertyEiPKc @5403
    _ZNK16LteRacDescriptor16getPropertyNamesEv @5404
    _ZNK16LteRacDescriptor17getFieldArraySizeEN7omnetpp7any_ptrEi @5405
    _ZNK16LteRacDescriptor17getFieldTypeFlagsEi @5406
    _ZNK16LteRacDescriptor17setFieldArraySizeEN7omnetpp7any_ptrEii @5407
    _ZNK16LteRacDescriptor18getFieldStructNameEi @5408
    _ZNK16LteRacDescriptor18getFieldTypeStringEi @5409
    _ZNK16LteRacDescriptor21getFieldPropertyNamesEi @5410
    _ZNK16LteRacDescriptor21getFieldValueAsStringB5cxx11EN7omnetpp7any_ptrEii @5411
    _ZNK16LteRacDescriptor21setFieldValueAsStringEN7omnetpp7any_ptrEiiPKc @5412
    _ZNK16LteRacDescriptor25getFieldDynamicTypeStringEN7omnetpp7any_ptrEii @5413
    _ZNK16LteRacDescriptor26getFieldStructValuePointerEN7omnetpp7any_ptrEii @5414
    _ZNK16LteRacDescriptor26setFieldStructValuePointerEN7omnetpp7any_ptrEiiS1_ @5415
    _ZNK16LteRacDescriptor9findFieldEPKc @5416
    _ZNK16LteRlcAmPdu_Base10getFirstSnEv @5417
    _ZNK16LteRlcAmPdu_Base10parsimPackEPN7omnetpp11cCommBufferE @5418
    _ZNK16LteRlcAmPdu_Base11getTxNumberEv @5419
    _ZNK16LteRlcAmPdu_Base3dupEv @5420
    _ZNK16LteRlcAmPdu_Base9getAmTypeEv @5421
    _ZNK16LteRlcAmPdu_Base9getLastSnEv @5422
    _ZNK16LteRlcPduNewData10parsimPackEPN7omnetpp11cCommBufferE @5423
    _ZNK16LteRlcPduNewData3dupEv @5424
    _ZNK16MacBsrDescriptor11doesSupportEPN7omnetpp7cObjectE @5425
    _ZNK16MacBsrDescriptor11getPropertyEPKc @5426
    _ZNK16MacBsrDescriptor12getFieldNameEi @5427
    _ZNK16MacBsrDescriptor13getFieldCountEv @5428
    _ZNK16MacBsrDescriptor13getFieldValueEN7omnetpp7any_ptrEii @5429
    _ZNK16MacBsrDescriptor13setFieldValueEN7omnetpp7any_ptrEiiRKNS0_6cValueE @5430
    _ZNK16MacBsrDescriptor16getFieldPropertyEiPKc @5431
    _ZNK16MacBsrDescriptor16getPropertyNamesEv @5432
    _ZNK16MacBsrDescriptor17getFieldArraySizeEN7omnetpp7any_ptrEi @5433
    _ZNK16MacBsrDescriptor17getFieldTypeFlagsEi @5434
    _ZNK16MacBsrDescriptor17setFieldArraySizeEN7omnetpp7any_ptrEii @5435
    _ZNK16MacBsrDescriptor18getFieldStructNameEi @5436
    _ZNK16MacBsrDescriptor18getFieldTypeStringEi @5437
    _ZNK16MacBsrDescriptor21getFieldPropertyNamesEi @5438
    _ZNK16MacBsrDescriptor21getFieldValueAsStringB5cxx11EN7omnetpp7any_ptrEii @5439
    _ZNK16MacBsrDescriptor21setFieldValueAsStringEN7omnetpp7any_ptrEiiPKc @5440
    _ZNK16MacBsrDescriptor25getFieldDynamicTypeStringEN7omnetpp7any_ptrEii @5441
    _ZNK16MacBsrDescriptor26getFieldStructValuePointerEN7omnetpp7any_ptrEii @5442
    _ZNK16MacBsrDescriptor26setFieldStructValuePointerEN7omnetpp7any_ptrEiiS1_ @5443
    _ZNK16MacBsrDescriptor9findFieldEPKc @5444
    _ZNK16SafetyStopPacket10parsimPackEPN7omnetpp11cCommBufferE @5445
    _ZNK16SafetyStopPacket3dupEv @5446
    _ZNK16SubscriptionBase15getSocketConnIdEv @5447
    _ZNK16SubscriptionBase17getSubscriptionIdEv @5448
    _ZNK16SubscriptionBase19getSubscriptionTypeB5cxx11Ev @5449
    _ZNK16TerminalLocation6toJsonB5cxx11Ev @5450
    _ZNK16UeStatsCollector13numInitStagesEv @5451
    _ZNK16WarningAppPacket10parsimPackEPN7omnetpp11cCommBufferE @5452
    _ZNK16WarningAppPacket3dupEv @5453
    _ZNK16X2ControlInfoTag10parsimPackEPN7omnetpp11cCommBufferE @5454
    _ZNK16X2ControlInfoTag11getSourceIdEv @5455
    _ZNK16X2ControlInfoTag13getDestIdListB5cxx11Ev @5456
    _ZNK16X2ControlInfoTag3dupEv @5457
    _ZNK16X2ControlInfoTag7getInitEv @5458
    _ZNK17DangerAlertPacket10parsimPackEPN7omnetpp11cCommBufferE @5459
    _ZNK17DangerAlertPacket14getArrivalTimeEv @5460
    _ZNK17DangerAlertPacket14getPayloadSizeEv @5461
    _ZNK17DangerAlertPacket17getisInDangerZoneEv @5462
    _ZNK17DangerAlertPacket19getPayloadTimestampEv @5463
    _ZNK17DangerAlertPacket3dupEv @5464
    _ZNK17DangerAlertPacket8getMsgIdEv @5465
    _ZNK17EventNotification7getTypeB5cxx11Ev @5466
    _ZNK17EventNotification8getSubIdEv @5467
    _ZNK17LteX2Message_Base10parsimPackEPN7omnetpp11cCommBufferE @5468
    _ZNK17LteX2Message_Base11getSourceIdEv @5469
    _ZNK17LteX2Message_Base16getDestinationIdEv @5470
    _ZNK17LteX2Message_Base3dupEv @5471
    _ZNK17MacControlElement10parsimPackEPN7omnetpp11cCommBufferE @5472
    _ZNK17MacControlElement12getTimestampEv @5473
    _ZNK17MrwDescDescriptor11doesSupportEPN7omnetpp7cObjectE @5474
    _ZNK17MrwDescDescriptor11getPropertyEPKc @5475
    _ZNK17MrwDescDescriptor12getFieldNameEi @5476
    _ZNK17MrwDescDescriptor13getFieldCountEv @5477
    _ZNK17MrwDescDescriptor13getFieldValueEN7omnetpp7any_ptrEii @5478
    _ZNK17MrwDescDescriptor13setFieldValueEN7omnetpp7any_ptrEiiRKNS0_6cValueE @5479
    _ZNK17MrwDescDescriptor16getFieldPropertyEiPKc @5480
    _ZNK17MrwDescDescriptor16getPropertyNamesEv @5481
    _ZNK17MrwDescDescriptor17getFieldArraySizeEN7omnetpp7any_ptrEi @5482
    _ZNK17MrwDescDescriptor17getFieldTypeFlagsEi @5483
    _ZNK17MrwDescDescriptor17setFieldArraySizeEN7omnetpp7any_ptrEii @5484
    _ZNK17MrwDescDescriptor18getFieldStructNameEi @5485
    _ZNK17MrwDescDescriptor18getFieldTypeStringEi @5486
    _ZNK17MrwDescDescriptor21getFieldPropertyNamesEi @5487
    _ZNK17MrwDescDescriptor21getFieldValueAsStringB5cxx11EN7omnetpp7any_ptrEii @5488
    _ZNK17MrwDescDescriptor21setFieldValueAsStringEN7omnetpp7any_ptrEiiPKc @5489
    _ZNK17MrwDescDescriptor25getFieldDynamicTypeStringEN7omnetpp7any_ptrEii @5490
    _ZNK17MrwDescDescriptor26getFieldStructValuePointerEN7omnetpp7any_ptrEii @5491
    _ZNK17MrwDescDescriptor26setFieldStructValuePointerEN7omnetpp7any_ptrEiiS1_ @5492
    _ZNK17MrwDescDescriptor9findFieldEPKc @5493
    _ZNK17MultihopD2DPacket10parsimPackEPN7omnetpp11cCommBufferE @5494
    _ZNK17MultihopD2DPacket11getSrcCoordEv @5495
    _ZNK17MultihopD2DPacket12getMaxRadiusEv @5496
    _ZNK17MultihopD2DPacket14getPayloadSizeEv @5497
    _ZNK17MultihopD2DPacket18getLastHopSenderIdEv @5498
    _ZNK17MultihopD2DPacket19getPayloadTimestampEv @5499
    _ZNK17MultihopD2DPacket3dupEv @5500
    _ZNK17MultihopD2DPacket6getTtlEv @5501
    _ZNK17MultihopD2DPacket7getHopsEv @5502
    _ZNK17MultihopD2DPacket8getMsgidEv @5503
    _ZNK17MultihopD2DPacket8getSrcIdEv @5504
    _ZNK17SafetyStartPacket10parsimPackEPN7omnetpp11cCommBufferE @5505
    _ZNK17SafetyStartPacket18getCenterPositionXEv @5506
    _ZNK17SafetyStartPacket18getCenterPositionYEv @5507
    _ZNK17SafetyStartPacket18getCenterPositionZEv @5508
    _ZNK17SafetyStartPacket19getPayloadTimestampEv @5509
    _ZNK17SafetyStartPacket3dupEv @5510
    _ZNK17SafetyStartPacket9getRadiusEv @5511
    _ZNK17TrafficFlowFilter13numInitStagesEv @5512
    _ZNK17UEWarningAlertApp13numInitStagesEv @5513
    _ZNK17WarningStopPacket10parsimPackEPN7omnetpp11cCommBufferE @5514
    _ZNK17WarningStopPacket3dupEv @5515
    _ZNK17X2HandoverDataMsg3dupEv @5516
    _ZNK18AirFrameDescriptor11doesSupportEPN7omnetpp7cObjectE @5517
    _ZNK18AirFrameDescriptor11getPropertyEPKc @5518
    _ZNK18AirFrameDescriptor12getFieldNameEi @5519
    _ZNK18AirFrameDescriptor13getFieldCountEv @5520
    _ZNK18AirFrameDescriptor13getFieldValueEN7omnetpp7any_ptrEii @5521
    _ZNK18AirFrameDescriptor13setFieldValueEN7omnetpp7any_ptrEiiRKNS0_6cValueE @5522
    _ZNK18AirFrameDescriptor16getFieldPropertyEiPKc @5523
    _ZNK18AirFrameDescriptor16getPropertyNamesEv @5524
    _ZNK18AirFrameDescriptor17getFieldArraySizeEN7omnetpp7any_ptrEi @5525
    _ZNK18AirFrameDescriptor17getFieldTypeFlagsEi @5526
    _ZNK18AirFrameDescriptor17setFieldArraySizeEN7omnetpp7any_ptrEii @5527
    _ZNK18AirFrameDescriptor18getFieldStructNameEi @5528
    _ZNK18AirFrameDescriptor18getFieldTypeStringEi @5529
    _ZNK18AirFrameDescriptor21getFieldPropertyNamesEi @5530
    _ZNK18AirFrameDescriptor21getFieldValueAsStringB5cxx11EN7omnetpp7any_ptrEii @5531
    _ZNK18AirFrameDescriptor21setFieldValueAsStringEN7omnetpp7any_ptrEiiPKc @5532
    _ZNK18AirFrameDescriptor25getFieldDynamicTypeStringEN7omnetpp7any_ptrEii @5533
    _ZNK18AirFrameDescriptor26getFieldStructValuePointerEN7omnetpp7any_ptrEii @5534
    _ZNK18AirFrameDescriptor26setFieldStructValuePointerEN7omnetpp7any_ptrEiiS1_ @5535
    _ZNK18AirFrameDescriptor9findFieldEPKc @5536
    _ZNK18HttpRequestMessage10getPayloadB5cxx11Ev @5537
    _ZNK18HttpRequestMessage19isBackgroundRequestEv @5538
    _ZNK18HttpRequestMessage23isLastBackgroundRequestEv @5539
    _ZNK18HttpRequestMessage3dupEv @5540
    _ZNK18LteRlcDataPdu_Base10parsimPackEPN7omnetpp11cCommBufferE @5541
    _ZNK18LteRlcDataPdu_Base3dupEv @5542
    _ZNK18LteSchedulingGrant17getGrantedCwBytesEy @5543
    _ZNK18LteSchedulingGrant26getGrantedCwBytesArraySizeEv @5544
    _ZNK18LteSchedulingGrant3dupEv @5545
    _ZNK18LteSummaryFeedback10confidenceEN7omnetpp7SimTimeE @5546
    _ZNK18LteSummaryFeedback5printEtt9Direction6TxModePKc @5547
    _ZNK18LteX2MsgSerializer11deserializeERN4inet17MemoryInputStreamE @5548
    _ZNK18LteX2MsgSerializer18serializeStatusMapERN4inet18MemoryOutputStreamESt6vectorI12CompRbStatusSaIS4_EE @5549
    _ZNK18LteX2MsgSerializer20deserializeStatusMapERN4inet17MemoryInputStreamE @5550
    _ZNK18LteX2MsgSerializer9serializeERN4inet18MemoryOutputStreamERKNS0_12IntrusivePtrIKNS0_5ChunkEEE @5551
    _ZNK18MECWarningAlertApp13numInitStagesEv @5552
    _ZNK18MecPlatformManager13numInitStagesEv @5553
    _ZNK18MecPlatformManager18registerMecServiceER17ServiceDescriptor @5554
    _ZNK18MecPlatformManager23getAvailableMecServicesEv @5555
    _ZNK18MecPlatformManager25sendMigrationNotificationEi @5556
    _ZNK18WarningAlertPacket10parsimPackEPN7omnetpp11cCommBufferE @5557
    _ZNK18WarningAlertPacket12getPositionXEv @5558
    _ZNK18WarningAlertPacket12getPositionYEv @5559
    _ZNK18WarningAlertPacket12getPositionZEv @5560
    _ZNK18WarningAlertPacket12getUeOmnetIDEv @5561
    _ZNK18WarningAlertPacket19getPayloadTimestampEv @5562
    _ZNK18WarningAlertPacket3dupEv @5563
    _ZNK18WarningAlertPacket9getDangerEv @5564
    _ZNK18WarningStartPacket10parsimPackEPN7omnetpp11cCommBufferE @5565
    _ZNK18WarningStartPacket18getCenterPositionXEv @5566
    _ZNK18WarningStartPacket18getCenterPositionYEv @5567
    _ZNK18WarningStartPacket18getCenterPositionZEv @5568
    _ZNK18WarningStartPacket19getPayloadTimestampEv @5569
    _ZNK18WarningStartPacket3dupEv @5570
    _ZNK18WarningStartPacket9getRadiusEv @5571
    _ZNK19BackgroundScheduler13numInitStagesEv @5572
    _ZNK19CbrPacketDescriptor11doesSupportEPN7omnetpp7cObjectE @5573
    _ZNK19CbrPacketDescriptor11getPropertyEPKc @5574
    _ZNK19CbrPacketDescriptor12getFieldNameEi @5575
    _ZNK19CbrPacketDescriptor13getFieldCountEv @5576
    _ZNK19CbrPacketDescriptor13getFieldValueEN7omnetpp7any_ptrEii @5577
    _ZNK19CbrPacketDescriptor13setFieldValueEN7omnetpp7any_ptrEiiRKNS0_6cValueE @5578
    _ZNK19CbrPacketDescriptor16getFieldPropertyEiPKc @5579
    _ZNK19CbrPacketDescriptor16getPropertyNamesEv @5580
    _ZNK19CbrPacketDescriptor17getFieldArraySizeEN7omnetpp7any_ptrEi @5581
    _ZNK19CbrPacketDescriptor17getFieldTypeFlagsEi @5582
    _ZNK19CbrPacketDescriptor17setFieldArraySizeEN7omnetpp7any_ptrEii @5583
    _ZNK19CbrPacketDescriptor18getFieldStructNameEi @5584
    _ZNK19CbrPacketDescriptor18getFieldTypeStringEi @5585
    _ZNK19CbrPacketDescriptor21getFieldPropertyNamesEi @5586
    _ZNK19CbrPacketDescriptor21getFieldValueAsStringB5cxx11EN7omnetpp7any_ptrEii @5587
    _ZNK19CbrPacketDescriptor21setFieldValueAsStringEN7omnetpp7any_ptrEiiPKc @5588
    _ZNK19CbrPacketDescriptor25getFieldDynamicTypeStringEN7omnetpp7any_ptrEii @5589
    _ZNK19CbrPacketDescriptor26getFieldStructValuePointerEN7omnetpp7any_ptrEii @5590
    _ZNK19CbrPacketDescriptor26setFieldStructValuePointerEN7omnetpp7any_ptrEiiS1_ @5591
    _ZNK19CbrPacketDescriptor9findFieldEPKc @5592
    _ZNK19CreateContextAppAck10getSuccessEv @5593
    _ZNK19CreateContextAppAck10parsimPackEPN7omnetpp11cCommBufferE @5594
    _ZNK19CreateContextAppAck12getContextIdEv @5595
    _ZNK19CreateContextAppAck16getAppInstanceIdEv @5596
    _ZNK19CreateContextAppAck17getAppInstanceUriEv @5597
    _ZNK19CreateContextAppAck3dupEv @5598
    _ZNK19DeviceAppStopPacket10parsimPackEPN7omnetpp11cCommBufferE @5599
    _ZNK19DeviceAppStopPacket12getContextIdEv @5600
    _ZNK19DeviceAppStopPacket3dupEv @5601
    _ZNK19HttpResponseMessage10getPayloadB5cxx11Ev @5602
    _ZNK19HttpResponseMessage14getHeaderFieldERKNSt7__cxx1112basic_stringIcSt11char_traitsIcESaIcEEE @5603
    _ZNK19HttpResponseMessage3dupEv @5604
    _ZNK19LteAllocationModule13getMuMimoPeerEt @5605
    _ZNK19LteFeedbackPkt_Base10parsimPackEPN7omnetpp11cCommBufferE @5606
    _ZNK19LteFeedbackPkt_Base3dupEv @5607
    _ZNK19LteMacPduDescriptor11doesSupportEPN7omnetpp7cObjectE @5608
    _ZNK19LteMacPduDescriptor11getPropertyEPKc @5609
    _ZNK19LteMacPduDescriptor12getFieldNameEi @5610
    _ZNK19LteMacPduDescriptor13getFieldCountEv @5611
    _ZNK19LteMacPduDescriptor13getFieldValueEN7omnetpp7any_ptrEii @5612
    _ZNK19LteMacPduDescriptor13setFieldValueEN7omnetpp7any_ptrEiiRKNS0_6cValueE @5613
    _ZNK19LteMacPduDescriptor16getFieldPropertyEiPKc @5614
    _ZNK19LteMacPduDescriptor16getPropertyNamesEv @5615
    _ZNK19LteMacPduDescriptor17getFieldArraySizeEN7omnetpp7any_ptrEi @5616
    _ZNK19LteMacPduDescriptor17getFieldTypeFlagsEi @5617
    _ZNK19LteMacPduDescriptor17setFieldArraySizeEN7omnetpp7any_ptrEii @5618
    _ZNK19LteMacPduDescriptor18getFieldStructNameEi @5619
    _ZNK19LteMacPduDescriptor18getFieldTypeStringEi @5620
    _ZNK19LteMacPduDescriptor21getFieldPropertyNamesEi @5621
    _ZNK19LteMacPduDescriptor21getFieldValueAsStringB5cxx11EN7omnetpp7any_ptrEii @5622
    _ZNK19LteMacPduDescriptor21setFieldValueAsStringEN7omnetpp7any_ptrEiiPKc @5623
    _ZNK19LteMacPduDescriptor25getFieldDynamicTypeStringEN7omnetpp7any_ptrEii @5624
    _ZNK19LteMacPduDescriptor26getFieldStructValuePointerEN7omnetpp7any_ptrEii @5625
    _ZNK19LteMacPduDescriptor26setFieldStructValuePointerEN7omnetpp7any_ptrEiiS1_ @5626
    _ZNK19LteMacPduDescriptor9findFieldEPKc @5627
    _ZNK19LteRlcPduDescriptor11doesSupportEPN7omnetpp7cObjectE @5628
    _ZNK19LteRlcPduDescriptor11getPropertyEPKc @5629
    _ZNK19LteRlcPduDescriptor12getFieldNameEi @5630
    _ZNK19LteRlcPduDescriptor13getFieldCountEv @5631
    _ZNK19LteRlcPduDescriptor13getFieldValueEN7omnetpp7any_ptrEii @5632
    _ZNK19LteRlcPduDescriptor13setFieldValueEN7omnetpp7any_ptrEiiRKNS0_6cValueE @5633
    _ZNK19LteRlcPduDescriptor16getFieldPropertyEiPKc @5634
    _ZNK19LteRlcPduDescriptor16getPropertyNamesEv @5635
    _ZNK19LteRlcPduDescriptor17getFieldArraySizeEN7omnetpp7any_ptrEi @5636
    _ZNK19LteRlcPduDescriptor17getFieldTypeFlagsEi @5637
    _ZNK19LteRlcPduDescriptor17setFieldArraySizeEN7omnetpp7any_ptrEii @5638
    _ZNK19LteRlcPduDescriptor18getFieldStructNameEi @5639
    _ZNK19LteRlcPduDescriptor18getFieldTypeStringEi @5640
    _ZNK19LteRlcPduDescriptor21getFieldPropertyNamesEi @5641
    _ZNK19LteRlcPduDescriptor21getFieldValueAsStringB5cxx11EN7omnetpp7any_ptrEii @5642
    _ZNK19LteRlcPduDescriptor21setFieldValueAsStringEN7omnetpp7any_ptrEiiPKc @5643
    _ZNK19LteRlcPduDescriptor25getFieldDynamicTypeStringEN7omnetpp7any_ptrEii @5644
    _ZNK19LteRlcPduDescriptor26getFieldStructValuePointerEN7omnetpp7any_ptrEii @5645
    _ZNK19LteRlcPduDescriptor26setFieldStructValuePointerEN7omnetpp7any_ptrEiiS1_ @5646
    _ZNK19LteRlcPduDescriptor9findFieldEPKc @5647
    _ZNK19LteRlcSduDescriptor11doesSupportEPN7omnetpp7cObjectE @5648
    _ZNK19LteRlcSduDescriptor11getPropertyEPKc @5649
    _ZNK19LteRlcSduDescriptor12getFieldNameEi @5650
    _ZNK19LteRlcSduDescriptor13getFieldCountEv @5651
    _ZNK19LteRlcSduDescriptor13getFieldValueEN7omnetpp7any_ptrEii @5652
    _ZNK19LteRlcSduDescriptor13setFieldValueEN7omnetpp7any_ptrEiiRKNS0_6cValueE @5653
    _ZNK19LteRlcSduDescriptor16getFieldPropertyEiPKc @5654
    _ZNK19LteRlcSduDescriptor16getPropertyNamesEv @5655
    _ZNK19LteRlcSduDescriptor17getFieldArraySizeEN7omnetpp7any_ptrEi @5656
    _ZNK19LteRlcSduDescriptor17getFieldTypeFlagsEi @5657
    _ZNK19LteRlcSduDescriptor17setFieldArraySizeEN7omnetpp7any_ptrEii @5658
    _ZNK19LteRlcSduDescriptor18getFieldStructNameEi @5659
    _ZNK19LteRlcSduDescriptor18getFieldTypeStringEi @5660
    _ZNK19LteRlcSduDescriptor21getFieldPropertyNamesEi @5661
    _ZNK19LteRlcSduDescriptor21getFieldValueAsStringB5cxx11EN7omnetpp7any_ptrEii @5662
    _ZNK19LteRlcSduDescriptor21setFieldValueAsStringEN7omnetpp7any_ptrEiiPKc @5663
    _ZNK19LteRlcSduDescriptor25getFieldDynamicTypeStringEN7omnetpp7any_ptrEii @5664
    _ZNK19LteRlcSduDescriptor26getFieldStructValuePointerEN7omnetpp7any_ptrEii @5665
    _ZNK19LteRlcSduDescriptor26setFieldStructValuePointerEN7omnetpp7any_ptrEiiS1_ @5666
    _ZNK19LteRlcSduDescriptor9findFieldEPKc @5667
    _ZNK19M1MessageDescriptor11doesSupportEPN7omnetpp7cObjectE @5668
    _ZNK19M1MessageDescriptor11getPropertyEPKc @5669
    _ZNK19M1MessageDescriptor12getFieldNameEi @5670
    _ZNK19M1MessageDescriptor13getFieldCountEv @5671
    _ZNK19M1MessageDescriptor13getFieldValueEN7omnetpp7any_ptrEii @5672
    _ZNK19M1MessageDescriptor13setFieldValueEN7omnetpp7any_ptrEiiRKNS0_6cValueE @5673
    _ZNK19M1MessageDescriptor16getFieldPropertyEiPKc @5674
    _ZNK19M1MessageDescriptor16getPropertyNamesEv @5675
    _ZNK19M1MessageDescriptor17getFieldArraySizeEN7omnetpp7any_ptrEi @5676
    _ZNK19M1MessageDescriptor17getFieldTypeFlagsEi @5677
    _ZNK19M1MessageDescriptor17setFieldArraySizeEN7omnetpp7any_ptrEii @5678
    _ZNK19M1MessageDescriptor18getFieldStructNameEi @5679
    _ZNK19M1MessageDescriptor18getFieldTypeStringEi @5680
    _ZNK19M1MessageDescriptor21getFieldPropertyNamesEi @5681
    _ZNK19M1MessageDescriptor21getFieldValueAsStringB5cxx11EN7omnetpp7any_ptrEii @5682
    _ZNK19M1MessageDescriptor21setFieldValueAsStringEN7omnetpp7any_ptrEiiPKc @5683
    _ZNK19M1MessageDescriptor25getFieldDynamicTypeStringEN7omnetpp7any_ptrEii @5684
    _ZNK19M1MessageDescriptor26getFieldStructValuePointerEN7omnetpp7any_ptrEii @5685
    _ZNK19M1MessageDescriptor26setFieldStructValuePointerEN7omnetpp7any_ptrEiiS1_ @5686
    _ZNK19M1MessageDescriptor9findFieldEPKc @5687
    _ZNK19MECPacketDescriptor11doesSupportEPN7omnetpp7cObjectE @5688
    _ZNK19MECPacketDescriptor11getPropertyEPKc @5689
    _ZNK19MECPacketDescriptor12getFieldNameEi @5690
    _ZNK19MECPacketDescriptor13getFieldCountEv @5691
    _ZNK19MECPacketDescriptor13getFieldValueEN7omnetpp7any_ptrEii @5692
    _ZNK19MECPacketDescriptor13setFieldValueEN7omnetpp7any_ptrEiiRKNS0_6cValueE @5693
    _ZNK19MECPacketDescriptor16getFieldPropertyEiPKc @5694
    _ZNK19MECPacketDescriptor16getPropertyNamesEv @5695
    _ZNK19MECPacketDescriptor17getFieldArraySizeEN7omnetpp7any_ptrEi @5696
    _ZNK19MECPacketDescriptor17getFieldTypeFlagsEi @5697
    _ZNK19MECPacketDescriptor17setFieldArraySizeEN7omnetpp7any_ptrEii @5698
    _ZNK19MECPacketDescriptor18getFieldStructNameEi @5699
    _ZNK19MECPacketDescriptor18getFieldTypeStringEi @5700
    _ZNK19MECPacketDescriptor21getFieldPropertyNamesEi @5701
    _ZNK19MECPacketDescriptor21getFieldValueAsStringB5cxx11EN7omnetpp7any_ptrEii @5702
    _ZNK19MECPacketDescriptor21setFieldValueAsStringEN7omnetpp7any_ptrEiiPKc @5703
    _ZNK19MECPacketDescriptor25getFieldDynamicTypeStringEN7omnetpp7any_ptrEii @5704
    _ZNK19MECPacketDescriptor26getFieldStructValuePointerEN7omnetpp7any_ptrEii @5705
    _ZNK19MECPacketDescriptor26setFieldStructValuePointerEN7omnetpp7any_ptrEiiS1_ @5706
    _ZNK19MECPacketDescriptor9findFieldEPKc @5707
    _ZNK19TTimerMsgDescriptor11doesSupportEPN7omnetpp7cObjectE @5708
    _ZNK19TTimerMsgDescriptor11getPropertyEPKc @5709
    _ZNK19TTimerMsgDescriptor12getFieldNameEi @5710
    _ZNK19TTimerMsgDescriptor13getFieldCountEv @5711
    _ZNK19TTimerMsgDescriptor13getFieldValueEN7omnetpp7any_ptrEii @5712
    _ZNK19TTimerMsgDescriptor13setFieldValueEN7omnetpp7any_ptrEiiRKNS0_6cValueE @5713
    _ZNK19TTimerMsgDescriptor16getFieldPropertyEiPKc @5714
    _ZNK19TTimerMsgDescriptor16getPropertyNamesEv @5715
    _ZNK19TTimerMsgDescriptor17getFieldArraySizeEN7omnetpp7any_ptrEi @5716
    _ZNK19TTimerMsgDescriptor17getFieldTypeFlagsEi @5717
    _ZNK19TTimerMsgDescriptor17setFieldArraySizeEN7omnetpp7any_ptrEii @5718
    _ZNK19TTimerMsgDescriptor18getFieldStructNameEi @5719
    _ZNK19TTimerMsgDescriptor18getFieldTypeStringEi @5720
    _ZNK19TTimerMsgDescriptor21getFieldPropertyNamesEi @5721
    _ZNK19TTimerMsgDescriptor21getFieldValueAsStringB5cxx11EN7omnetpp7any_ptrEii @5722
    _ZNK19TTimerMsgDescriptor21setFieldValueAsStringEN7omnetpp7any_ptrEiiPKc @5723
    _ZNK19TTimerMsgDescriptor25getFieldDynamicTypeStringEN7omnetpp7any_ptrEii @5724
    _ZNK19TTimerMsgDescriptor26getFieldStructValuePointerEN7omnetpp7any_ptrEii @5725
    _ZNK19TTimerMsgDescriptor26setFieldStructValuePointerEN7omnetpp7any_ptrEiiS1_ @5726
    _ZNK19TTimerMsgDescriptor9findFieldEPKc @5727
    _ZNK19VoDPacketDescriptor11doesSupportEPN7omnetpp7cObjectE @5728
    _ZNK19VoDPacketDescriptor11getPropertyEPKc @5729
    _ZNK19VoDPacketDescriptor12getFieldNameEi @5730
    _ZNK19VoDPacketDescriptor13getFieldCountEv @5731
    _ZNK19VoDPacketDescriptor13getFieldValueEN7omnetpp7any_ptrEii @5732
    _ZNK19VoDPacketDescriptor13setFieldValueEN7omnetpp7any_ptrEiiRKNS0_6cValueE @5733
    _ZNK19VoDPacketDescriptor16getFieldPropertyEiPKc @5734
    _ZNK19VoDPacketDescriptor16getPropertyNamesEv @5735
    _ZNK19VoDPacketDescriptor17getFieldArraySizeEN7omnetpp7any_ptrEi @5736
    _ZNK19VoDPacketDescriptor17getFieldTypeFlagsEi @5737
    _ZNK19VoDPacketDescriptor17setFieldArraySizeEN7omnetpp7any_ptrEii @5738
    _ZNK19VoDPacketDescriptor18getFieldStructNameEi @5739
    _ZNK19VoDPacketDescriptor18getFieldTypeStringEi @5740
    _ZNK19VoDPacketDescriptor21getFieldPropertyNamesEi @5741
    _ZNK19VoDPacketDescriptor21getFieldValueAsStringB5cxx11EN7omnetpp7any_ptrEii @5742
    _ZNK19VoDPacketDescriptor21setFieldValueAsStringEN7omnetpp7any_ptrEiiPKc @5743
    _ZNK19VoDPacketDescriptor25getFieldDynamicTypeStringEN7omnetpp7any_ptrEii @5744
    _ZNK19VoDPacketDescriptor26getFieldStructValuePointerEN7omnetpp7any_ptrEii @5745
    _ZNK19VoDPacketDescriptor26setFieldStructValuePointerEN7omnetpp7any_ptrEiiS1_ @5746
    _ZNK19VoDPacketDescriptor9findFieldEPKc @5747
    _ZNK19X2HandoverCommandIE3dupEv @5748
    _ZNK20ActiveUeNotification10parsimPackEPN7omnetpp11cCommBufferE @5749
    _ZNK20ActiveUeNotification3dupEv @5750
    _ZNK20ActiveUeNotification8getIndexEv @5751
    _ZNK20D2DModeSelectionBase13numInitStagesEv @5752
    _ZNK20DataPacketDescriptor11doesSupportEPN7omnetpp7cObjectE @5753
    _ZNK20DataPacketDescriptor11getPropertyEPKc @5754
    _ZNK20DataPacketDescriptor12getFieldNameEi @5755
    _ZNK20DataPacketDescriptor13getFieldCountEv @5756
    _ZNK20DataPacketDescriptor13getFieldValueEN7omnetpp7any_ptrEii @5757
    _ZNK20DataPacketDescriptor13setFieldValueEN7omnetpp7any_ptrEiiRKNS0_6cValueE @5758
    _ZNK20DataPacketDescriptor16getFieldPropertyEiPKc @5759
    _ZNK20DataPacketDescriptor16getPropertyNamesEv @5760
    _ZNK20DataPacketDescriptor17getFieldArraySizeEN7omnetpp7any_ptrEi @5761
    _ZNK20DataPacketDescriptor17getFieldTypeFlagsEi @5762
    _ZNK20DataPacketDescriptor17setFieldArraySizeEN7omnetpp7any_ptrEii @5763
    _ZNK20DataPacketDescriptor18getFieldStructNameEi @5764
    _ZNK20DataPacketDescriptor18getFieldTypeStringEi @5765
    _ZNK20DataPacketDescriptor21getFieldPropertyNamesEi @5766
    _ZNK20DataPacketDescriptor21getFieldValueAsStringB5cxx11EN7omnetpp7any_ptrEii @5767
    _ZNK20DataPacketDescriptor21setFieldValueAsStringEN7omnetpp7any_ptrEiiPKc @5768
    _ZNK20DataPacketDescriptor25getFieldDynamicTypeStringEN7omnetpp7any_ptrEii @5769
    _ZNK20DataPacketDescriptor26getFieldStructValuePointerEN7omnetpp7any_ptrEii @5770
    _ZNK20DataPacketDescriptor26setFieldStructValuePointerEN7omnetpp7any_ptrEiiS1_ @5771
    _ZNK20DataPacketDescriptor9findFieldEPKc @5772
    _ZNK20DeviceAppStartPacket10parsimPackEPN7omnetpp11cCommBufferE @5773
    _ZNK20DeviceAppStartPacket12getMecAppDIdEv @5774
    _ZNK20DeviceAppStartPacket13getMecAppNameEv @5775
    _ZNK20DeviceAppStartPacket17getMecAppProviderEv @5776
    _ZNK20DeviceAppStartPacket19getAppPackageSourceEv @5777
    _ZNK20DeviceAppStartPacket19getPayloadTimestampEv @5778
    _ZNK20DeviceAppStartPacket3dupEv @5779
    _ZNK20GtpUserMsgDescriptor11doesSupportEPN7omnetpp7cObjectE @5780
    _ZNK20GtpUserMsgDescriptor11getPropertyEPKc @5781
    _ZNK20GtpUserMsgDescriptor12getFieldNameEi @5782
    _ZNK20GtpUserMsgDescriptor13getFieldCountEv @5783
    _ZNK20GtpUserMsgDescriptor13getFieldValueEN7omnetpp7any_ptrEii @5784
    _ZNK20GtpUserMsgDescriptor13setFieldValueEN7omnetpp7any_ptrEiiRKNS0_6cValueE @5785
    _ZNK20GtpUserMsgDescriptor16getFieldPropertyEiPKc @5786
    _ZNK20GtpUserMsgDescriptor16getPropertyNamesEv @5787
    _ZNK20GtpUserMsgDescriptor17getFieldArraySizeEN7omnetpp7any_ptrEi @5788
    _ZNK20GtpUserMsgDescriptor17getFieldTypeFlagsEi @5789
    _ZNK20GtpUserMsgDescriptor17setFieldArraySizeEN7omnetpp7any_ptrEii @5790
    _ZNK20GtpUserMsgDescriptor18getFieldStructNameEi @5791
    _ZNK20GtpUserMsgDescriptor18getFieldTypeStringEi @5792
    _ZNK20GtpUserMsgDescriptor21getFieldPropertyNamesEi @5793
    _ZNK20GtpUserMsgDescriptor21getFieldValueAsStringB5cxx11EN7omnetpp7any_ptrEii @5794
    _ZNK20GtpUserMsgDescriptor21setFieldValueAsStringEN7omnetpp7any_ptrEiiPKc @5795
    _ZNK20GtpUserMsgDescriptor25getFieldDynamicTypeStringEN7omnetpp7any_ptrEii @5796
    _ZNK20GtpUserMsgDescriptor26getFieldStructValuePointerEN7omnetpp7any_ptrEii @5797
    _ZNK20GtpUserMsgDescriptor26setFieldStructValuePointerEN7omnetpp7any_ptrEiiS1_ @5798
    _ZNK20GtpUserMsgDescriptor9findFieldEPKc @5799
    _ZNK20GtpUserMsgSerializer11deserializeERN4inet17MemoryInputStreamE @5800
    _ZNK20GtpUserMsgSerializer9serializeERN4inet18MemoryOutputStreamERKNS0_12IntrusivePtrIKNS0_5ChunkEEE @5801
    _ZNK20HttpRequestMessage_m10parsimPackEPN7omnetpp11cCommBufferE @5802
    _ZNK20HttpRequestMessage_m13getParametersEv @5803
    _ZNK20HttpRequestMessage_m15getResponseTimeEv @5804
    _ZNK20HttpRequestMessage_m3dupEv @5805
    _ZNK20HttpRequestMessage_m6getUriEv @5806
    _ZNK20HttpRequestMessage_m7getHostEv @5807
    _ZNK20HttpRequestMessage_m9getMethodEv @5808
    _ZNK20LtePdcpPduDescriptor11doesSupportEPN7omnetpp7cObjectE @5809
    _ZNK20LtePdcpPduDescriptor11getPropertyEPKc @5810
    _ZNK20LtePdcpPduDescriptor12getFieldNameEi @5811
    _ZNK20LtePdcpPduDescriptor13getFieldCountEv @5812
    _ZNK20LtePdcpPduDescriptor13getFieldValueEN7omnetpp7any_ptrEii @5813
    _ZNK20LtePdcpPduDescriptor13setFieldValueEN7omnetpp7any_ptrEiiRKNS0_6cValueE @5814
    _ZNK20LtePdcpPduDescriptor16getFieldPropertyEiPKc @5815
    _ZNK20LtePdcpPduDescriptor16getPropertyNamesEv @5816
    _ZNK20LtePdcpPduDescriptor17getFieldArraySizeEN7omnetpp7any_ptrEi @5817
    _ZNK20LtePdcpPduDescriptor17getFieldTypeFlagsEi @5818
    _ZNK20LtePdcpPduDescriptor17setFieldArraySizeEN7omnetpp7any_ptrEii @5819
    _ZNK20LtePdcpPduDescriptor18getFieldStructNameEi @5820
    _ZNK20LtePdcpPduDescriptor18getFieldTypeStringEi @5821
    _ZNK20LtePdcpPduDescriptor21getFieldPropertyNamesEi @5822
    _ZNK20LtePdcpPduDescriptor21getFieldValueAsStringB5cxx11EN7omnetpp7any_ptrEii @5823
    _ZNK20LtePdcpPduDescriptor21setFieldValueAsStringEN7omnetpp7any_ptrEiiPKc @5824
    _ZNK20LtePdcpPduDescriptor25getFieldDynamicTypeStringEN7omnetpp7any_ptrEii @5825
    _ZNK20LtePdcpPduDescriptor26getFieldStructValuePointerEN7omnetpp7any_ptrEii @5826
    _ZNK20LtePdcpPduDescriptor26setFieldStructValuePointerEN7omnetpp7any_ptrEiiS1_ @5827
    _ZNK20LtePdcpPduDescriptor9findFieldEPKc @5828
    _ZNK20LteRohcPduDescriptor11doesSupportEPN7omnetpp7cObjectE @5829
    _ZNK20LteRohcPduDescriptor11getPropertyEPKc @5830
    _ZNK20LteRohcPduDescriptor12getFieldNameEi @5831
    _ZNK20LteRohcPduDescriptor13getFieldCountEv @5832
    _ZNK20LteRohcPduDescriptor13getFieldValueEN7omnetpp7any_ptrEii @5833
    _ZNK20LteRohcPduDescriptor13setFieldValueEN7omnetpp7any_ptrEiiRKNS0_6cValueE @5834
    _ZNK20LteRohcPduDescriptor16getFieldPropertyEiPKc @5835
    _ZNK20LteRohcPduDescriptor16getPropertyNamesEv @5836
    _ZNK20LteRohcPduDescriptor17getFieldArraySizeEN7omnetpp7any_ptrEi @5837
    _ZNK20LteRohcPduDescriptor17getFieldTypeFlagsEi @5838
    _ZNK20LteRohcPduDescriptor17setFieldArraySizeEN7omnetpp7any_ptrEii @5839
    _ZNK20LteRohcPduDescriptor18getFieldStructNameEi @5840
    _ZNK20LteRohcPduDescriptor18getFieldTypeStringEi @5841
    _ZNK20LteRohcPduDescriptor21getFieldPropertyNamesEi @5842
    _ZNK20LteRohcPduDescriptor21getFieldValueAsStringB5cxx11EN7omnetpp7any_ptrEii @5843
    _ZNK20LteRohcPduDescriptor21setFieldValueAsStringEN7omnetpp7any_ptrEiiPKc @5844
    _ZNK20LteRohcPduDescriptor25getFieldDynamicTypeStringEN7omnetpp7any_ptrEii @5845
    _ZNK20LteRohcPduDescriptor26getFieldStructValuePointerEN7omnetpp7any_ptrEii @5846
    _ZNK20LteRohcPduDescriptor26setFieldStructValuePointerEN7omnetpp7any_ptrEiiS1_ @5847
    _ZNK20LteRohcPduDescriptor9findFieldEPKc @5848
    _ZNK20TrafficGeneratorBase13numInitStagesEv @5849
    _ZNK20TrafficLightMobility13numInitStagesEv @5850
    _ZNK20UserControlInfo_Base10getGrantIdEv @5851
    _ZNK20UserControlInfo_Base10getTxPowerEv @5852
    _ZNK20UserControlInfo_Base10parsimPackEPN7omnetpp11cCommBufferE @5853
    _ZNK20UserControlInfo_Base11getTxNumberEv @5854
    _ZNK20UserControlInfo_Base11isBroadcastEv @5855
    _ZNK20UserControlInfo_Base12getBlerValueEv @5856
    _ZNK20UserControlInfo_Base12getFrameTypeEv @5857
    _ZNK20UserControlInfo_Base13getD2dTxPowerEv @5858
    _ZNK20UserControlInfo_Base13isCorruptibleEv @5859
    _ZNK20UserControlInfo_Base16getDeciderResultEv @5860
    _ZNK20UserControlInfo_Base19getCarrierFrequencyEv @5861
    _ZNK20UserControlInfo_Base21getTotalGrantedBlocksEv @5862
    _ZNK20UserControlInfo_Base3dupEv @5863
    _ZNK20UserControlInfo_Base4isNrEv @5864
    _ZNK20UserControlInfo_Base5getCwEv @5865
    _ZNK20UserControlInfo_Base6getNdiEv @5866
    _ZNK20UserControlInfo_Base7getAcidEv @5867
    _ZNK20UserControlInfo_Base9getBlerThEv @5868
    _ZNK20UserControlInfo_Base9getTxModeEv @5869
    _ZNK20VoipPacketDescriptor11doesSupportEPN7omnetpp7cObjectE @5870
    _ZNK20VoipPacketDescriptor11getPropertyEPKc @5871
    _ZNK20VoipPacketDescriptor12getFieldNameEi @5872
    _ZNK20VoipPacketDescriptor13getFieldCountEv @5873
    _ZNK20VoipPacketDescriptor13getFieldValueEN7omnetpp7any_ptrEii @5874
    _ZNK20VoipPacketDescriptor13setFieldValueEN7omnetpp7any_ptrEiiRKNS0_6cValueE @5875
    _ZNK20VoipPacketDescriptor16getFieldPropertyEiPKc @5876
    _ZNK20VoipPacketDescriptor16getPropertyNamesEv @5877
    _ZNK20VoipPacketDescriptor17getFieldArraySizeEN7omnetpp7any_ptrEi @5878
    _ZNK20VoipPacketDescriptor17getFieldTypeFlagsEi @5879
    _ZNK20VoipPacketDescriptor17setFieldArraySizeEN7omnetpp7any_ptrEii @5880
    _ZNK20VoipPacketDescriptor18getFieldStructNameEi @5881
    _ZNK20VoipPacketDescriptor18getFieldTypeStringEi @5882
    _ZNK20VoipPacketDescriptor21getFieldPropertyNamesEi @5883
    _ZNK20VoipPacketDescriptor21getFieldValueAsStringB5cxx11EN7omnetpp7any_ptrEii @5884
    _ZNK20VoipPacketDescriptor21setFieldValueAsStringEN7omnetpp7any_ptrEiiPKc @5885
    _ZNK20VoipPacketDescriptor25getFieldDynamicTypeStringEN7omnetpp7any_ptrEii @5886
    _ZNK20VoipPacketDescriptor26getFieldStructValuePointerEN7omnetpp7any_ptrEii @5887
    _ZNK20VoipPacketDescriptor26setFieldStructValuePointerEN7omnetpp7any_ptrEiiS1_ @5888
    _ZNK20VoipPacketDescriptor9findFieldEPKc @5889
    _ZNK20VoipPacketSerializer11deserializeERN4inet17MemoryInputStreamE @5890
    _ZNK20VoipPacketSerializer9serializeERN4inet18MemoryOutputStreamERKNS0_12IntrusivePtrIKNS0_5ChunkEEE @5891
    _ZNK20X2HandoverControlMsg3dupEv @5892
    _ZNK20X2InformationElement3dupEv @5893
    _ZNK20X2InformationElement7getTypeEv @5894
    _ZNK20X2InformationElement9getLengthEv @5895
    _ZNK21AlertPacketDescriptor11doesSupportEPN7omnetpp7cObjectE @5896
    _ZNK21AlertPacketDescriptor11getPropertyEPKc @5897
    _ZNK21AlertPacketDescriptor12getFieldNameEi @5898
    _ZNK21AlertPacketDescriptor13getFieldCountEv @5899
    _ZNK21AlertPacketDescriptor13getFieldValueEN7omnetpp7any_ptrEii @5900
    _ZNK21AlertPacketDescriptor13setFieldValueEN7omnetpp7any_ptrEiiRKNS0_6cValueE @5901
    _ZNK21AlertPacketDescriptor16getFieldPropertyEiPKc @5902
    _ZNK21AlertPacketDescriptor16getPropertyNamesEv @5903
    _ZNK21AlertPacketDescriptor17getFieldArraySizeEN7omnetpp7any_ptrEi @5904
    _ZNK21AlertPacketDescriptor17getFieldTypeFlagsEi @5905
    _ZNK21AlertPacketDescriptor17setFieldArraySizeEN7omnetpp7any_ptrEii @5906
    _ZNK21AlertPacketDescriptor18getFieldStructNameEi @5907
    _ZNK21AlertPacketDescriptor18getFieldTypeStringEi @5908
    _ZNK21AlertPacketDescriptor21getFieldPropertyNamesEi @5909
    _ZNK21AlertPacketDescriptor21getFieldValueAsStringB5cxx11EN7omnetpp7any_ptrEii @5910
    _ZNK21AlertPacketDescriptor21setFieldValueAsStringEN7omnetpp7any_ptrEiiPKc @5911
    _ZNK21AlertPacketDescriptor25getFieldDynamicTypeStringEN7omnetpp7any_ptrEii @5912
    _ZNK21AlertPacketDescriptor26getFieldStructValuePointerEN7omnetpp7any_ptrEii @5913
    _ZNK21AlertPacketDescriptor26setFieldStructValuePointerEN7omnetpp7any_ptrEiiS1_ @5914
    _ZNK21AlertPacketDescriptor9findFieldEPKc @5915
    _ZNK21ApplicationDescriptor26printApplicationDescriptorEv @5916
    _ZNK21ApplicationDescriptor9toAppInfoB5cxx11Ev @5917
    _ZNK21BurstPacketDescriptor11doesSupportEPN7omnetpp7cObjectE @5918
    _ZNK21BurstPacketDescriptor11getPropertyEPKc @5919
    _ZNK21BurstPacketDescriptor12getFieldNameEi @5920
    _ZNK21BurstPacketDescriptor13getFieldCountEv @5921
    _ZNK21BurstPacketDescriptor13getFieldValueEN7omnetpp7any_ptrEii @5922
    _ZNK21BurstPacketDescriptor13setFieldValueEN7omnetpp7any_ptrEiiRKNS0_6cValueE @5923
    _ZNK21BurstPacketDescriptor16getFieldPropertyEiPKc @5924
    _ZNK21BurstPacketDescriptor16getPropertyNamesEv @5925
    _ZNK21BurstPacketDescriptor17getFieldArraySizeEN7omnetpp7any_ptrEi @5926
    _ZNK21BurstPacketDescriptor17getFieldTypeFlagsEi @5927
    _ZNK21BurstPacketDescriptor17setFieldArraySizeEN7omnetpp7any_ptrEii @5928
    _ZNK21BurstPacketDescriptor18getFieldStructNameEi @5929
    _ZNK21BurstPacketDescriptor18getFieldTypeStringEi @5930
    _ZNK21BurstPacketDescriptor21getFieldPropertyNamesEi @5931
    _ZNK21BurstPacketDescriptor21getFieldValueAsStringB5cxx11EN7omnetpp7any_ptrEii @5932
    _ZNK21BurstPacketDescriptor21setFieldValueAsStringEN7omnetpp7any_ptrEiiPKc @5933
    _ZNK21BurstPacketDescriptor25getFieldDynamicTypeStringEN7omnetpp7any_ptrEii @5934
    _ZNK21BurstPacketDescriptor26getFieldStructValuePointerEN7omnetpp7any_ptrEii @5935
    _ZNK21BurstPacketDescriptor26setFieldStructValuePointerEN7omnetpp7any_ptrEiiS1_ @5936
    _ZNK21BurstPacketDescriptor9findFieldEPKc @5937
    _ZNK21HttpResponseMessage_m10parsimPackEPN7omnetpp11cCommBufferE @5938
    _ZNK21HttpResponseMessage_m3dupEv @5939
    _ZNK21HttpResponseMessage_m7getCodeEv @5940
    _ZNK21HttpResponseMessage_m9getStatusEv @5941
    _ZNK21LteAirFrameDescriptor11doesSupportEPN7omnetpp7cObjectE @5942
    _ZNK21LteAirFrameDescriptor11getPropertyEPKc @5943
    _ZNK21LteAirFrameDescriptor12getFieldNameEi @5944
    _ZNK21LteAirFrameDescriptor13getFieldCountEv @5945
    _ZNK21LteAirFrameDescriptor13getFieldValueEN7omnetpp7any_ptrEii @5946
    _ZNK21LteAirFrameDescriptor13setFieldValueEN7omnetpp7any_ptrEiiRKNS0_6cValueE @5947
    _ZNK21LteAirFrameDescriptor16getFieldPropertyEiPKc @5948
    _ZNK21LteAirFrameDescriptor16getPropertyNamesEv @5949
    _ZNK21LteAirFrameDescriptor17getFieldArraySizeEN7omnetpp7any_ptrEi @5950
    _ZNK21LteAirFrameDescriptor17getFieldTypeFlagsEi @5951
    _ZNK21LteAirFrameDescriptor17setFieldArraySizeEN7omnetpp7any_ptrEii @5952
    _ZNK21LteAirFrameDescriptor18getFieldStructNameEi @5953
    _ZNK21LteAirFrameDescriptor18getFieldTypeStringEi @5954
    _ZNK21LteAirFrameDescriptor21getFieldPropertyNamesEi @5955
    _ZNK21LteAirFrameDescriptor21getFieldValueAsStringB5cxx11EN7omnetpp7any_ptrEii @5956
    _ZNK21LteAirFrameDescriptor21setFieldValueAsStringEN7omnetpp7any_ptrEiiPKc @5957
    _ZNK21LteAirFrameDescriptor25getFieldDynamicTypeStringEN7omnetpp7any_ptrEii @5958
    _ZNK21LteAirFrameDescriptor26getFieldStructValuePointerEN7omnetpp7any_ptrEii @5959
    _ZNK21LteAirFrameDescriptor26setFieldStructValuePointerEN7omnetpp7any_ptrEiiS1_ @5960
    _ZNK21LteAirFrameDescriptor9findFieldEPKc @5961
    _ZNK21LteHarqFeedbackMirror10parsimPackEPN7omnetpp11cCommBufferE @5962
    _ZNK21LteHarqFeedbackMirror12getPduLengthEv @5963
    _ZNK21LteHarqFeedbackMirror14getD2dSenderIdEv @5964
    _ZNK21LteHarqFeedbackMirror16getD2dReceiverIdEv @5965
    _ZNK21LteHarqFeedbackMirror3dupEv @5966
    _ZNK21LteMacSduRequest_Base10getSduSizeEv @5967
    _ZNK21LteMacSduRequest_Base10parsimPackEPN7omnetpp11cCommBufferE @5968
    _ZNK21LteMacSduRequest_Base3dupEv @5969
    _ZNK21LteRlcAmPduDescriptor11doesSupportEPN7omnetpp7cObjectE @5970
    _ZNK21LteRlcAmPduDescriptor11getPropertyEPKc @5971
    _ZNK21LteRlcAmPduDescriptor12getFieldNameEi @5972
    _ZNK21LteRlcAmPduDescriptor13getFieldCountEv @5973
    _ZNK21LteRlcAmPduDescriptor13getFieldValueEN7omnetpp7any_ptrEii @5974
    _ZNK21LteRlcAmPduDescriptor13setFieldValueEN7omnetpp7any_ptrEiiRKNS0_6cValueE @5975
    _ZNK21LteRlcAmPduDescriptor16getFieldPropertyEiPKc @5976
    _ZNK21LteRlcAmPduDescriptor16getPropertyNamesEv @5977
    _ZNK21LteRlcAmPduDescriptor17getFieldArraySizeEN7omnetpp7any_ptrEi @5978
    _ZNK21LteRlcAmPduDescriptor17getFieldTypeFlagsEi @5979
    _ZNK21LteRlcAmPduDescriptor17setFieldArraySizeEN7omnetpp7any_ptrEii @5980
    _ZNK21LteRlcAmPduDescriptor18getFieldStructNameEi @5981
    _ZNK21LteRlcAmPduDescriptor18getFieldTypeStringEi @5982
    _ZNK21LteRlcAmPduDescriptor21getFieldPropertyNamesEi @5983
    _ZNK21LteRlcAmPduDescriptor21getFieldValueAsStringB5cxx11EN7omnetpp7any_ptrEii @5984
    _ZNK21LteRlcAmPduDescriptor21setFieldValueAsStringEN7omnetpp7any_ptrEiiPKc @5985
    _ZNK21LteRlcAmPduDescriptor25getFieldDynamicTypeStringEN7omnetpp7any_ptrEii @5986
    _ZNK21LteRlcAmPduDescriptor26getFieldStructValuePointerEN7omnetpp7any_ptrEii @5987
    _ZNK21LteRlcAmPduDescriptor26setFieldStructValuePointerEN7omnetpp7any_ptrEiiS1_ @5988
    _ZNK21LteRlcAmPduDescriptor9findFieldEPKc @5989
    _ZNK21LteRlcAmSduDescriptor11doesSupportEPN7omnetpp7cObjectE @5990
    _ZNK21LteRlcAmSduDescriptor11getPropertyEPKc @5991
    _ZNK21LteRlcAmSduDescriptor12getFieldNameEi @5992
    _ZNK21LteRlcAmSduDescriptor13getFieldCountEv @5993
    _ZNK21LteRlcAmSduDescriptor13getFieldValueEN7omnetpp7any_ptrEii @5994
    _ZNK21LteRlcAmSduDescriptor13setFieldValueEN7omnetpp7any_ptrEiiRKNS0_6cValueE @5995
    _ZNK21LteRlcAmSduDescriptor16getFieldPropertyEiPKc @5996
    _ZNK21LteRlcAmSduDescriptor16getPropertyNamesEv @5997
    _ZNK21LteRlcAmSduDescriptor17getFieldArraySizeEN7omnetpp7any_ptrEi @5998
    _ZNK21LteRlcAmSduDescriptor17getFieldTypeFlagsEi @5999
    _ZNK21LteRlcAmSduDescriptor17setFieldArraySizeEN7omnetpp7any_ptrEii @6000
    _ZNK21LteRlcAmSduDescriptor18getFieldStructNameEi @6001
    _ZNK21LteRlcAmSduDescriptor18getFieldTypeStringEi @6002
    _ZNK21LteRlcAmSduDescriptor21getFieldPropertyNamesEi @6003
    _ZNK21LteRlcAmSduDescriptor21getFieldValueAsStringB5cxx11EN7omnetpp7any_ptrEii @6004
    _ZNK21LteRlcAmSduDescriptor21setFieldValueAsStringEN7omnetpp7any_ptrEiiPKc @6005
    _ZNK21LteRlcAmSduDescriptor25getFieldDynamicTypeStringEN7omnetpp7any_ptrEii @6006
    _ZNK21LteRlcAmSduDescriptor26getFieldStructValuePointerEN7omnetpp7any_ptrEii @6007
    _ZNK21LteRlcAmSduDescriptor26setFieldStructValuePointerEN7omnetpp7any_ptrEiiS1_ @6008
    _ZNK21LteRlcAmSduDescriptor9findFieldEPKc @6009
    _ZNK21MEAppPacketDescriptor11doesSupportEPN7omnetpp7cObjectE @6010
    _ZNK21MEAppPacketDescriptor11getPropertyEPKc @6011
    _ZNK21MEAppPacketDescriptor12getFieldNameEi @6012
    _ZNK21MEAppPacketDescriptor13getFieldCountEv @6013
    _ZNK21MEAppPacketDescriptor13getFieldValueEN7omnetpp7any_ptrEii @6014
    _ZNK21MEAppPacketDescriptor13setFieldValueEN7omnetpp7any_ptrEiiRKNS0_6cValueE @6015
    _ZNK21MEAppPacketDescriptor16getFieldPropertyEiPKc @6016
    _ZNK21MEAppPacketDescriptor16getPropertyNamesEv @6017
    _ZNK21MEAppPacketDescriptor17getFieldArraySizeEN7omnetpp7any_ptrEi @6018
    _ZNK21MEAppPacketDescriptor17getFieldTypeFlagsEi @6019
    _ZNK21MEAppPacketDescriptor17setFieldArraySizeEN7omnetpp7any_ptrEii @6020
    _ZNK21MEAppPacketDescriptor18getFieldStructNameEi @6021
    _ZNK21MEAppPacketDescriptor18getFieldTypeStringEi @6022
    _ZNK21MEAppPacketDescriptor21getFieldPropertyNamesEi @6023
    _ZNK21MEAppPacketDescriptor21getFieldValueAsStringB5cxx11EN7omnetpp7any_ptrEii @6024
    _ZNK21MEAppPacketDescriptor21setFieldValueAsStringEN7omnetpp7any_ptrEiiPKc @6025
    _ZNK21MEAppPacketDescriptor25getFieldDynamicTypeStringEN7omnetpp7any_ptrEii @6026
    _ZNK21MEAppPacketDescriptor26getFieldStructValuePointerEN7omnetpp7any_ptrEii @6027
    _ZNK21MEAppPacketDescriptor26setFieldStructValuePointerEN7omnetpp7any_ptrEiiS1_ @6028
    _ZNK21MEAppPacketDescriptor9findFieldEPKc @6029
    _ZNK21PacketFlowManagerBase13numInitStagesEv @6030
    _ZNK21ProcessingTimeMessage10parsimPackEPN7omnetpp11cCommBufferE @6031
    _ZNK21ProcessingTimeMessage11getSocketIdEv @6032
    _ZNK21ProcessingTimeMessage3dupEv @6033
    _ZNK21RlcFragDescDescriptor11doesSupportEPN7omnetpp7cObjectE @6034
    _ZNK21RlcFragDescDescriptor11getPropertyEPKc @6035
    _ZNK21RlcFragDescDescriptor12getFieldNameEi @6036
    _ZNK21RlcFragDescDescriptor13getFieldCountEv @6037
    _ZNK21RlcFragDescDescriptor13getFieldValueEN7omnetpp7any_ptrEii @6038
    _ZNK21RlcFragDescDescriptor13setFieldValueEN7omnetpp7any_ptrEiiRKNS0_6cValueE @6039
    _ZNK21RlcFragDescDescriptor16getFieldPropertyEiPKc @6040
    _ZNK21RlcFragDescDescriptor16getPropertyNamesEv @6041
    _ZNK21RlcFragDescDescriptor17getFieldArraySizeEN7omnetpp7any_ptrEi @6042
    _ZNK21RlcFragDescDescriptor17getFieldTypeFlagsEi @6043
    _ZNK21RlcFragDescDescriptor17setFieldArraySizeEN7omnetpp7any_ptrEii @6044
    _ZNK21RlcFragDescDescriptor18getFieldStructNameEi @6045
    _ZNK21RlcFragDescDescriptor18getFieldTypeStringEi @6046
    _ZNK21RlcFragDescDescriptor21getFieldPropertyNamesEi @6047
    _ZNK21RlcFragDescDescriptor21getFieldValueAsStringB5cxx11EN7omnetpp7any_ptrEii @6048
    _ZNK21RlcFragDescDescriptor21setFieldValueAsStringEN7omnetpp7any_ptrEiiPKc @6049
    _ZNK21RlcFragDescDescriptor25getFieldDynamicTypeStringEN7omnetpp7any_ptrEii @6050
    _ZNK21RlcFragDescDescriptor26getFieldStructValuePointerEN7omnetpp7any_ptrEii @6051
    _ZNK21RlcFragDescDescriptor26setFieldStructValuePointerEN7omnetpp7any_ptrEiiS1_ @6052
    _ZNK21RlcFragDescDescriptor9findFieldEPKc @6053
    _ZNK22DeviceAppStopAckPacket10parsimPackEPN7omnetpp11cCommBufferE @6054
    _ZNK22DeviceAppStopAckPacket3dupEv @6055
    _ZNK22DeviceAppStopAckPacket9getReasonEv @6056
    _ZNK22DeviceAppStopAckPacket9getResultEv @6057
    _ZNK22LteDlFeedbackGenerator13numInitStagesEv @6058
    _ZNK22LteX2MessageDescriptor11doesSupportEPN7omnetpp7cObjectE @6059
    _ZNK22LteX2MessageDescriptor11getPropertyEPKc @6060
    _ZNK22LteX2MessageDescriptor12getFieldNameEi @6061
    _ZNK22LteX2MessageDescriptor13getFieldCountEv @6062
    _ZNK22LteX2MessageDescriptor13getFieldValueEN7omnetpp7any_ptrEii @6063
    _ZNK22LteX2MessageDescriptor13setFieldValueEN7omnetpp7any_ptrEiiRKNS0_6cValueE @6064
    _ZNK22LteX2MessageDescriptor16getFieldPropertyEiPKc @6065
    _ZNK22LteX2MessageDescriptor16getPropertyNamesEv @6066
    _ZNK22LteX2MessageDescriptor17getFieldArraySizeEN7omnetpp7any_ptrEi @6067
    _ZNK22LteX2MessageDescriptor17getFieldTypeFlagsEi @6068
    _ZNK22LteX2MessageDescriptor17setFieldArraySizeEN7omnetpp7any_ptrEii @6069
    _ZNK22LteX2MessageDescriptor18getFieldStructNameEi @6070
    _ZNK22LteX2MessageDescriptor18getFieldTypeStringEi @6071
    _ZNK22LteX2MessageDescriptor21getFieldPropertyNamesEi @6072
    _ZNK22LteX2MessageDescriptor21getFieldValueAsStringB5cxx11EN7omnetpp7any_ptrEii @6073
    _ZNK22LteX2MessageDescriptor21setFieldValueAsStringEN7omnetpp7any_ptrEiiPKc @6074
    _ZNK22LteX2MessageDescriptor25getFieldDynamicTypeStringEN7omnetpp7any_ptrEii @6075
    _ZNK22LteX2MessageDescriptor26getFieldStructValuePointerEN7omnetpp7any_ptrEii @6076
    _ZNK22LteX2MessageDescriptor26setFieldStructValuePointerEN7omnetpp7any_ptrEiiS1_ @6077
    _ZNK22LteX2MessageDescriptor9findFieldEPKc @6078
    _ZNK22MECOrchestratorMessage10getSuccessEv @6079
    _ZNK22MECOrchestratorMessage10parsimPackEPN7omnetpp11cCommBufferE @6080
    _ZNK22MECOrchestratorMessage12getContextIdEv @6081
    _ZNK22MECOrchestratorMessage12getRequestIdEv @6082
    _ZNK22MECOrchestratorMessage3dupEv @6083
    _ZNK22MECOrchestratorMessage7getTypeEv @6084
    _ZNK22RTVideoStreamingSender13numInitStagesEv @6085
    _ZNK22SafetyPacketDescriptor11doesSupportEPN7omnetpp7cObjectE @6086
    _ZNK22SafetyPacketDescriptor11getPropertyEPKc @6087
    _ZNK22SafetyPacketDescriptor12getFieldNameEi @6088
    _ZNK22SafetyPacketDescriptor13getFieldCountEv @6089
    _ZNK22SafetyPacketDescriptor13getFieldValueEN7omnetpp7any_ptrEii @6090
    _ZNK22SafetyPacketDescriptor13setFieldValueEN7omnetpp7any_ptrEiiRKNS0_6cValueE @6091
    _ZNK22SafetyPacketDescriptor16getFieldPropertyEiPKc @6092
    _ZNK22SafetyPacketDescriptor16getPropertyNamesEv @6093
    _ZNK22SafetyPacketDescriptor17getFieldArraySizeEN7omnetpp7any_ptrEi @6094
    _ZNK22SafetyPacketDescriptor17getFieldTypeFlagsEi @6095
    _ZNK22SafetyPacketDescriptor17setFieldArraySizeEN7omnetpp7any_ptrEii @6096
    _ZNK22SafetyPacketDescriptor18getFieldStructNameEi @6097
    _ZNK22SafetyPacketDescriptor18getFieldTypeStringEi @6098
    _ZNK22SafetyPacketDescriptor21getFieldPropertyNamesEi @6099
    _ZNK22SafetyPacketDescriptor21getFieldValueAsStringB5cxx11EN7omnetpp7any_ptrEii @6100
    _ZNK22SafetyPacketDescriptor21setFieldValueAsStringEN7omnetpp7any_ptrEiiPKc @6101
    _ZNK22SafetyPacketDescriptor25getFieldDynamicTypeStringEN7omnetpp7any_ptrEii @6102
    _ZNK22SafetyPacketDescriptor26getFieldStructValuePointerEN7omnetpp7any_ptrEii @6103
    _ZNK22SafetyPacketDescriptor26setFieldStructValuePointerEN7omnetpp7any_ptrEiiS1_ @6104
    _ZNK22SafetyPacketDescriptor9findFieldEPKc @6105
    _ZNK22TrafficLightController13numInitStagesEv @6106
    _ZNK23CircleNotificationEvent20getTerminalLocationsEv @6107
    _ZNK23CreateContextAppMessage13getAppContextB5cxx11Ev @6108
    _ZNK23CreateContextAppMessage3dupEv @6109
    _ZNK23DeleteContextAppMessage10parsimPackEPN7omnetpp11cCommBufferE @6110
    _ZNK23DeleteContextAppMessage12getContextIdEv @6111
    _ZNK23DeleteContextAppMessage3dupEv @6112
    _ZNK23DeviceAppStartAckPacket10parsimPackEPN7omnetpp11cCommBufferE @6113
    _ZNK23DeviceAppStartAckPacket12getContextIdEv @6114
    _ZNK23DeviceAppStartAckPacket12getIpAddressEv @6115
    _ZNK23DeviceAppStartAckPacket19getPayloadTimestampEv @6116
    _ZNK23DeviceAppStartAckPacket3dupEv @6117
    _ZNK23DeviceAppStartAckPacket7getPortEv @6118
    _ZNK23DeviceAppStartAckPacket9getReasonEv @6119
    _ZNK23DeviceAppStartAckPacket9getResultEv @6120
    _ZNK23LteRlcDataPduDescriptor11doesSupportEPN7omnetpp7cObjectE @6121
    _ZNK23LteRlcDataPduDescriptor11getPropertyEPKc @6122
    _ZNK23LteRlcDataPduDescriptor12getFieldNameEi @6123
    _ZNK23LteRlcDataPduDescriptor13getFieldCountEv @6124
    _ZNK23LteRlcDataPduDescriptor13getFieldValueEN7omnetpp7any_ptrEii @6125
    _ZNK23LteRlcDataPduDescriptor13setFieldValueEN7omnetpp7any_ptrEiiRKNS0_6cValueE @6126
    _ZNK23LteRlcDataPduDescriptor16getFieldPropertyEiPKc @6127
    _ZNK23LteRlcDataPduDescriptor16getPropertyNamesEv @6128
    _ZNK23LteRlcDataPduDescriptor17getFieldArraySizeEN7omnetpp7any_ptrEi @6129
    _ZNK23LteRlcDataPduDescriptor17getFieldTypeFlagsEi @6130
    _ZNK23LteRlcDataPduDescriptor17setFieldArraySizeEN7omnetpp7any_ptrEii @6131
    _ZNK23LteRlcDataPduDescriptor18getFieldStructNameEi @6132
    _ZNK23LteRlcDataPduDescriptor18getFieldTypeStringEi @6133
    _ZNK23LteRlcDataPduDescriptor21getFieldPropertyNamesEi @6134
    _ZNK23LteRlcDataPduDescriptor21getFieldValueAsStringB5cxx11EN7omnetpp7any_ptrEii @6135
    _ZNK23LteRlcDataPduDescriptor21setFieldValueAsStringEN7omnetpp7any_ptrEiiPKc @6136
    _ZNK23LteRlcDataPduDescriptor25getFieldDynamicTypeStringEN7omnetpp7any_ptrEii @6137
    _ZNK23LteRlcDataPduDescriptor26getFieldStructValuePointerEN7omnetpp7any_ptrEii @6138
    _ZNK23LteRlcDataPduDescriptor26setFieldStructValuePointerEN7omnetpp7any_ptrEiiS1_ @6139
    _ZNK23LteRlcDataPduDescriptor9findFieldEPKc @6140
    _ZNK23LteSchedulingGrant_Base10parsimPackEPN7omnetpp11cCommBufferE @6141
    _ZNK23LteSchedulingGrant_Base11getPeriodicEv @6142
    _ZNK23LteSchedulingGrant_Base12getCodewordsEv @6143
    _ZNK23LteSchedulingGrant_Base13getExpirationEv @6144
    _ZNK23LteSchedulingGrant_Base21getTotalGrantedBlocksEv @6145
    _ZNK23LteSchedulingGrant_Base3dupEv @6146
    _ZNK23LteSchedulingGrant_Base9getPeriodEv @6147
    _ZNK23MecRequestBackgroundApp13numInitStagesEv @6148
    _ZNK23MecRequestForegroundApp13numInitStagesEv @6149
    _ZNK23RlcWindowDescDescriptor11doesSupportEPN7omnetpp7cObjectE @6150
    _ZNK23RlcWindowDescDescriptor11getPropertyEPKc @6151
    _ZNK23RlcWindowDescDescriptor12getFieldNameEi @6152
    _ZNK23RlcWindowDescDescriptor13getFieldCountEv @6153
    _ZNK23RlcWindowDescDescriptor13getFieldValueEN7omnetpp7any_ptrEii @6154
    _ZNK23RlcWindowDescDescriptor13setFieldValueEN7omnetpp7any_ptrEiiRKNS0_6cValueE @6155
    _ZNK23RlcWindowDescDescriptor16getFieldPropertyEiPKc @6156
    _ZNK23RlcWindowDescDescriptor16getPropertyNamesEv @6157
    _ZNK23RlcWindowDescDescriptor17getFieldArraySizeEN7omnetpp7any_ptrEi @6158
    _ZNK23RlcWindowDescDescriptor17getFieldTypeFlagsEi @6159
    _ZNK23RlcWindowDescDescriptor17setFieldArraySizeEN7omnetpp7any_ptrEii @6160
    _ZNK23RlcWindowDescDescriptor18getFieldStructNameEi @6161
    _ZNK23RlcWindowDescDescriptor18getFieldTypeStringEi @6162
    _ZNK23RlcWindowDescDescriptor21getFieldPropertyNamesEi @6163
    _ZNK23RlcWindowDescDescriptor21getFieldValueAsStringB5cxx11EN7omnetpp7any_ptrEii @6164
    _ZNK23RlcWindowDescDescriptor21setFieldValueAsStringEN7omnetpp7any_ptrEiiPKc @6165
    _ZNK23RlcWindowDescDescriptor25getFieldDynamicTypeStringEN7omnetpp7any_ptrEii @6166
    _ZNK23RlcWindowDescDescriptor26getFieldStructValuePointerEN7omnetpp7any_ptrEii @6167
    _ZNK23RlcWindowDescDescriptor26setFieldStructValuePointerEN7omnetpp7any_ptrEiiS1_ @6168
    _ZNK23RlcWindowDescDescriptor9findFieldEPKc @6169
    _ZNK23TerminateVehicleMessage10parsimPackEPN7omnetpp11cCommBufferE @6170
    _ZNK23TerminateVehicleMessage12getcontextIdEv @6171
    _ZNK23TerminateVehicleMessage3dupEv @6172
    _ZNK23UALCMPMessageDescriptor11doesSupportEPN7omnetpp7cObjectE @6173
    _ZNK23UALCMPMessageDescriptor11getPropertyEPKc @6174
    _ZNK23UALCMPMessageDescriptor12getFieldNameEi @6175
    _ZNK23UALCMPMessageDescriptor13getFieldCountEv @6176
    _ZNK23UALCMPMessageDescriptor13getFieldValueEN7omnetpp7any_ptrEii @6177
    _ZNK23UALCMPMessageDescriptor13setFieldValueEN7omnetpp7any_ptrEiiRKNS0_6cValueE @6178
    _ZNK23UALCMPMessageDescriptor16getFieldPropertyEiPKc @6179
    _ZNK23UALCMPMessageDescriptor16getPropertyNamesEv @6180
    _ZNK23UALCMPMessageDescriptor17getFieldArraySizeEN7omnetpp7any_ptrEi @6181
    _ZNK23UALCMPMessageDescriptor17getFieldTypeFlagsEi @6182
    _ZNK23UALCMPMessageDescriptor17setFieldArraySizeEN7omnetpp7any_ptrEii @6183
    _ZNK23UALCMPMessageDescriptor18getFieldStructNameEi @6184
    _ZNK23UALCMPMessageDescriptor18getFieldTypeStringEi @6185
    _ZNK23UALCMPMessageDescriptor21getFieldPropertyNamesEi @6186
    _ZNK23UALCMPMessageDescriptor21getFieldValueAsStringB5cxx11EN7omnetpp7any_ptrEii @6187
    _ZNK23UALCMPMessageDescriptor21setFieldValueAsStringEN7omnetpp7any_ptrEiiPKc @6188
    _ZNK23UALCMPMessageDescriptor25getFieldDynamicTypeStringEN7omnetpp7any_ptrEii @6189
    _ZNK23UALCMPMessageDescriptor26getFieldStructValuePointerEN7omnetpp7any_ptrEii @6190
    _ZNK23UALCMPMessageDescriptor26setFieldStructValuePointerEN7omnetpp7any_ptrEiiS1_ @6191
    _ZNK23UALCMPMessageDescriptor9findFieldEPKc @6192
    _ZNK24BackgroundTrafficManager13numInitStagesEv @6193
    _ZNK24LteControlInfoDescriptor11doesSupportEPN7omnetpp7cObjectE @6194
    _ZNK24LteControlInfoDescriptor11getPropertyEPKc @6195
    _ZNK24LteControlInfoDescriptor12getFieldNameEi @6196
    _ZNK24LteControlInfoDescriptor13getFieldCountEv @6197
    _ZNK24LteControlInfoDescriptor13getFieldValueEN7omnetpp7any_ptrEii @6198
    _ZNK24LteControlInfoDescriptor13setFieldValueEN7omnetpp7any_ptrEiiRKNS0_6cValueE @6199
    _ZNK24LteControlInfoDescriptor16getFieldPropertyEiPKc @6200
    _ZNK24LteControlInfoDescriptor16getPropertyNamesEv @6201
    _ZNK24LteControlInfoDescriptor17getFieldArraySizeEN7omnetpp7any_ptrEi @6202
    _ZNK24LteControlInfoDescriptor17getFieldTypeFlagsEi @6203
    _ZNK24LteControlInfoDescriptor17setFieldArraySizeEN7omnetpp7any_ptrEii @6204
    _ZNK24LteControlInfoDescriptor18getFieldStructNameEi @6205
    _ZNK24LteControlInfoDescriptor18getFieldTypeStringEi @6206
    _ZNK24LteControlInfoDescriptor21getFieldPropertyNamesEi @6207
    _ZNK24LteControlInfoDescriptor21getFieldValueAsStringB5cxx11EN7omnetpp7any_ptrEii @6208
    _ZNK24LteControlInfoDescriptor21setFieldValueAsStringEN7omnetpp7any_ptrEiiPKc @6209
    _ZNK24LteControlInfoDescriptor25getFieldDynamicTypeStringEN7omnetpp7any_ptrEii @6210
    _ZNK24LteControlInfoDescriptor26getFieldStructValuePointerEN7omnetpp7any_ptrEii @6211
    _ZNK24LteControlInfoDescriptor26setFieldStructValuePointerEN7omnetpp7any_ptrEiiS1_ @6212
    _ZNK24LteControlInfoDescriptor9findFieldEPKc @6213
    _ZNK24LteFeedbackPktDescriptor11doesSupportEPN7omnetpp7cObjectE @6214
    _ZNK24LteFeedbackPktDescriptor11getPropertyEPKc @6215
    _ZNK24LteFeedbackPktDescriptor12getFieldNameEi @6216
    _ZNK24LteFeedbackPktDescriptor13getFieldCountEv @6217
    _ZNK24LteFeedbackPktDescriptor13getFieldValueEN7omnetpp7any_ptrEii @6218
    _ZNK24LteFeedbackPktDescriptor13setFieldValueEN7omnetpp7any_ptrEiiRKNS0_6cValueE @6219
    _ZNK24LteFeedbackPktDescriptor16getFieldPropertyEiPKc @6220
    _ZNK24LteFeedbackPktDescriptor16getPropertyNamesEv @6221
    _ZNK24LteFeedbackPktDescriptor17getFieldArraySizeEN7omnetpp7any_ptrEi @6222
    _ZNK24LteFeedbackPktDescriptor17getFieldTypeFlagsEi @6223
    _ZNK24LteFeedbackPktDescriptor17setFieldArraySizeEN7omnetpp7any_ptrEii @6224
    _ZNK24LteFeedbackPktDescriptor18getFieldStructNameEi @6225
    _ZNK24LteFeedbackPktDescriptor18getFieldTypeStringEi @6226
    _ZNK24LteFeedbackPktDescriptor21getFieldPropertyNamesEi @6227
    _ZNK24LteFeedbackPktDescriptor21getFieldValueAsStringB5cxx11EN7omnetpp7any_ptrEii @6228
    _ZNK24LteFeedbackPktDescriptor21setFieldValueAsStringEN7omnetpp7any_ptrEiiPKc @6229
    _ZNK24LteFeedbackPktDescriptor25getFieldDynamicTypeStringEN7omnetpp7any_ptrEii @6230
    _ZNK24LteFeedbackPktDescriptor26getFieldStructValuePointerEN7omnetpp7any_ptrEii @6231
    _ZNK24LteFeedbackPktDescriptor26setFieldStructValuePointerEN7omnetpp7any_ptrEiiS1_ @6232
    _ZNK24LteFeedbackPktDescriptor9findFieldEPKc @6233
    _ZNK24MecRequestResponsePacket10getSrcPortEv @6234
    _ZNK24MecRequestResponsePacket10parsimPackEPN7omnetpp11cCommBufferE @6235
    _ZNK24MecRequestResponsePacket11getDestPortEv @6236
    _ZNK24MecRequestResponsePacket13getSrcAddressEv @6237
    _ZNK24MecRequestResponsePacket14getDestAddressEv @6238
    _ZNK24MecRequestResponsePacket15getReqTimestampEv @6239
    _ZNK24MecRequestResponsePacket16getRespTimestampEv @6240
    _ZNK24MecRequestResponsePacket3dupEv @6241
    _ZNK24MecRequestResponsePacket6getSnoEv @6242
    _ZNK24MecRequestResponsePacket7getBsIdEv @6243
    _ZNK24MecRequestResponsePacket8getAppIdEv @6244
    _ZNK24MigrationTimerDescriptor11doesSupportEPN7omnetpp7cObjectE @6245
    _ZNK24MigrationTimerDescriptor11getPropertyEPKc @6246
    _ZNK24MigrationTimerDescriptor12getFieldNameEi @6247
    _ZNK24MigrationTimerDescriptor13getFieldCountEv @6248
    _ZNK24MigrationTimerDescriptor13getFieldValueEN7omnetpp7any_ptrEii @6249
    _ZNK24MigrationTimerDescriptor13setFieldValueEN7omnetpp7any_ptrEiiRKNS0_6cValueE @6250
    _ZNK24MigrationTimerDescriptor16getFieldPropertyEiPKc @6251
    _ZNK24MigrationTimerDescriptor16getPropertyNamesEv @6252
    _ZNK24MigrationTimerDescriptor17getFieldArraySizeEN7omnetpp7any_ptrEi @6253
    _ZNK24MigrationTimerDescriptor17getFieldTypeFlagsEi @6254
    _ZNK24MigrationTimerDescriptor17setFieldArraySizeEN7omnetpp7any_ptrEii @6255
    _ZNK24MigrationTimerDescriptor18getFieldStructNameEi @6256
    _ZNK24MigrationTimerDescriptor18getFieldTypeStringEi @6257
    _ZNK24MigrationTimerDescriptor21getFieldPropertyNamesEi @6258
    _ZNK24MigrationTimerDescriptor21getFieldValueAsStringB5cxx11EN7omnetpp7any_ptrEii @6259
    _ZNK24MigrationTimerDescriptor21setFieldValueAsStringEN7omnetpp7any_ptrEiiPKc @6260
    _ZNK24MigrationTimerDescriptor25getFieldDynamicTypeStringEN7omnetpp7any_ptrEii @6261
    _ZNK24MigrationTimerDescriptor26getFieldStructValuePointerEN7omnetpp7any_ptrEii @6262
    _ZNK24MigrationTimerDescriptor26setFieldStructValuePointerEN7omnetpp7any_ptrEiiS1_ @6263
    _ZNK24MigrationTimerDescriptor9findFieldEPKc @6264
    _ZNK24ModulationTypeDescriptor11doesSupportEPN7omnetpp7cObjectE @6265
    _ZNK24ModulationTypeDescriptor11getPropertyEPKc @6266
    _ZNK24ModulationTypeDescriptor12getFieldNameEi @6267
    _ZNK24ModulationTypeDescriptor13getFieldCountEv @6268
    _ZNK24ModulationTypeDescriptor13getFieldValueEN7omnetpp7any_ptrEii @6269
    _ZNK24ModulationTypeDescriptor13setFieldValueEN7omnetpp7any_ptrEiiRKNS0_6cValueE @6270
    _ZNK24ModulationTypeDescriptor16getFieldPropertyEiPKc @6271
    _ZNK24ModulationTypeDescriptor16getPropertyNamesEv @6272
    _ZNK24ModulationTypeDescriptor17getFieldArraySizeEN7omnetpp7any_ptrEi @6273
    _ZNK24ModulationTypeDescriptor17getFieldTypeFlagsEi @6274
    _ZNK24ModulationTypeDescriptor17setFieldArraySizeEN7omnetpp7any_ptrEii @6275
    _ZNK24ModulationTypeDescriptor18getFieldStructNameEi @6276
    _ZNK24ModulationTypeDescriptor18getFieldTypeStringEi @6277
    _ZNK24ModulationTypeDescriptor21getFieldPropertyNamesEi @6278
    _ZNK24ModulationTypeDescriptor21getFieldValueAsStringB5cxx11EN7omnetpp7any_ptrEii @6279
    _ZNK24ModulationTypeDescriptor21setFieldValueAsStringEN7omnetpp7any_ptrEiiPKc @6280
    _ZNK24ModulationTypeDescriptor25getFieldDynamicTypeStringEN7omnetpp7any_ptrEii @6281
    _ZNK24ModulationTypeDescriptor26getFieldStructValuePointerEN7omnetpp7any_ptrEii @6282
    _ZNK24ModulationTypeDescriptor26setFieldStructValuePointerEN7omnetpp7any_ptrEiiS1_ @6283
    _ZNK24ModulationTypeDescriptor9findFieldEPKc @6284
    _ZNK24RequestResponseAppPacket10parsimPackEPN7omnetpp11cCommBufferE @6285
    _ZNK24RequestResponseAppPacket17getProcessingTimeEv @6286
    _ZNK24RequestResponseAppPacket22getServiceResponseTimeEv @6287
    _ZNK24RequestResponseAppPacket23getRequestSentTimestampEv @6288
    _ZNK24RequestResponseAppPacket24getResponseSentTimestampEv @6289
    _ZNK24RequestResponseAppPacket26getRequestArrivedTimestampEv @6290
    _ZNK24RequestResponseAppPacket3dupEv @6291
    _ZNK24RequestResponseAppPacket6getSnoEv @6292
    _ZNK24RequestResponseAppPacket7getTypeEv @6293
    _ZNK24TMultiTimerMsgDescriptor11doesSupportEPN7omnetpp7cObjectE @6294
    _ZNK24TMultiTimerMsgDescriptor11getPropertyEPKc @6295
    _ZNK24TMultiTimerMsgDescriptor12getFieldNameEi @6296
    _ZNK24TMultiTimerMsgDescriptor13getFieldCountEv @6297
    _ZNK24TMultiTimerMsgDescriptor13getFieldValueEN7omnetpp7any_ptrEii @6298
    _ZNK24TMultiTimerMsgDescriptor13setFieldValueEN7omnetpp7any_ptrEiiRKNS0_6cValueE @6299
    _ZNK24TMultiTimerMsgDescriptor16getFieldPropertyEiPKc @6300
    _ZNK24TMultiTimerMsgDescriptor16getPropertyNamesEv @6301
    _ZNK24TMultiTimerMsgDescriptor17getFieldArraySizeEN7omnetpp7any_ptrEi @6302
    _ZNK24TMultiTimerMsgDescriptor17getFieldTypeFlagsEi @6303
    _ZNK24TMultiTimerMsgDescriptor17setFieldArraySizeEN7omnetpp7any_ptrEii @6304
    _ZNK24TMultiTimerMsgDescriptor18getFieldStructNameEi @6305
    _ZNK24TMultiTimerMsgDescriptor18getFieldTypeStringEi @6306
    _ZNK24TMultiTimerMsgDescriptor21getFieldPropertyNamesEi @6307
    _ZNK24TMultiTimerMsgDescriptor21getFieldValueAsStringB5cxx11EN7omnetpp7any_ptrEii @6308
    _ZNK24TMultiTimerMsgDescriptor21setFieldValueAsStringEN7omnetpp7any_ptrEiiPKc @6309
    _ZNK24TMultiTimerMsgDescriptor25getFieldDynamicTypeStringEN7omnetpp7any_ptrEii @6310
    _ZNK24TMultiTimerMsgDescriptor26getFieldStructValuePointerEN7omnetpp7any_ptrEii @6311
    _ZNK24TMultiTimerMsgDescriptor26setFieldStructValuePointerEN7omnetpp7any_ptrEiiS1_ @6312
    _ZNK24TMultiTimerMsgDescriptor9findFieldEPKc @6313
    _ZNK24TftControlInfoDescriptor11doesSupportEPN7omnetpp7cObjectE @6314
    _ZNK24TftControlInfoDescriptor11getPropertyEPKc @6315
    _ZNK24TftControlInfoDescriptor12getFieldNameEi @6316
    _ZNK24TftControlInfoDescriptor13getFieldCountEv @6317
    _ZNK24TftControlInfoDescriptor13getFieldValueEN7omnetpp7any_ptrEii @6318
    _ZNK24TftControlInfoDescriptor13setFieldValueEN7omnetpp7any_ptrEiiRKNS0_6cValueE @6319
    _ZNK24TftControlInfoDescriptor16getFieldPropertyEiPKc @6320
    _ZNK24TftControlInfoDescriptor16getPropertyNamesEv @6321
    _ZNK24TftControlInfoDescriptor17getFieldArraySizeEN7omnetpp7any_ptrEi @6322
    _ZNK24TftControlInfoDescriptor17getFieldTypeFlagsEi @6323
    _ZNK24TftControlInfoDescriptor17setFieldArraySizeEN7omnetpp7any_ptrEii @6324
    _ZNK24TftControlInfoDescriptor18getFieldStructNameEi @6325
    _ZNK24TftControlInfoDescriptor18getFieldTypeStringEi @6326
    _ZNK24TftControlInfoDescriptor21getFieldPropertyNamesEi @6327
    _ZNK24TftControlInfoDescriptor21getFieldValueAsStringB5cxx11EN7omnetpp7any_ptrEii @6328
    _ZNK24TftControlInfoDescriptor21setFieldValueAsStringEN7omnetpp7any_ptrEiiPKc @6329
    _ZNK24TftControlInfoDescriptor25getFieldDynamicTypeStringEN7omnetpp7any_ptrEii @6330
    _ZNK24TftControlInfoDescriptor26getFieldStructValuePointerEN7omnetpp7any_ptrEii @6331
    _ZNK24TftControlInfoDescriptor26setFieldStructValuePointerEN7omnetpp7any_ptrEiiS1_ @6332
    _ZNK24TftControlInfoDescriptor9findFieldEPKc @6333
    _ZNK25BaseStationStatsCollector13numInitStagesEv @6334
    _ZNK25BaseStationStatsCollector7getEcgiEv @6335
    _ZNK25BaseStationStatsCollector9getCellIdEv @6336
    _ZNK25D2DModeSwitchNotification10getNewModeEv @6337
    _ZNK25D2DModeSwitchNotification10getOldModeEv @6338
    _ZNK25D2DModeSwitchNotification10parsimPackEPN7omnetpp11cCommBufferE @6339
    _ZNK25D2DModeSwitchNotification16getInterruptHarqEv @6340
    _ZNK25D2DModeSwitchNotification16getOldConnectionEv @6341
    _ZNK25D2DModeSwitchNotification17getClearRlcBufferEv @6342
    _ZNK25D2DModeSwitchNotification3dupEv @6343
    _ZNK25D2DModeSwitchNotification9getPeerIdEv @6344
    _ZNK25D2DModeSwitchNotification9getTxSideEv @6345
    _ZNK25DangerAppPacketDescriptor11doesSupportEPN7omnetpp7cObjectE @6346
    _ZNK25DangerAppPacketDescriptor11getPropertyEPKc @6347
    _ZNK25DangerAppPacketDescriptor12getFieldNameEi @6348
    _ZNK25DangerAppPacketDescriptor13getFieldCountEv @6349
    _ZNK25DangerAppPacketDescriptor13getFieldValueEN7omnetpp7any_ptrEii @6350
    _ZNK25DangerAppPacketDescriptor13setFieldValueEN7omnetpp7any_ptrEiiRKNS0_6cValueE @6351
    _ZNK25DangerAppPacketDescriptor16getFieldPropertyEiPKc @6352
    _ZNK25DangerAppPacketDescriptor16getPropertyNamesEv @6353
    _ZNK25DangerAppPacketDescriptor17getFieldArraySizeEN7omnetpp7any_ptrEi @6354
    _ZNK25DangerAppPacketDescriptor17getFieldTypeFlagsEi @6355
    _ZNK25DangerAppPacketDescriptor17setFieldArraySizeEN7omnetpp7any_ptrEii @6356
    _ZNK25DangerAppPacketDescriptor18getFieldStructNameEi @6357
    _ZNK25DangerAppPacketDescriptor18getFieldTypeStringEi @6358
    _ZNK25DangerAppPacketDescriptor21getFieldPropertyNamesEi @6359
    _ZNK25DangerAppPacketDescriptor21getFieldValueAsStringB5cxx11EN7omnetpp7any_ptrEii @6360
    _ZNK25DangerAppPacketDescriptor21setFieldValueAsStringEN7omnetpp7any_ptrEiiPKc @6361
    _ZNK25DangerAppPacketDescriptor25getFieldDynamicTypeStringEN7omnetpp7any_ptrEii @6362
    _ZNK25DangerAppPacketDescriptor26getFieldStructValuePointerEN7omnetpp7any_ptrEii @6363
    _ZNK25DangerAppPacketDescriptor26setFieldStructValuePointerEN7omnetpp7any_ptrEiiS1_ @6364
    _ZNK25DangerAppPacketDescriptor9findFieldEPKc @6365
    _ZNK25DeviceAppPacketDescriptor11doesSupportEPN7omnetpp7cObjectE @6366
    _ZNK25DeviceAppPacketDescriptor11getPropertyEPKc @6367
    _ZNK25DeviceAppPacketDescriptor12getFieldNameEi @6368
    _ZNK25DeviceAppPacketDescriptor13getFieldCountEv @6369
    _ZNK25DeviceAppPacketDescriptor13getFieldValueEN7omnetpp7any_ptrEii @6370
    _ZNK25DeviceAppPacketDescriptor13setFieldValueEN7omnetpp7any_ptrEiiRKNS0_6cValueE @6371
    _ZNK25DeviceAppPacketDescriptor16getFieldPropertyEiPKc @6372
    _ZNK25DeviceAppPacketDescriptor16getPropertyNamesEv @6373
    _ZNK25DeviceAppPacketDescriptor17getFieldArraySizeEN7omnetpp7any_ptrEi @6374
    _ZNK25DeviceAppPacketDescriptor17getFieldTypeFlagsEi @6375
    _ZNK25DeviceAppPacketDescriptor17setFieldArraySizeEN7omnetpp7any_ptrEii @6376
    _ZNK25DeviceAppPacketDescriptor18getFieldStructNameEi @6377
    _ZNK25DeviceAppPacketDescriptor18getFieldTypeStringEi @6378
    _ZNK25DeviceAppPacketDescriptor21getFieldPropertyNamesEi @6379
    _ZNK25DeviceAppPacketDescriptor21getFieldValueAsStringB5cxx11EN7omnetpp7any_ptrEii @6380
    _ZNK25DeviceAppPacketDescriptor21setFieldValueAsStringEN7omnetpp7any_ptrEiiPKc @6381
    _ZNK25DeviceAppPacketDescriptor25getFieldDynamicTypeStringEN7omnetpp7any_ptrEii @6382
    _ZNK25DeviceAppPacketDescriptor26getFieldStructValuePointerEN7omnetpp7any_ptrEii @6383
    _ZNK25DeviceAppPacketDescriptor26setFieldStructValuePointerEN7omnetpp7any_ptrEiiS1_ @6384
    _ZNK25DeviceAppPacketDescriptor9findFieldEPKc @6385
    _ZNK25FlowControlInfoDescriptor11doesSupportEPN7omnetpp7cObjectE @6386
    _ZNK25FlowControlInfoDescriptor11getPropertyEPKc @6387
    _ZNK25FlowControlInfoDescriptor12getFieldNameEi @6388
    _ZNK25FlowControlInfoDescriptor13getFieldCountEv @6389
    _ZNK25FlowControlInfoDescriptor13getFieldValueEN7omnetpp7any_ptrEii @6390
    _ZNK25FlowControlInfoDescriptor13setFieldValueEN7omnetpp7any_ptrEiiRKNS0_6cValueE @6391
    _ZNK25FlowControlInfoDescriptor16getFieldPropertyEiPKc @6392
    _ZNK25FlowControlInfoDescriptor16getPropertyNamesEv @6393
    _ZNK25FlowControlInfoDescriptor17getFieldArraySizeEN7omnetpp7any_ptrEi @6394
    _ZNK25FlowControlInfoDescriptor17getFieldTypeFlagsEi @6395
    _ZNK25FlowControlInfoDescriptor17setFieldArraySizeEN7omnetpp7any_ptrEii @6396
    _ZNK25FlowControlInfoDescriptor18getFieldStructNameEi @6397
    _ZNK25FlowControlInfoDescriptor18getFieldTypeStringEi @6398
    _ZNK25FlowControlInfoDescriptor21getFieldPropertyNamesEi @6399
    _ZNK25FlowControlInfoDescriptor21getFieldValueAsStringB5cxx11EN7omnetpp7any_ptrEii @6400
    _ZNK25FlowControlInfoDescriptor21setFieldValueAsStringEN7omnetpp7any_ptrEiiPKc @6401
    _ZNK25FlowControlInfoDescriptor25getFieldDynamicTypeStringEN7omnetpp7any_ptrEii @6402
    _ZNK25FlowControlInfoDescriptor26getFieldStructValuePointerEN7omnetpp7any_ptrEii @6403
    _ZNK25FlowControlInfoDescriptor26setFieldStructValuePointerEN7omnetpp7any_ptrEiiS1_ @6404
    _ZNK25FlowControlInfoDescriptor9findFieldEPKc @6405
    _ZNK25HttpBaseMessageDescriptor11doesSupportEPN7omnetpp7cObjectE @6406
    _ZNK25HttpBaseMessageDescriptor11getPropertyEPKc @6407
    _ZNK25HttpBaseMessageDescriptor12getFieldNameEi @6408
    _ZNK25HttpBaseMessageDescriptor13getFieldCountEv @6409
    _ZNK25HttpBaseMessageDescriptor13getFieldValueEN7omnetpp7any_ptrEii @6410
    _ZNK25HttpBaseMessageDescriptor13setFieldValueEN7omnetpp7any_ptrEiiRKNS0_6cValueE @6411
    _ZNK25HttpBaseMessageDescriptor16getFieldPropertyEiPKc @6412
    _ZNK25HttpBaseMessageDescriptor16getPropertyNamesEv @6413
    _ZNK25HttpBaseMessageDescriptor17getFieldArraySizeEN7omnetpp7any_ptrEi @6414
    _ZNK25HttpBaseMessageDescriptor17getFieldTypeFlagsEi @6415
    _ZNK25HttpBaseMessageDescriptor17setFieldArraySizeEN7omnetpp7any_ptrEii @6416
    _ZNK25HttpBaseMessageDescriptor18getFieldStructNameEi @6417
    _ZNK25HttpBaseMessageDescriptor18getFieldTypeStringEi @6418
    _ZNK25HttpBaseMessageDescriptor21getFieldPropertyNamesEi @6419
    _ZNK25HttpBaseMessageDescriptor21getFieldValueAsStringB5cxx11EN7omnetpp7any_ptrEii @6420
    _ZNK25HttpBaseMessageDescriptor21setFieldValueAsStringEN7omnetpp7any_ptrEiiPKc @6421
    _ZNK25HttpBaseMessageDescriptor25getFieldDynamicTypeStringEN7omnetpp7any_ptrEii @6422
    _ZNK25HttpBaseMessageDescriptor26getFieldStructValuePointerEN7omnetpp7any_ptrEii @6423
    _ZNK25HttpBaseMessageDescriptor26setFieldStructValuePointerEN7omnetpp7any_ptrEiiS1_ @6424
    _ZNK25HttpBaseMessageDescriptor9findFieldEPKc @6425
    _ZNK25LocationUpdatesDescriptor11doesSupportEPN7omnetpp7cObjectE @6426
    _ZNK25LocationUpdatesDescriptor11getPropertyEPKc @6427
    _ZNK25LocationUpdatesDescriptor12getFieldNameEi @6428
    _ZNK25LocationUpdatesDescriptor13getFieldCountEv @6429
    _ZNK25LocationUpdatesDescriptor13getFieldValueEN7omnetpp7any_ptrEii @6430
    _ZNK25LocationUpdatesDescriptor13setFieldValueEN7omnetpp7any_ptrEiiRKNS0_6cValueE @6431
    _ZNK25LocationUpdatesDescriptor16getFieldPropertyEiPKc @6432
    _ZNK25LocationUpdatesDescriptor16getPropertyNamesEv @6433
    _ZNK25LocationUpdatesDescriptor17getFieldArraySizeEN7omnetpp7any_ptrEi @6434
    _ZNK25LocationUpdatesDescriptor17getFieldTypeFlagsEi @6435
    _ZNK25LocationUpdatesDescriptor17setFieldArraySizeEN7omnetpp7any_ptrEii @6436
    _ZNK25LocationUpdatesDescriptor18getFieldStructNameEi @6437
    _ZNK25LocationUpdatesDescriptor18getFieldTypeStringEi @6438
    _ZNK25LocationUpdatesDescriptor21getFieldPropertyNamesEi @6439
    _ZNK25LocationUpdatesDescriptor21getFieldValueAsStringB5cxx11EN7omnetpp7any_ptrEii @6440
    _ZNK25LocationUpdatesDescriptor21setFieldValueAsStringEN7omnetpp7any_ptrEiiPKc @6441
    _ZNK25LocationUpdatesDescriptor25getFieldDynamicTypeStringEN7omnetpp7any_ptrEii @6442
    _ZNK25LocationUpdatesDescriptor26getFieldStructValuePointerEN7omnetpp7any_ptrEii @6443
    _ZNK25LocationUpdatesDescriptor26setFieldStructValuePointerEN7omnetpp7any_ptrEiiS1_ @6444
    _ZNK25LocationUpdatesDescriptor9findFieldEPKc @6445
    _ZNK25LteHarqFeedbackDescriptor11doesSupportEPN7omnetpp7cObjectE @6446
    _ZNK25LteHarqFeedbackDescriptor11getPropertyEPKc @6447
    _ZNK25LteHarqFeedbackDescriptor12getFieldNameEi @6448
    _ZNK25LteHarqFeedbackDescriptor13getFieldCountEv @6449
    _ZNK25LteHarqFeedbackDescriptor13getFieldValueEN7omnetpp7any_ptrEii @6450
    _ZNK25LteHarqFeedbackDescriptor13setFieldValueEN7omnetpp7any_ptrEiiRKNS0_6cValueE @6451
    _ZNK25LteHarqFeedbackDescriptor16getFieldPropertyEiPKc @6452
    _ZNK25LteHarqFeedbackDescriptor16getPropertyNamesEv @6453
    _ZNK25LteHarqFeedbackDescriptor17getFieldArraySizeEN7omnetpp7any_ptrEi @6454
    _ZNK25LteHarqFeedbackDescriptor17getFieldTypeFlagsEi @6455
    _ZNK25LteHarqFeedbackDescriptor17setFieldArraySizeEN7omnetpp7any_ptrEii @6456
    _ZNK25LteHarqFeedbackDescriptor18getFieldStructNameEi @6457
    _ZNK25LteHarqFeedbackDescriptor18getFieldTypeStringEi @6458
    _ZNK25LteHarqFeedbackDescriptor21getFieldPropertyNamesEi @6459
    _ZNK25LteHarqFeedbackDescriptor21getFieldValueAsStringB5cxx11EN7omnetpp7any_ptrEii @6460
    _ZNK25LteHarqFeedbackDescriptor21setFieldValueAsStringEN7omnetpp7any_ptrEiiPKc @6461
    _ZNK25LteHarqFeedbackDescriptor25getFieldDynamicTypeStringEN7omnetpp7any_ptrEii @6462
    _ZNK25LteHarqFeedbackDescriptor26getFieldStructValuePointerEN7omnetpp7any_ptrEii @6463
    _ZNK25LteHarqFeedbackDescriptor26setFieldStructValuePointerEN7omnetpp7any_ptrEiiS1_ @6464
    _ZNK25LteHarqFeedbackDescriptor9findFieldEPKc @6465
    _ZNK25RtxNotificationDescriptor11doesSupportEPN7omnetpp7cObjectE @6466
    _ZNK25RtxNotificationDescriptor11getPropertyEPKc @6467
    _ZNK25RtxNotificationDescriptor12getFieldNameEi @6468
    _ZNK25RtxNotificationDescriptor13getFieldCountEv @6469
    _ZNK25RtxNotificationDescriptor13getFieldValueEN7omnetpp7any_ptrEii @6470
    _ZNK25RtxNotificationDescriptor13setFieldValueEN7omnetpp7any_ptrEiiRKNS0_6cValueE @6471
    _ZNK25RtxNotificationDescriptor16getFieldPropertyEiPKc @6472
    _ZNK25RtxNotificationDescriptor16getPropertyNamesEv @6473
    _ZNK25RtxNotificationDescriptor17getFieldArraySizeEN7omnetpp7any_ptrEi @6474
    _ZNK25RtxNotificationDescriptor17getFieldTypeFlagsEi @6475
    _ZNK25RtxNotificationDescriptor17setFieldArraySizeEN7omnetpp7any_ptrEii @6476
    _ZNK25RtxNotificationDescriptor18getFieldStructNameEi @6477
    _ZNK25RtxNotificationDescriptor18getFieldTypeStringEi @6478
    _ZNK25RtxNotificationDescriptor21getFieldPropertyNamesEi @6479
    _ZNK25RtxNotificationDescriptor21getFieldValueAsStringB5cxx11EN7omnetpp7any_ptrEii @6480
    _ZNK25RtxNotificationDescriptor21setFieldValueAsStringEN7omnetpp7any_ptrEiiPKc @6481
    _ZNK25RtxNotificationDescriptor25getFieldDynamicTypeStringEN7omnetpp7any_ptrEii @6482
    _ZNK25RtxNotificationDescriptor26getFieldStructValuePointerEN7omnetpp7any_ptrEii @6483
    _ZNK25RtxNotificationDescriptor26setFieldStructValuePointerEN7omnetpp7any_ptrEiiS1_ @6484
    _ZNK25RtxNotificationDescriptor9findFieldEPKc @6485
    _ZNK25SafetyAppPacketDescriptor11doesSupportEPN7omnetpp7cObjectE @6486
    _ZNK25SafetyAppPacketDescriptor11getPropertyEPKc @6487
    _ZNK25SafetyAppPacketDescriptor12getFieldNameEi @6488
    _ZNK25SafetyAppPacketDescriptor13getFieldCountEv @6489
    _ZNK25SafetyAppPacketDescriptor13getFieldValueEN7omnetpp7any_ptrEii @6490
    _ZNK25SafetyAppPacketDescriptor13setFieldValueEN7omnetpp7any_ptrEiiRKNS0_6cValueE @6491
    _ZNK25SafetyAppPacketDescriptor16getFieldPropertyEiPKc @6492
    _ZNK25SafetyAppPacketDescriptor16getPropertyNamesEv @6493
    _ZNK25SafetyAppPacketDescriptor17getFieldArraySizeEN7omnetpp7any_ptrEi @6494
    _ZNK25SafetyAppPacketDescriptor17getFieldTypeFlagsEi @6495
    _ZNK25SafetyAppPacketDescriptor17setFieldArraySizeEN7omnetpp7any_ptrEii @6496
    _ZNK25SafetyAppPacketDescriptor18getFieldStructNameEi @6497
    _ZNK25SafetyAppPacketDescriptor18getFieldTypeStringEi @6498
    _ZNK25SafetyAppPacketDescriptor21getFieldPropertyNamesEi @6499
    _ZNK25SafetyAppPacketDescriptor21getFieldValueAsStringB5cxx11EN7omnetpp7any_ptrEii @6500
    _ZNK25SafetyAppPacketDescriptor21setFieldValueAsStringEN7omnetpp7any_ptrEiiPKc @6501
    _ZNK25SafetyAppPacketDescriptor25getFieldDynamicTypeStringEN7omnetpp7any_ptrEii @6502
    _ZNK25SafetyAppPacketDescriptor26getFieldStructValuePointerEN7omnetpp7any_ptrEii @6503
    _ZNK25SafetyAppPacketDescriptor26setFieldStructValuePointerEN7omnetpp7any_ptrEiiS1_ @6504
    _ZNK25SafetyAppPacketDescriptor9findFieldEPKc @6505
    _ZNK25TrickleTimerMsgDescriptor11doesSupportEPN7omnetpp7cObjectE @6506
    _ZNK25TrickleTimerMsgDescriptor11getPropertyEPKc @6507
    _ZNK25TrickleTimerMsgDescriptor12getFieldNameEi @6508
    _ZNK25TrickleTimerMsgDescriptor13getFieldCountEv @6509
    _ZNK25TrickleTimerMsgDescriptor13getFieldValueEN7omnetpp7any_ptrEii @6510
    _ZNK25TrickleTimerMsgDescriptor13setFieldValueEN7omnetpp7any_ptrEiiRKNS0_6cValueE @6511
    _ZNK25TrickleTimerMsgDescriptor16getFieldPropertyEiPKc @6512
    _ZNK25TrickleTimerMsgDescriptor16getPropertyNamesEv @6513
    _ZNK25TrickleTimerMsgDescriptor17getFieldArraySizeEN7omnetpp7any_ptrEi @6514
    _ZNK25TrickleTimerMsgDescriptor17getFieldTypeFlagsEi @6515
    _ZNK25TrickleTimerMsgDescriptor17setFieldArraySizeEN7omnetpp7any_ptrEii @6516
    _ZNK25TrickleTimerMsgDescriptor18getFieldStructNameEi @6517
    _ZNK25TrickleTimerMsgDescriptor18getFieldTypeStringEi @6518
    _ZNK25TrickleTimerMsgDescriptor21getFieldPropertyNamesEi @6519
    _ZNK25TrickleTimerMsgDescriptor21getFieldValueAsStringB5cxx11EN7omnetpp7any_ptrEii @6520
    _ZNK25TrickleTimerMsgDescriptor21setFieldValueAsStringEN7omnetpp7any_ptrEiiPKc @6521
    _ZNK25TrickleTimerMsgDescriptor25getFieldDynamicTypeStringEN7omnetpp7any_ptrEii @6522
    _ZNK25TrickleTimerMsgDescriptor26getFieldStructValuePointerEN7omnetpp7any_ptrEii @6523
    _ZNK25TrickleTimerMsgDescriptor26setFieldStructValuePointerEN7omnetpp7any_ptrEiiS1_ @6524
    _ZNK25TrickleTimerMsgDescriptor9findFieldEPKc @6525
    _ZNK25UserControlInfoDescriptor11doesSupportEPN7omnetpp7cObjectE @6526
    _ZNK25UserControlInfoDescriptor11getPropertyEPKc @6527
    _ZNK25UserControlInfoDescriptor12getFieldNameEi @6528
    _ZNK25UserControlInfoDescriptor13getFieldCountEv @6529
    _ZNK25UserControlInfoDescriptor13getFieldValueEN7omnetpp7any_ptrEii @6530
    _ZNK25UserControlInfoDescriptor13setFieldValueEN7omnetpp7any_ptrEiiRKNS0_6cValueE @6531
    _ZNK25UserControlInfoDescriptor16getFieldPropertyEiPKc @6532
    _ZNK25UserControlInfoDescriptor16getPropertyNamesEv @6533
    _ZNK25UserControlInfoDescriptor17getFieldArraySizeEN7omnetpp7any_ptrEi @6534
    _ZNK25UserControlInfoDescriptor17getFieldTypeFlagsEi @6535
    _ZNK25UserControlInfoDescriptor17setFieldArraySizeEN7omnetpp7any_ptrEii @6536
    _ZNK25UserControlInfoDescriptor18getFieldStructNameEi @6537
    _ZNK25UserControlInfoDescriptor18getFieldTypeStringEi @6538
    _ZNK25UserControlInfoDescriptor21getFieldPropertyNamesEi @6539
    _ZNK25UserControlInfoDescriptor21getFieldValueAsStringB5cxx11EN7omnetpp7any_ptrEii @6540
    _ZNK25UserControlInfoDescriptor21setFieldValueAsStringEN7omnetpp7any_ptrEiiPKc @6541
    _ZNK25UserControlInfoDescriptor25getFieldDynamicTypeStringEN7omnetpp7any_ptrEii @6542
    _ZNK25UserControlInfoDescriptor26getFieldStructValuePointerEN7omnetpp7any_ptrEii @6543
    _ZNK25UserControlInfoDescriptor26setFieldStructValuePointerEN7omnetpp7any_ptrEiiS1_ @6544
    _ZNK25UserControlInfoDescriptor9findFieldEPKc @6545
    _ZNK25X2CompProportionalReplyIE3dupEv @6546
    _ZNK25X2DualConnectivityDataMsg3dupEv @6547
    _ZNK25X2InformationElement_Base10parsimPackEPN7omnetpp11cCommBufferE @6548
    _ZNK26BackgroundCellChannelModel13numInitStagesEv @6549
    _ZNK26CreateAppMessageDescriptor11doesSupportEPN7omnetpp7cObjectE @6550
    _ZNK26CreateAppMessageDescriptor11getPropertyEPKc @6551
    _ZNK26CreateAppMessageDescriptor12getFieldNameEi @6552
    _ZNK26CreateAppMessageDescriptor13getFieldCountEv @6553
    _ZNK26CreateAppMessageDescriptor13getFieldValueEN7omnetpp7any_ptrEii @6554
    _ZNK26CreateAppMessageDescriptor13setFieldValueEN7omnetpp7any_ptrEiiRKNS0_6cValueE @6555
    _ZNK26CreateAppMessageDescriptor16getFieldPropertyEiPKc @6556
    _ZNK26CreateAppMessageDescriptor16getPropertyNamesEv @6557
    _ZNK26CreateAppMessageDescriptor17getFieldArraySizeEN7omnetpp7any_ptrEi @6558
    _ZNK26CreateAppMessageDescriptor17getFieldTypeFlagsEi @6559
    _ZNK26CreateAppMessageDescriptor17setFieldArraySizeEN7omnetpp7any_ptrEii @6560
    _ZNK26CreateAppMessageDescriptor18getFieldStructNameEi @6561
    _ZNK26CreateAppMessageDescriptor18getFieldTypeStringEi @6562
    _ZNK26CreateAppMessageDescriptor21getFieldPropertyNamesEi @6563
    _ZNK26CreateAppMessageDescriptor21getFieldValueAsStringB5cxx11EN7omnetpp7any_ptrEii @6564
    _ZNK26CreateAppMessageDescriptor21setFieldValueAsStringEN7omnetpp7any_ptrEiiPKc @6565
    _ZNK26CreateAppMessageDescriptor25getFieldDynamicTypeStringEN7omnetpp7any_ptrEii @6566
    _ZNK26CreateAppMessageDescriptor26getFieldStructValuePointerEN7omnetpp7any_ptrEii @6567
    _ZNK26CreateAppMessageDescriptor26setFieldStructValuePointerEN7omnetpp7any_ptrEiiS1_ @6568
    _ZNK26CreateAppMessageDescriptor9findFieldEPKc @6569
    _ZNK26CreateContextAppAckMessage13getAppContextB5cxx11Ev @6570
    _ZNK26CreateContextAppAckMessage3dupEv @6571
    _ZNK26CreateContextAppDescriptor11doesSupportEPN7omnetpp7cObjectE @6572
    _ZNK26CreateContextAppDescriptor11getPropertyEPKc @6573
    _ZNK26CreateContextAppDescriptor12getFieldNameEi @6574
    _ZNK26CreateContextAppDescriptor13getFieldCountEv @6575
    _ZNK26CreateContextAppDescriptor13getFieldValueEN7omnetpp7any_ptrEii @6576
    _ZNK26CreateContextAppDescriptor13setFieldValueEN7omnetpp7any_ptrEiiRKNS0_6cValueE @6577
    _ZNK26CreateContextAppDescriptor16getFieldPropertyEiPKc @6578
    _ZNK26CreateContextAppDescriptor16getPropertyNamesEv @6579
    _ZNK26CreateContextAppDescriptor17getFieldArraySizeEN7omnetpp7any_ptrEi @6580
    _ZNK26CreateContextAppDescriptor17getFieldTypeFlagsEi @6581
    _ZNK26CreateContextAppDescriptor17setFieldArraySizeEN7omnetpp7any_ptrEii @6582
    _ZNK26CreateContextAppDescriptor18getFieldStructNameEi @6583
    _ZNK26CreateContextAppDescriptor18getFieldTypeStringEi @6584
    _ZNK26CreateContextAppDescriptor21getFieldPropertyNamesEi @6585
    _ZNK26CreateContextAppDescriptor21getFieldValueAsStringB5cxx11EN7omnetpp7any_ptrEii @6586
    _ZNK26CreateContextAppDescriptor21setFieldValueAsStringEN7omnetpp7any_ptrEiiPKc @6587
    _ZNK26CreateContextAppDescriptor25getFieldDynamicTypeStringEN7omnetpp7any_ptrEii @6588
    _ZNK26CreateContextAppDescriptor26getFieldStructValuePointerEN7omnetpp7any_ptrEii @6589
    _ZNK26CreateContextAppDescriptor26setFieldStructValuePointerEN7omnetpp7any_ptrEiiS1_ @6590
    _ZNK26CreateContextAppDescriptor9findFieldEPKc @6591
    _ZNK26DeleteAppMessageDescriptor11doesSupportEPN7omnetpp7cObjectE @6592
    _ZNK26DeleteAppMessageDescriptor11getPropertyEPKc @6593
    _ZNK26DeleteAppMessageDescriptor12getFieldNameEi @6594
    _ZNK26DeleteAppMessageDescriptor13getFieldCountEv @6595
    _ZNK26DeleteAppMessageDescriptor13getFieldValueEN7omnetpp7any_ptrEii @6596
    _ZNK26DeleteAppMessageDescriptor13setFieldValueEN7omnetpp7any_ptrEiiRKNS0_6cValueE @6597
    _ZNK26DeleteAppMessageDescriptor16getFieldPropertyEiPKc @6598
    _ZNK26DeleteAppMessageDescriptor16getPropertyNamesEv @6599
    _ZNK26DeleteAppMessageDescriptor17getFieldArraySizeEN7omnetpp7any_ptrEi @6600
    _ZNK26DeleteAppMessageDescriptor17getFieldTypeFlagsEi @6601
    _ZNK26DeleteAppMessageDescriptor17setFieldArraySizeEN7omnetpp7any_ptrEii @6602
    _ZNK26DeleteAppMessageDescriptor18getFieldStructNameEi @6603
    _ZNK26DeleteAppMessageDescriptor18getFieldTypeStringEi @6604
    _ZNK26DeleteAppMessageDescriptor21getFieldPropertyNamesEi @6605
    _ZNK26DeleteAppMessageDescriptor21getFieldValueAsStringB5cxx11EN7omnetpp7any_ptrEii @6606
    _ZNK26DeleteAppMessageDescriptor21setFieldValueAsStringEN7omnetpp7any_ptrEiiPKc @6607
    _ZNK26DeleteAppMessageDescriptor25getFieldDynamicTypeStringEN7omnetpp7any_ptrEii @6608
    _ZNK26DeleteAppMessageDescriptor26getFieldStructValuePointerEN7omnetpp7any_ptrEii @6609
    _ZNK26DeleteAppMessageDescriptor26setFieldStructValuePointerEN7omnetpp7any_ptrEiiS1_ @6610
    _ZNK26DeleteAppMessageDescriptor9findFieldEPKc @6611
    _ZNK26DeleteContextAppAckMessage10getSuccessEv @6612
    _ZNK26DeleteContextAppAckMessage10parsimPackEPN7omnetpp11cCommBufferE @6613
    _ZNK26DeleteContextAppAckMessage12getContextIdEv @6614
    _ZNK26DeleteContextAppAckMessage3dupEv @6615
    _ZNK26LteMacSduRequestDescriptor11doesSupportEPN7omnetpp7cObjectE @6616
    _ZNK26LteMacSduRequestDescriptor11getPropertyEPKc @6617
    _ZNK26LteMacSduRequestDescriptor12getFieldNameEi @6618
    _ZNK26LteMacSduRequestDescriptor13getFieldCountEv @6619
    _ZNK26LteMacSduRequestDescriptor13getFieldValueEN7omnetpp7any_ptrEii @6620
    _ZNK26LteMacSduRequestDescriptor13setFieldValueEN7omnetpp7any_ptrEiiRKNS0_6cValueE @6621
    _ZNK26LteMacSduRequestDescriptor16getFieldPropertyEiPKc @6622
    _ZNK26LteMacSduRequestDescriptor16getPropertyNamesEv @6623
    _ZNK26LteMacSduRequestDescriptor17getFieldArraySizeEN7omnetpp7any_ptrEi @6624
    _ZNK26LteMacSduRequestDescriptor17getFieldTypeFlagsEi @6625
    _ZNK26LteMacSduRequestDescriptor17setFieldArraySizeEN7omnetpp7any_ptrEii @6626
    _ZNK26LteMacSduRequestDescriptor18getFieldStructNameEi @6627
    _ZNK26LteMacSduRequestDescriptor18getFieldTypeStringEi @6628
    _ZNK26LteMacSduRequestDescriptor21getFieldPropertyNamesEi @6629
    _ZNK26LteMacSduRequestDescriptor21getFieldValueAsStringB5cxx11EN7omnetpp7any_ptrEii @6630
    _ZNK26LteMacSduRequestDescriptor21setFieldValueAsStringEN7omnetpp7any_ptrEiiPKc @6631
    _ZNK26LteMacSduRequestDescriptor25getFieldDynamicTypeStringEN7omnetpp7any_ptrEii @6632
    _ZNK26LteMacSduRequestDescriptor26getFieldStructValuePointerEN7omnetpp7any_ptrEii @6633
    _ZNK26LteMacSduRequestDescriptor26setFieldStructValuePointerEN7omnetpp7any_ptrEiiS1_ @6634
    _ZNK26LteMacSduRequestDescriptor9findFieldEPKc @6635
    _ZNK26LteRlcPduNewDataDescriptor11doesSupportEPN7omnetpp7cObjectE @6636
    _ZNK26LteRlcPduNewDataDescriptor11getPropertyEPKc @6637
    _ZNK26LteRlcPduNewDataDescriptor12getFieldNameEi @6638
    _ZNK26LteRlcPduNewDataDescriptor13getFieldCountEv @6639
    _ZNK26LteRlcPduNewDataDescriptor13getFieldValueEN7omnetpp7any_ptrEii @6640
    _ZNK26LteRlcPduNewDataDescriptor13setFieldValueEN7omnetpp7any_ptrEiiRKNS0_6cValueE @6641
    _ZNK26LteRlcPduNewDataDescriptor16getFieldPropertyEiPKc @6642
    _ZNK26LteRlcPduNewDataDescriptor16getPropertyNamesEv @6643
    _ZNK26LteRlcPduNewDataDescriptor17getFieldArraySizeEN7omnetpp7any_ptrEi @6644
    _ZNK26LteRlcPduNewDataDescriptor17getFieldTypeFlagsEi @6645
    _ZNK26LteRlcPduNewDataDescriptor17setFieldArraySizeEN7omnetpp7any_ptrEii @6646
    _ZNK26LteRlcPduNewDataDescriptor18getFieldStructNameEi @6647
    _ZNK26LteRlcPduNewDataDescriptor18getFieldTypeStringEi @6648
    _ZNK26LteRlcPduNewDataDescriptor21getFieldPropertyNamesEi @6649
    _ZNK26LteRlcPduNewDataDescriptor21getFieldValueAsStringB5cxx11EN7omnetpp7any_ptrEii @6650
    _ZNK26LteRlcPduNewDataDescriptor21setFieldValueAsStringEN7omnetpp7any_ptrEiiPKc @6651
    _ZNK26LteRlcPduNewDataDescriptor25getFieldDynamicTypeStringEN7omnetpp7any_ptrEii @6652
    _ZNK26LteRlcPduNewDataDescriptor26getFieldStructValuePointerEN7omnetpp7any_ptrEii @6653
    _ZNK26LteRlcPduNewDataDescriptor26setFieldStructValuePointerEN7omnetpp7any_ptrEiiS1_ @6654
    _ZNK26LteRlcPduNewDataDescriptor9findFieldEPKc @6655
    _ZNK26SafetyStopPacketDescriptor11doesSupportEPN7omnetpp7cObjectE @6656
    _ZNK26SafetyStopPacketDescriptor11getPropertyEPKc @6657
    _ZNK26SafetyStopPacketDescriptor12getFieldNameEi @6658
    _ZNK26SafetyStopPacketDescriptor13getFieldCountEv @6659
    _ZNK26SafetyStopPacketDescriptor13getFieldValueEN7omnetpp7any_ptrEii @6660
    _ZNK26SafetyStopPacketDescriptor13setFieldValueEN7omnetpp7any_ptrEiiRKNS0_6cValueE @6661
    _ZNK26SafetyStopPacketDescriptor16getFieldPropertyEiPKc @6662
    _ZNK26SafetyStopPacketDescriptor16getPropertyNamesEv @6663
    _ZNK26SafetyStopPacketDescriptor17getFieldArraySizeEN7omnetpp7any_ptrEi @6664
    _ZNK26SafetyStopPacketDescriptor17getFieldTypeFlagsEi @6665
    _ZNK26SafetyStopPacketDescriptor17setFieldArraySizeEN7omnetpp7any_ptrEii @6666
    _ZNK26SafetyStopPacketDescriptor18getFieldStructNameEi @6667
    _ZNK26SafetyStopPacketDescriptor18getFieldTypeStringEi @6668
    _ZNK26SafetyStopPacketDescriptor21getFieldPropertyNamesEi @6669
    _ZNK26SafetyStopPacketDescriptor21getFieldValueAsStringB5cxx11EN7omnetpp7any_ptrEii @6670
    _ZNK26SafetyStopPacketDescriptor21setFieldValueAsStringEN7omnetpp7any_ptrEiiPKc @6671
    _ZNK26SafetyStopPacketDescriptor25getFieldDynamicTypeStringEN7omnetpp7any_ptrEii @6672
    _ZNK26SafetyStopPacketDescriptor26getFieldStructValuePointerEN7omnetpp7any_ptrEii @6673
    _ZNK26SafetyStopPacketDescriptor26setFieldStructValuePointerEN7omnetpp7any_ptrEiiS1_ @6674
    _ZNK26SafetyStopPacketDescriptor9findFieldEPKc @6675
    _ZNK26TerminateContextAppMessage10parsimPackEPN7omnetpp11cCommBufferE @6676
    _ZNK26TerminateContextAppMessage12getContextIdEv @6677
    _ZNK26TerminateContextAppMessage3dupEv @6678
    _ZNK26WarningAppPacketDescriptor11doesSupportEPN7omnetpp7cObjectE @6679
    _ZNK26WarningAppPacketDescriptor11getPropertyEPKc @6680
    _ZNK26WarningAppPacketDescriptor12getFieldNameEi @6681
    _ZNK26WarningAppPacketDescriptor13getFieldCountEv @6682
    _ZNK26WarningAppPacketDescriptor13getFieldValueEN7omnetpp7any_ptrEii @6683
    _ZNK26WarningAppPacketDescriptor13setFieldValueEN7omnetpp7any_ptrEiiRKNS0_6cValueE @6684
    _ZNK26WarningAppPacketDescriptor16getFieldPropertyEiPKc @6685
    _ZNK26WarningAppPacketDescriptor16getPropertyNamesEv @6686
    _ZNK26WarningAppPacketDescriptor17getFieldArraySizeEN7omnetpp7any_ptrEi @6687
    _ZNK26WarningAppPacketDescriptor17getFieldTypeFlagsEi @6688
    _ZNK26WarningAppPacketDescriptor17setFieldArraySizeEN7omnetpp7any_ptrEii @6689
    _ZNK26WarningAppPacketDescriptor18getFieldStructNameEi @6690
    _ZNK26WarningAppPacketDescriptor18getFieldTypeStringEi @6691
    _ZNK26WarningAppPacketDescriptor21getFieldPropertyNamesEi @6692
    _ZNK26WarningAppPacketDescriptor21getFieldValueAsStringB5cxx11EN7omnetpp7any_ptrEii @6693
    _ZNK26WarningAppPacketDescriptor21setFieldValueAsStringEN7omnetpp7any_ptrEiiPKc @6694
    _ZNK26WarningAppPacketDescriptor25getFieldDynamicTypeStringEN7omnetpp7any_ptrEii @6695
    _ZNK26WarningAppPacketDescriptor26getFieldStructValuePointerEN7omnetpp7any_ptrEii @6696
    _ZNK26WarningAppPacketDescriptor26setFieldStructValuePointerEN7omnetpp7any_ptrEiiS1_ @6697
    _ZNK26WarningAppPacketDescriptor9findFieldEPKc @6698
    _ZNK26X2ControlInfoTagDescriptor11doesSupportEPN7omnetpp7cObjectE @6699
    _ZNK26X2ControlInfoTagDescriptor11getPropertyEPKc @6700
    _ZNK26X2ControlInfoTagDescriptor12getFieldNameEi @6701
    _ZNK26X2ControlInfoTagDescriptor13getFieldCountEv @6702
    _ZNK26X2ControlInfoTagDescriptor13getFieldValueEN7omnetpp7any_ptrEii @6703
    _ZNK26X2ControlInfoTagDescriptor13setFieldValueEN7omnetpp7any_ptrEiiRKNS0_6cValueE @6704
    _ZNK26X2ControlInfoTagDescriptor16getFieldPropertyEiPKc @6705
    _ZNK26X2ControlInfoTagDescriptor16getPropertyNamesEv @6706
    _ZNK26X2ControlInfoTagDescriptor17getFieldArraySizeEN7omnetpp7any_ptrEi @6707
    _ZNK26X2ControlInfoTagDescriptor17getFieldTypeFlagsEi @6708
    _ZNK26X2ControlInfoTagDescriptor17setFieldArraySizeEN7omnetpp7any_ptrEii @6709
    _ZNK26X2ControlInfoTagDescriptor18getFieldStructNameEi @6710
    _ZNK26X2ControlInfoTagDescriptor18getFieldTypeStringEi @6711
    _ZNK26X2ControlInfoTagDescriptor21getFieldPropertyNamesEi @6712
    _ZNK26X2ControlInfoTagDescriptor21getFieldValueAsStringB5cxx11EN7omnetpp7any_ptrEii @6713
    _ZNK26X2ControlInfoTagDescriptor21setFieldValueAsStringEN7omnetpp7any_ptrEiiPKc @6714
    _ZNK26X2ControlInfoTagDescriptor25getFieldDynamicTypeStringEN7omnetpp7any_ptrEii @6715
    _ZNK26X2ControlInfoTagDescriptor26getFieldStructValuePointerEN7omnetpp7any_ptrEii @6716
    _ZNK26X2ControlInfoTagDescriptor26setFieldStructValuePointerEN7omnetpp7any_ptrEiiS1_ @6717
    _ZNK26X2ControlInfoTagDescriptor9findFieldEPKc @6718
    _ZNK27DangerAlertPacketDescriptor11doesSupportEPN7omnetpp7cObjectE @6719
    _ZNK27DangerAlertPacketDescriptor11getPropertyEPKc @6720
    _ZNK27DangerAlertPacketDescriptor12getFieldNameEi @6721
    _ZNK27DangerAlertPacketDescriptor13getFieldCountEv @6722
    _ZNK27DangerAlertPacketDescriptor13getFieldValueEN7omnetpp7any_ptrEii @6723
    _ZNK27DangerAlertPacketDescriptor13setFieldValueEN7omnetpp7any_ptrEiiRKNS0_6cValueE @6724
    _ZNK27DangerAlertPacketDescriptor16getFieldPropertyEiPKc @6725
    _ZNK27DangerAlertPacketDescriptor16getPropertyNamesEv @6726
    _ZNK27DangerAlertPacketDescriptor17getFieldArraySizeEN7omnetpp7any_ptrEi @6727
    _ZNK27DangerAlertPacketDescriptor17getFieldTypeFlagsEi @6728
    _ZNK27DangerAlertPacketDescriptor17setFieldArraySizeEN7omnetpp7any_ptrEii @6729
    _ZNK27DangerAlertPacketDescriptor18getFieldStructNameEi @6730
    _ZNK27DangerAlertPacketDescriptor18getFieldTypeStringEi @6731
    _ZNK27DangerAlertPacketDescriptor21getFieldPropertyNamesEi @6732
    _ZNK27DangerAlertPacketDescriptor21getFieldValueAsStringB5cxx11EN7omnetpp7any_ptrEii @6733
    _ZNK27DangerAlertPacketDescriptor21setFieldValueAsStringEN7omnetpp7any_ptrEiiPKc @6734
    _ZNK27DangerAlertPacketDescriptor25getFieldDynamicTypeStringEN7omnetpp7any_ptrEii @6735
    _ZNK27DangerAlertPacketDescriptor26getFieldStructValuePointerEN7omnetpp7any_ptrEii @6736
    _ZNK27DangerAlertPacketDescriptor26setFieldStructValuePointerEN7omnetpp7any_ptrEiiS1_ @6737
    _ZNK27DangerAlertPacketDescriptor9findFieldEPKc @6738
    _ZNK27DestinationIdListDescriptor11doesSupportEPN7omnetpp7cObjectE @6739
    _ZNK27DestinationIdListDescriptor11getPropertyEPKc @6740
    _ZNK27DestinationIdListDescriptor12getFieldNameEi @6741
    _ZNK27DestinationIdListDescriptor13getFieldCountEv @6742
    _ZNK27DestinationIdListDescriptor13getFieldValueEN7omnetpp7any_ptrEii @6743
    _ZNK27DestinationIdListDescriptor13setFieldValueEN7omnetpp7any_ptrEiiRKNS0_6cValueE @6744
    _ZNK27DestinationIdListDescriptor16getFieldPropertyEiPKc @6745
    _ZNK27DestinationIdListDescriptor16getPropertyNamesEv @6746
    _ZNK27DestinationIdListDescriptor17getFieldArraySizeEN7omnetpp7any_ptrEi @6747
    _ZNK27DestinationIdListDescriptor17getFieldTypeFlagsEi @6748
    _ZNK27DestinationIdListDescriptor17setFieldArraySizeEN7omnetpp7any_ptrEii @6749
    _ZNK27DestinationIdListDescriptor18getFieldStructNameEi @6750
    _ZNK27DestinationIdListDescriptor18getFieldTypeStringEi @6751
    _ZNK27DestinationIdListDescriptor21getFieldPropertyNamesEi @6752
    _ZNK27DestinationIdListDescriptor21getFieldValueAsStringB5cxx11EN7omnetpp7any_ptrEii @6753
    _ZNK27DestinationIdListDescriptor21setFieldValueAsStringEN7omnetpp7any_ptrEiiPKc @6754
    _ZNK27DestinationIdListDescriptor25getFieldDynamicTypeStringEN7omnetpp7any_ptrEii @6755
    _ZNK27DestinationIdListDescriptor26getFieldStructValuePointerEN7omnetpp7any_ptrEii @6756
    _ZNK27DestinationIdListDescriptor26setFieldStructValuePointerEN7omnetpp7any_ptrEiiS1_ @6757
    _ZNK27DestinationIdListDescriptor9findFieldEPKc @6758
    _ZNK27MacControlElementDescriptor11doesSupportEPN7omnetpp7cObjectE @6759
    _ZNK27MacControlElementDescriptor11getPropertyEPKc @6760
    _ZNK27MacControlElementDescriptor12getFieldNameEi @6761
    _ZNK27MacControlElementDescriptor13getFieldCountEv @6762
    _ZNK27MacControlElementDescriptor13getFieldValueEN7omnetpp7any_ptrEii @6763
    _ZNK27MacControlElementDescriptor13setFieldValueEN7omnetpp7any_ptrEiiRKNS0_6cValueE @6764
    _ZNK27MacControlElementDescriptor16getFieldPropertyEiPKc @6765
    _ZNK27MacControlElementDescriptor16getPropertyNamesEv @6766
    _ZNK27MacControlElementDescriptor17getFieldArraySizeEN7omnetpp7any_ptrEi @6767
    _ZNK27MacControlElementDescriptor17getFieldTypeFlagsEi @6768
    _ZNK27MacControlElementDescriptor17setFieldArraySizeEN7omnetpp7any_ptrEii @6769
    _ZNK27MacControlElementDescriptor18getFieldStructNameEi @6770
    _ZNK27MacControlElementDescriptor18getFieldTypeStringEi @6771
    _ZNK27MacControlElementDescriptor21getFieldPropertyNamesEi @6772
    _ZNK27MacControlElementDescriptor21getFieldValueAsStringB5cxx11EN7omnetpp7any_ptrEii @6773
    _ZNK27MacControlElementDescriptor21setFieldValueAsStringEN7omnetpp7any_ptrEiiPKc @6774
    _ZNK27MacControlElementDescriptor25getFieldDynamicTypeStringEN7omnetpp7any_ptrEii @6775
    _ZNK27MacControlElementDescriptor26getFieldStructValuePointerEN7omnetpp7any_ptrEii @6776
    _ZNK27MacControlElementDescriptor26setFieldStructValuePointerEN7omnetpp7any_ptrEiiS1_ @6777
    _ZNK27MacControlElementDescriptor9findFieldEPKc @6778
    _ZNK27MecRTVideoStreamingReceiver13numInitStagesEv @6779
    _ZNK27MultihopD2DPacketDescriptor11doesSupportEPN7omnetpp7cObjectE @6780
    _ZNK27MultihopD2DPacketDescriptor11getPropertyEPKc @6781
    _ZNK27MultihopD2DPacketDescriptor12getFieldNameEi @6782
    _ZNK27MultihopD2DPacketDescriptor13getFieldCountEv @6783
    _ZNK27MultihopD2DPacketDescriptor13getFieldValueEN7omnetpp7any_ptrEii @6784
    _ZNK27MultihopD2DPacketDescriptor13setFieldValueEN7omnetpp7any_ptrEiiRKNS0_6cValueE @6785
    _ZNK27MultihopD2DPacketDescriptor16getFieldPropertyEiPKc @6786
    _ZNK27MultihopD2DPacketDescriptor16getPropertyNamesEv @6787
    _ZNK27MultihopD2DPacketDescriptor17getFieldArraySizeEN7omnetpp7any_ptrEi @6788
    _ZNK27MultihopD2DPacketDescriptor17getFieldTypeFlagsEi @6789
    _ZNK27MultihopD2DPacketDescriptor17setFieldArraySizeEN7omnetpp7any_ptrEii @6790
    _ZNK27MultihopD2DPacketDescriptor18getFieldStructNameEi @6791
    _ZNK27MultihopD2DPacketDescriptor18getFieldTypeStringEi @6792
    _ZNK27MultihopD2DPacketDescriptor21getFieldPropertyNamesEi @6793
    _ZNK27MultihopD2DPacketDescriptor21getFieldValueAsStringB5cxx11EN7omnetpp7any_ptrEii @6794
    _ZNK27MultihopD2DPacketDescriptor21setFieldValueAsStringEN7omnetpp7any_ptrEiiPKc @6795
    _ZNK27MultihopD2DPacketDescriptor25getFieldDynamicTypeStringEN7omnetpp7any_ptrEii @6796
    _ZNK27MultihopD2DPacketDescriptor26getFieldStructValuePointerEN7omnetpp7any_ptrEii @6797
    _ZNK27MultihopD2DPacketDescriptor26setFieldStructValuePointerEN7omnetpp7any_ptrEiiS1_ @6798
    _ZNK27MultihopD2DPacketDescriptor9findFieldEPKc @6799
    _ZNK27RlcUmRxWindowDescDescriptor11doesSupportEPN7omnetpp7cObjectE @6800
    _ZNK27RlcUmRxWindowDescDescriptor11getPropertyEPKc @6801
    _ZNK27RlcUmRxWindowDescDescriptor12getFieldNameEi @6802
    _ZNK27RlcUmRxWindowDescDescriptor13getFieldCountEv @6803
    _ZNK27RlcUmRxWindowDescDescriptor13getFieldValueEN7omnetpp7any_ptrEii @6804
    _ZNK27RlcUmRxWindowDescDescriptor13setFieldValueEN7omnetpp7any_ptrEiiRKNS0_6cValueE @6805
    _ZNK27RlcUmRxWindowDescDescriptor16getFieldPropertyEiPKc @6806
    _ZNK27RlcUmRxWindowDescDescriptor16getPropertyNamesEv @6807
    _ZNK27RlcUmRxWindowDescDescriptor17getFieldArraySizeEN7omnetpp7any_ptrEi @6808
    _ZNK27RlcUmRxWindowDescDescriptor17getFieldTypeFlagsEi @6809
    _ZNK27RlcUmRxWindowDescDescriptor17setFieldArraySizeEN7omnetpp7any_ptrEii @6810
    _ZNK27RlcUmRxWindowDescDescriptor18getFieldStructNameEi @6811
    _ZNK27RlcUmRxWindowDescDescriptor18getFieldTypeStringEi @6812
    _ZNK27RlcUmRxWindowDescDescriptor21getFieldPropertyNamesEi @6813
    _ZNK27RlcUmRxWindowDescDescriptor21getFieldValueAsStringB5cxx11EN7omnetpp7any_ptrEii @6814
    _ZNK27RlcUmRxWindowDescDescriptor21setFieldValueAsStringEN7omnetpp7any_ptrEiiPKc @6815
    _ZNK27RlcUmRxWindowDescDescriptor25getFieldDynamicTypeStringEN7omnetpp7any_ptrEii @6816
    _ZNK27RlcUmRxWindowDescDescriptor26getFieldStructValuePointerEN7omnetpp7any_ptrEii @6817
    _ZNK27RlcUmRxWindowDescDescriptor26setFieldStructValuePointerEN7omnetpp7any_ptrEiiS1_ @6818
    _ZNK27RlcUmRxWindowDescDescriptor9findFieldEPKc @6819
    _ZNK27SafetyStartPacketDescriptor11doesSupportEPN7omnetpp7cObjectE @6820
    _ZNK27SafetyStartPacketDescriptor11getPropertyEPKc @6821
    _ZNK27SafetyStartPacketDescriptor12getFieldNameEi @6822
    _ZNK27SafetyStartPacketDescriptor13getFieldCountEv @6823
    _ZNK27SafetyStartPacketDescriptor13getFieldValueEN7omnetpp7any_ptrEii @6824
    _ZNK27SafetyStartPacketDescriptor13setFieldValueEN7omnetpp7any_ptrEiiRKNS0_6cValueE @6825
    _ZNK27SafetyStartPacketDescriptor16getFieldPropertyEiPKc @6826
    _ZNK27SafetyStartPacketDescriptor16getPropertyNamesEv @6827
    _ZNK27SafetyStartPacketDescriptor17getFieldArraySizeEN7omnetpp7any_ptrEi @6828
    _ZNK27SafetyStartPacketDescriptor17getFieldTypeFlagsEi @6829
    _ZNK27SafetyStartPacketDescriptor17setFieldArraySizeEN7omnetpp7any_ptrEii @6830
    _ZNK27SafetyStartPacketDescriptor18getFieldStructNameEi @6831
    _ZNK27SafetyStartPacketDescriptor18getFieldTypeStringEi @6832
    _ZNK27SafetyStartPacketDescriptor21getFieldPropertyNamesEi @6833
    _ZNK27SafetyStartPacketDescriptor21getFieldValueAsStringB5cxx11EN7omnetpp7any_ptrEii @6834
    _ZNK27SafetyStartPacketDescriptor21setFieldValueAsStringEN7omnetpp7any_ptrEiiPKc @6835
    _ZNK27SafetyStartPacketDescriptor25getFieldDynamicTypeStringEN7omnetpp7any_ptrEii @6836
    _ZNK27SafetyStartPacketDescriptor26getFieldStructValuePointerEN7omnetpp7any_ptrEii @6837
    _ZNK27SafetyStartPacketDescriptor26setFieldStructValuePointerEN7omnetpp7any_ptrEiiS1_ @6838
    _ZNK27SafetyStartPacketDescriptor9findFieldEPKc @6839
    _ZNK27WarningStopPacketDescriptor11doesSupportEPN7omnetpp7cObjectE @6840
    _ZNK27WarningStopPacketDescriptor11getPropertyEPKc @6841
    _ZNK27WarningStopPacketDescriptor12getFieldNameEi @6842
    _ZNK27WarningStopPacketDescriptor13getFieldCountEv @6843
    _ZNK27WarningStopPacketDescriptor13getFieldValueEN7omnetpp7any_ptrEii @6844
    _ZNK27WarningStopPacketDescriptor13setFieldValueEN7omnetpp7any_ptrEiiRKNS0_6cValueE @6845
    _ZNK27WarningStopPacketDescriptor16getFieldPropertyEiPKc @6846
    _ZNK27WarningStopPacketDescriptor16getPropertyNamesEv @6847
    _ZNK27WarningStopPacketDescriptor17getFieldArraySizeEN7omnetpp7any_ptrEi @6848
    _ZNK27WarningStopPacketDescriptor17getFieldTypeFlagsEi @6849
    _ZNK27WarningStopPacketDescriptor17setFieldArraySizeEN7omnetpp7any_ptrEii @6850
    _ZNK27WarningStopPacketDescriptor18getFieldStructNameEi @6851
    _ZNK27WarningStopPacketDescriptor18getFieldTypeStringEi @6852
    _ZNK27WarningStopPacketDescriptor21getFieldPropertyNamesEi @6853
    _ZNK27WarningStopPacketDescriptor21getFieldValueAsStringB5cxx11EN7omnetpp7any_ptrEii @6854
    _ZNK27WarningStopPacketDescriptor21setFieldValueAsStringEN7omnetpp7any_ptrEiiPKc @6855
    _ZNK27WarningStopPacketDescriptor25getFieldDynamicTypeStringEN7omnetpp7any_ptrEii @6856
    _ZNK27WarningStopPacketDescriptor26getFieldStructValuePointerEN7omnetpp7any_ptrEii @6857
    _ZNK27WarningStopPacketDescriptor26setFieldStructValuePointerEN7omnetpp7any_ptrEiiS1_ @6858
    _ZNK27WarningStopPacketDescriptor9findFieldEPKc @6859
    _ZNK27X2CompProportionalRequestIE3dupEv @6860
    _ZNK28AperiodicSubscriptionTimer_m10parsimPackEPN7omnetpp11cCommBufferE @6861
    _ZNK28AperiodicSubscriptionTimer_m3dupEv @6862
    _ZNK28AperiodicSubscriptionTimer_m9getPeriodEv @6863
    _ZNK28LteSchedulingGrantDescriptor11doesSupportEPN7omnetpp7cObjectE @6864
    _ZNK28LteSchedulingGrantDescriptor11getPropertyEPKc @6865
    _ZNK28LteSchedulingGrantDescriptor12getFieldNameEi @6866
    _ZNK28LteSchedulingGrantDescriptor13getFieldCountEv @6867
    _ZNK28LteSchedulingGrantDescriptor13getFieldValueEN7omnetpp7any_ptrEii @6868
    _ZNK28LteSchedulingGrantDescriptor13setFieldValueEN7omnetpp7any_ptrEiiRKNS0_6cValueE @6869
    _ZNK28LteSchedulingGrantDescriptor16getFieldPropertyEiPKc @6870
    _ZNK28LteSchedulingGrantDescriptor16getPropertyNamesEv @6871
    _ZNK28LteSchedulingGrantDescriptor17getFieldArraySizeEN7omnetpp7any_ptrEi @6872
    _ZNK28LteSchedulingGrantDescriptor17getFieldTypeFlagsEi @6873
    _ZNK28LteSchedulingGrantDescriptor17setFieldArraySizeEN7omnetpp7any_ptrEii @6874
    _ZNK28LteSchedulingGrantDescriptor18getFieldStructNameEi @6875
    _ZNK28LteSchedulingGrantDescriptor18getFieldTypeStringEi @6876
    _ZNK28LteSchedulingGrantDescriptor21getFieldPropertyNamesEi @6877
    _ZNK28LteSchedulingGrantDescriptor21getFieldValueAsStringB5cxx11EN7omnetpp7any_ptrEii @6878
    _ZNK28LteSchedulingGrantDescriptor21setFieldValueAsStringEN7omnetpp7any_ptrEiiPKc @6879
    _ZNK28LteSchedulingGrantDescriptor25getFieldDynamicTypeStringEN7omnetpp7any_ptrEii @6880
    _ZNK28LteSchedulingGrantDescriptor26getFieldStructValuePointerEN7omnetpp7any_ptrEii @6881
    _ZNK28LteSchedulingGrantDescriptor26setFieldStructValuePointerEN7omnetpp7any_ptrEiiS1_ @6882
    _ZNK28LteSchedulingGrantDescriptor9findFieldEPKc @6883
    _ZNK28WarningAlertPacketDescriptor11doesSupportEPN7omnetpp7cObjectE @6884
    _ZNK28WarningAlertPacketDescriptor11getPropertyEPKc @6885
    _ZNK28WarningAlertPacketDescriptor12getFieldNameEi @6886
    _ZNK28WarningAlertPacketDescriptor13getFieldCountEv @6887
    _ZNK28WarningAlertPacketDescriptor13getFieldValueEN7omnetpp7any_ptrEii @6888
    _ZNK28WarningAlertPacketDescriptor13setFieldValueEN7omnetpp7any_ptrEiiRKNS0_6cValueE @6889
    _ZNK28WarningAlertPacketDescriptor16getFieldPropertyEiPKc @6890
    _ZNK28WarningAlertPacketDescriptor16getPropertyNamesEv @6891
    _ZNK28WarningAlertPacketDescriptor17getFieldArraySizeEN7omnetpp7any_ptrEi @6892
    _ZNK28WarningAlertPacketDescriptor17getFieldTypeFlagsEi @6893
    _ZNK28WarningAlertPacketDescriptor17setFieldArraySizeEN7omnetpp7any_ptrEii @6894
    _ZNK28WarningAlertPacketDescriptor18getFieldStructNameEi @6895
    _ZNK28WarningAlertPacketDescriptor18getFieldTypeStringEi @6896
    _ZNK28WarningAlertPacketDescriptor21getFieldPropertyNamesEi @6897
    _ZNK28WarningAlertPacketDescriptor21getFieldValueAsStringB5cxx11EN7omnetpp7any_ptrEii @6898
    _ZNK28WarningAlertPacketDescriptor21setFieldValueAsStringEN7omnetpp7any_ptrEiiPKc @6899
    _ZNK28WarningAlertPacketDescriptor25getFieldDynamicTypeStringEN7omnetpp7any_ptrEii @6900
    _ZNK28WarningAlertPacketDescriptor26getFieldStructValuePointerEN7omnetpp7any_ptrEii @6901
    _ZNK28WarningAlertPacketDescriptor26setFieldStructValuePointerEN7omnetpp7any_ptrEiiS1_ @6902
    _ZNK28WarningAlertPacketDescriptor9findFieldEPKc @6903
    _ZNK28WarningStartPacketDescriptor11doesSupportEPN7omnetpp7cObjectE @6904
    _ZNK28WarningStartPacketDescriptor11getPropertyEPKc @6905
    _ZNK28WarningStartPacketDescriptor12getFieldNameEi @6906
    _ZNK28WarningStartPacketDescriptor13getFieldCountEv @6907
    _ZNK28WarningStartPacketDescriptor13getFieldValueEN7omnetpp7any_ptrEii @6908
    _ZNK28WarningStartPacketDescriptor13setFieldValueEN7omnetpp7any_ptrEiiRKNS0_6cValueE @6909
    _ZNK28WarningStartPacketDescriptor16getFieldPropertyEiPKc @6910
    _ZNK28WarningStartPacketDescriptor16getPropertyNamesEv @6911
    _ZNK28WarningStartPacketDescriptor17getFieldArraySizeEN7omnetpp7any_ptrEi @6912
    _ZNK28WarningStartPacketDescriptor17getFieldTypeFlagsEi @6913
    _ZNK28WarningStartPacketDescriptor17setFieldArraySizeEN7omnetpp7any_ptrEii @6914
    _ZNK28WarningStartPacketDescriptor18getFieldStructNameEi @6915
    _ZNK28WarningStartPacketDescriptor18getFieldTypeStringEi @6916
    _ZNK28WarningStartPacketDescriptor21getFieldPropertyNamesEi @6917
    _ZNK28WarningStartPacketDescriptor21getFieldValueAsStringB5cxx11EN7omnetpp7any_ptrEii @6918
    _ZNK28WarningStartPacketDescriptor21setFieldValueAsStringEN7omnetpp7any_ptrEiiPKc @6919
    _ZNK28WarningStartPacketDescriptor25getFieldDynamicTypeStringEN7omnetpp7any_ptrEii @6920
    _ZNK28WarningStartPacketDescriptor26getFieldStructValuePointerEN7omnetpp7any_ptrEii @6921
    _ZNK28WarningStartPacketDescriptor26setFieldStructValuePointerEN7omnetpp7any_ptrEiiS1_ @6922
    _ZNK28WarningStartPacketDescriptor9findFieldEPKc @6923
    _ZNK29CreateContextAppAckDescriptor11doesSupportEPN7omnetpp7cObjectE @6924
    _ZNK29CreateContextAppAckDescriptor11getPropertyEPKc @6925
    _ZNK29CreateContextAppAckDescriptor12getFieldNameEi @6926
    _ZNK29CreateContextAppAckDescriptor13getFieldCountEv @6927
    _ZNK29CreateContextAppAckDescriptor13getFieldValueEN7omnetpp7any_ptrEii @6928
    _ZNK29CreateContextAppAckDescriptor13setFieldValueEN7omnetpp7any_ptrEiiRKNS0_6cValueE @6929
    _ZNK29CreateContextAppAckDescriptor16getFieldPropertyEiPKc @6930
    _ZNK29CreateContextAppAckDescriptor16getPropertyNamesEv @6931
    _ZNK29CreateContextAppAckDescriptor17getFieldArraySizeEN7omnetpp7any_ptrEi @6932
    _ZNK29CreateContextAppAckDescriptor17getFieldTypeFlagsEi @6933
    _ZNK29CreateContextAppAckDescriptor17setFieldArraySizeEN7omnetpp7any_ptrEii @6934
    _ZNK29CreateContextAppAckDescriptor18getFieldStructNameEi @6935
    _ZNK29CreateContextAppAckDescriptor18getFieldTypeStringEi @6936
    _ZNK29CreateContextAppAckDescriptor21getFieldPropertyNamesEi @6937
    _ZNK29CreateContextAppAckDescriptor21getFieldValueAsStringB5cxx11EN7omnetpp7any_ptrEii @6938
    _ZNK29CreateContextAppAckDescriptor21setFieldValueAsStringEN7omnetpp7any_ptrEiiPKc @6939
    _ZNK29CreateContextAppAckDescriptor25getFieldDynamicTypeStringEN7omnetpp7any_ptrEii @6940
    _ZNK29CreateContextAppAckDescriptor26getFieldStructValuePointerEN7omnetpp7any_ptrEii @6941
    _ZNK29CreateContextAppAckDescriptor26setFieldStructValuePointerEN7omnetpp7any_ptrEiiS1_ @6942
    _ZNK29CreateContextAppAckDescriptor9findFieldEPKc @6943
    _ZNK29DeviceAppStopPacketDescriptor11doesSupportEPN7omnetpp7cObjectE @6944
    _ZNK29DeviceAppStopPacketDescriptor11getPropertyEPKc @6945
    _ZNK29DeviceAppStopPacketDescriptor12getFieldNameEi @6946
    _ZNK29DeviceAppStopPacketDescriptor13getFieldCountEv @6947
    _ZNK29DeviceAppStopPacketDescriptor13getFieldValueEN7omnetpp7any_ptrEii @6948
    _ZNK29DeviceAppStopPacketDescriptor13setFieldValueEN7omnetpp7any_ptrEiiRKNS0_6cValueE @6949
    _ZNK29DeviceAppStopPacketDescriptor16getFieldPropertyEiPKc @6950
    _ZNK29DeviceAppStopPacketDescriptor16getPropertyNamesEv @6951
    _ZNK29DeviceAppStopPacketDescriptor17getFieldArraySizeEN7omnetpp7any_ptrEi @6952
    _ZNK29DeviceAppStopPacketDescriptor17getFieldTypeFlagsEi @6953
    _ZNK29DeviceAppStopPacketDescriptor17setFieldArraySizeEN7omnetpp7any_ptrEii @6954
    _ZNK29DeviceAppStopPacketDescriptor18getFieldStructNameEi @6955
    _ZNK29DeviceAppStopPacketDescriptor18getFieldTypeStringEi @6956
    _ZNK29DeviceAppStopPacketDescriptor21getFieldPropertyNamesEi @6957
    _ZNK29DeviceAppStopPacketDescriptor21getFieldValueAsStringB5cxx11EN7omnetpp7any_ptrEii @6958
    _ZNK29DeviceAppStopPacketDescriptor21setFieldValueAsStringEN7omnetpp7any_ptrEiiPKc @6959
    _ZNK29DeviceAppStopPacketDescriptor25getFieldDynamicTypeStringEN7omnetpp7any_ptrEii @6960
    _ZNK29DeviceAppStopPacketDescriptor26getFieldStructValuePointerEN7omnetpp7any_ptrEii @6961
    _ZNK29DeviceAppStopPacketDescriptor26setFieldStructValuePointerEN7omnetpp7any_ptrEiiS1_ @6962
    _ZNK29DeviceAppStopPacketDescriptor9findFieldEPKc @6963
    _ZNK30ActiveUeNotificationDescriptor11doesSupportEPN7omnetpp7cObjectE @6964
    _ZNK30ActiveUeNotificationDescriptor11getPropertyEPKc @6965
    _ZNK30ActiveUeNotificationDescriptor12getFieldNameEi @6966
    _ZNK30ActiveUeNotificationDescriptor13getFieldCountEv @6967
    _ZNK30ActiveUeNotificationDescriptor13getFieldValueEN7omnetpp7any_ptrEii @6968
    _ZNK30ActiveUeNotificationDescriptor13setFieldValueEN7omnetpp7any_ptrEiiRKNS0_6cValueE @6969
    _ZNK30ActiveUeNotificationDescriptor16getFieldPropertyEiPKc @6970
    _ZNK30ActiveUeNotificationDescriptor16getPropertyNamesEv @6971
    _ZNK30ActiveUeNotificationDescriptor17getFieldArraySizeEN7omnetpp7any_ptrEi @6972
    _ZNK30ActiveUeNotificationDescriptor17getFieldTypeFlagsEi @6973
    _ZNK30ActiveUeNotificationDescriptor17setFieldArraySizeEN7omnetpp7any_ptrEii @6974
    _ZNK30ActiveUeNotificationDescriptor18getFieldStructNameEi @6975
    _ZNK30ActiveUeNotificationDescriptor18getFieldTypeStringEi @6976
    _ZNK30ActiveUeNotificationDescriptor21getFieldPropertyNamesEi @6977
    _ZNK30ActiveUeNotificationDescriptor21getFieldValueAsStringB5cxx11EN7omnetpp7any_ptrEii @6978
    _ZNK30ActiveUeNotificationDescriptor21setFieldValueAsStringEN7omnetpp7any_ptrEiiPKc @6979
    _ZNK30ActiveUeNotificationDescriptor25getFieldDynamicTypeStringEN7omnetpp7any_ptrEii @6980
    _ZNK30ActiveUeNotificationDescriptor26getFieldStructValuePointerEN7omnetpp7any_ptrEii @6981
    _ZNK30ActiveUeNotificationDescriptor26setFieldStructValuePointerEN7omnetpp7any_ptrEiiS1_ @6982
    _ZNK30ActiveUeNotificationDescriptor9findFieldEPKc @6983
    _ZNK30CircleNotificationSubscription17getCheckImmediateEv @6984
    _ZNK30DeviceAppStartPacketDescriptor11doesSupportEPN7omnetpp7cObjectE @6985
    _ZNK30DeviceAppStartPacketDescriptor11getPropertyEPKc @6986
    _ZNK30DeviceAppStartPacketDescriptor12getFieldNameEi @6987
    _ZNK30DeviceAppStartPacketDescriptor13getFieldCountEv @6988
    _ZNK30DeviceAppStartPacketDescriptor13getFieldValueEN7omnetpp7any_ptrEii @6989
    _ZNK30DeviceAppStartPacketDescriptor13setFieldValueEN7omnetpp7any_ptrEiiRKNS0_6cValueE @6990
    _ZNK30DeviceAppStartPacketDescriptor16getFieldPropertyEiPKc @6991
    _ZNK30DeviceAppStartPacketDescriptor16getPropertyNamesEv @6992
    _ZNK30DeviceAppStartPacketDescriptor17getFieldArraySizeEN7omnetpp7any_ptrEi @6993
    _ZNK30DeviceAppStartPacketDescriptor17getFieldTypeFlagsEi @6994
    _ZNK30DeviceAppStartPacketDescriptor17setFieldArraySizeEN7omnetpp7any_ptrEii @6995
    _ZNK30DeviceAppStartPacketDescriptor18getFieldStructNameEi @6996
    _ZNK30DeviceAppStartPacketDescriptor18getFieldTypeStringEi @6997
    _ZNK30DeviceAppStartPacketDescriptor21getFieldPropertyNamesEi @6998
    _ZNK30DeviceAppStartPacketDescriptor21getFieldValueAsStringB5cxx11EN7omnetpp7any_ptrEii @6999
    _ZNK30DeviceAppStartPacketDescriptor21setFieldValueAsStringEN7omnetpp7any_ptrEiiPKc @7000
    _ZNK30DeviceAppStartPacketDescriptor25getFieldDynamicTypeStringEN7omnetpp7any_ptrEii @7001
    _ZNK30DeviceAppStartPacketDescriptor26getFieldStructValuePointerEN7omnetpp7any_ptrEii @7002
    _ZNK30DeviceAppStartPacketDescriptor26setFieldStructValuePointerEN7omnetpp7any_ptrEiiS1_ @7003
    _ZNK30DeviceAppStartPacketDescriptor9findFieldEPKc @7004
    _ZNK30HttpRequestMessage_mDescriptor11doesSupportEPN7omnetpp7cObjectE @7005
    _ZNK30HttpRequestMessage_mDescriptor11getPropertyEPKc @7006
    _ZNK30HttpRequestMessage_mDescriptor12getFieldNameEi @7007
    _ZNK30HttpRequestMessage_mDescriptor13getFieldCountEv @7008
    _ZNK30HttpRequestMessage_mDescriptor13getFieldValueEN7omnetpp7any_ptrEii @7009
    _ZNK30HttpRequestMessage_mDescriptor13setFieldValueEN7omnetpp7any_ptrEiiRKNS0_6cValueE @7010
    _ZNK30HttpRequestMessage_mDescriptor16getFieldPropertyEiPKc @7011
    _ZNK30HttpRequestMessage_mDescriptor16getPropertyNamesEv @7012
    _ZNK30HttpRequestMessage_mDescriptor17getFieldArraySizeEN7omnetpp7any_ptrEi @7013
    _ZNK30HttpRequestMessage_mDescriptor17getFieldTypeFlagsEi @7014
    _ZNK30HttpRequestMessage_mDescriptor17setFieldArraySizeEN7omnetpp7any_ptrEii @7015
    _ZNK30HttpRequestMessage_mDescriptor18getFieldStructNameEi @7016
    _ZNK30HttpRequestMessage_mDescriptor18getFieldTypeStringEi @7017
    _ZNK30HttpRequestMessage_mDescriptor21getFieldPropertyNamesEi @7018
    _ZNK30HttpRequestMessage_mDescriptor21getFieldValueAsStringB5cxx11EN7omnetpp7any_ptrEii @7019
    _ZNK30HttpRequestMessage_mDescriptor21setFieldValueAsStringEN7omnetpp7any_ptrEiiPKc @7020
    _ZNK30HttpRequestMessage_mDescriptor25getFieldDynamicTypeStringEN7omnetpp7any_ptrEii @7021
    _ZNK30HttpRequestMessage_mDescriptor26getFieldStructValuePointerEN7omnetpp7any_ptrEii @7022
    _ZNK30HttpRequestMessage_mDescriptor26setFieldStructValuePointerEN7omnetpp7any_ptrEiiS1_ @7023
    _ZNK30HttpRequestMessage_mDescriptor9findFieldEPKc @7024
    _ZNK30X2InformationElementDescriptor11doesSupportEPN7omnetpp7cObjectE @7025
    _ZNK30X2InformationElementDescriptor11getPropertyEPKc @7026
    _ZNK30X2InformationElementDescriptor12getFieldNameEi @7027
    _ZNK30X2InformationElementDescriptor13getFieldCountEv @7028
    _ZNK30X2InformationElementDescriptor13getFieldValueEN7omnetpp7any_ptrEii @7029
    _ZNK30X2InformationElementDescriptor13setFieldValueEN7omnetpp7any_ptrEiiRKNS0_6cValueE @7030
    _ZNK30X2InformationElementDescriptor16getFieldPropertyEiPKc @7031
    _ZNK30X2InformationElementDescriptor16getPropertyNamesEv @7032
    _ZNK30X2InformationElementDescriptor17getFieldArraySizeEN7omnetpp7any_ptrEi @7033
    _ZNK30X2InformationElementDescriptor17getFieldTypeFlagsEi @7034
    _ZNK30X2InformationElementDescriptor17setFieldArraySizeEN7omnetpp7any_ptrEii @7035
    _ZNK30X2InformationElementDescriptor18getFieldStructNameEi @7036
    _ZNK30X2InformationElementDescriptor18getFieldTypeStringEi @7037
    _ZNK30X2InformationElementDescriptor21getFieldPropertyNamesEi @7038
    _ZNK30X2InformationElementDescriptor21getFieldValueAsStringB5cxx11EN7omnetpp7any_ptrEii @7039
    _ZNK30X2InformationElementDescriptor21setFieldValueAsStringEN7omnetpp7any_ptrEiiPKc @7040
    _ZNK30X2InformationElementDescriptor25getFieldDynamicTypeStringEN7omnetpp7any_ptrEii @7041
    _ZNK30X2InformationElementDescriptor26getFieldStructValuePointerEN7omnetpp7any_ptrEii @7042
    _ZNK30X2InformationElementDescriptor26setFieldStructValuePointerEN7omnetpp7any_ptrEiiS1_ @7043
    _ZNK30X2InformationElementDescriptor9findFieldEPKc @7044
    _ZNK31HttpResponseMessage_mDescriptor11doesSupportEPN7omnetpp7cObjectE @7045
    _ZNK31HttpResponseMessage_mDescriptor11getPropertyEPKc @7046
    _ZNK31HttpResponseMessage_mDescriptor12getFieldNameEi @7047
    _ZNK31HttpResponseMessage_mDescriptor13getFieldCountEv @7048
    _ZNK31HttpResponseMessage_mDescriptor13getFieldValueEN7omnetpp7any_ptrEii @7049
    _ZNK31HttpResponseMessage_mDescriptor13setFieldValueEN7omnetpp7any_ptrEiiRKNS0_6cValueE @7050
    _ZNK31HttpResponseMessage_mDescriptor16getFieldPropertyEiPKc @7051
    _ZNK31HttpResponseMessage_mDescriptor16getPropertyNamesEv @7052
    _ZNK31HttpResponseMessage_mDescriptor17getFieldArraySizeEN7omnetpp7any_ptrEi @7053
    _ZNK31HttpResponseMessage_mDescriptor17getFieldTypeFlagsEi @7054
    _ZNK31HttpResponseMessage_mDescriptor17setFieldArraySizeEN7omnetpp7any_ptrEii @7055
    _ZNK31HttpResponseMessage_mDescriptor18getFieldStructNameEi @7056
    _ZNK31HttpResponseMessage_mDescriptor18getFieldTypeStringEi @7057
    _ZNK31HttpResponseMessage_mDescriptor21getFieldPropertyNamesEi @7058
    _ZNK31HttpResponseMessage_mDescriptor21getFieldValueAsStringB5cxx11EN7omnetpp7any_ptrEii @7059
    _ZNK31HttpResponseMessage_mDescriptor21setFieldValueAsStringEN7omnetpp7any_ptrEiiPKc @7060
    _ZNK31HttpResponseMessage_mDescriptor25getFieldDynamicTypeStringEN7omnetpp7any_ptrEii @7061
    _ZNK31HttpResponseMessage_mDescriptor26getFieldStructValuePointerEN7omnetpp7any_ptrEii @7062
    _ZNK31HttpResponseMessage_mDescriptor26setFieldStructValuePointerEN7omnetpp7any_ptrEiiS1_ @7063
    _ZNK31HttpResponseMessage_mDescriptor9findFieldEPKc @7064
    _ZNK31LteHarqFeedbackMirrorDescriptor11doesSupportEPN7omnetpp7cObjectE @7065
    _ZNK31LteHarqFeedbackMirrorDescriptor11getPropertyEPKc @7066
    _ZNK31LteHarqFeedbackMirrorDescriptor12getFieldNameEi @7067
    _ZNK31LteHarqFeedbackMirrorDescriptor13getFieldCountEv @7068
    _ZNK31LteHarqFeedbackMirrorDescriptor13getFieldValueEN7omnetpp7any_ptrEii @7069
    _ZNK31LteHarqFeedbackMirrorDescriptor13setFieldValueEN7omnetpp7any_ptrEiiRKNS0_6cValueE @7070
    _ZNK31LteHarqFeedbackMirrorDescriptor16getFieldPropertyEiPKc @7071
    _ZNK31LteHarqFeedbackMirrorDescriptor16getPropertyNamesEv @7072
    _ZNK31LteHarqFeedbackMirrorDescriptor17getFieldArraySizeEN7omnetpp7any_ptrEi @7073
    _ZNK31LteHarqFeedbackMirrorDescriptor17getFieldTypeFlagsEi @7074
    _ZNK31LteHarqFeedbackMirrorDescriptor17setFieldArraySizeEN7omnetpp7any_ptrEii @7075
    _ZNK31LteHarqFeedbackMirrorDescriptor18getFieldStructNameEi @7076
    _ZNK31LteHarqFeedbackMirrorDescriptor18getFieldTypeStringEi @7077
    _ZNK31LteHarqFeedbackMirrorDescriptor21getFieldPropertyNamesEi @7078
    _ZNK31LteHarqFeedbackMirrorDescriptor21getFieldValueAsStringB5cxx11EN7omnetpp7any_ptrEii @7079
    _ZNK31LteHarqFeedbackMirrorDescriptor21setFieldValueAsStringEN7omnetpp7any_ptrEiiPKc @7080
    _ZNK31LteHarqFeedbackMirrorDescriptor25getFieldDynamicTypeStringEN7omnetpp7any_ptrEii @7081
    _ZNK31LteHarqFeedbackMirrorDescriptor26getFieldStructValuePointerEN7omnetpp7any_ptrEii @7082
    _ZNK31LteHarqFeedbackMirrorDescriptor26setFieldStructValuePointerEN7omnetpp7any_ptrEiiS1_ @7083
    _ZNK31LteHarqFeedbackMirrorDescriptor9findFieldEPKc @7084
    _ZNK31ProcessingTimeMessageDescriptor11doesSupportEPN7omnetpp7cObjectE @7085
    _ZNK31ProcessingTimeMessageDescriptor11getPropertyEPKc @7086
    _ZNK31ProcessingTimeMessageDescriptor12getFieldNameEi @7087
    _ZNK31ProcessingTimeMessageDescriptor13getFieldCountEv @7088
    _ZNK31ProcessingTimeMessageDescriptor13getFieldValueEN7omnetpp7any_ptrEii @7089
    _ZNK31ProcessingTimeMessageDescriptor13setFieldValueEN7omnetpp7any_ptrEiiRKNS0_6cValueE @7090
    _ZNK31ProcessingTimeMessageDescriptor16getFieldPropertyEiPKc @7091
    _ZNK31ProcessingTimeMessageDescriptor16getPropertyNamesEv @7092
    _ZNK31ProcessingTimeMessageDescriptor17getFieldArraySizeEN7omnetpp7any_ptrEi @7093
    _ZNK31ProcessingTimeMessageDescriptor17getFieldTypeFlagsEi @7094
    _ZNK31ProcessingTimeMessageDescriptor17setFieldArraySizeEN7omnetpp7any_ptrEii @7095
    _ZNK31ProcessingTimeMessageDescriptor18getFieldStructNameEi @7096
    _ZNK31ProcessingTimeMessageDescriptor18getFieldTypeStringEi @7097
    _ZNK31ProcessingTimeMessageDescriptor21getFieldPropertyNamesEi @7098
    _ZNK31ProcessingTimeMessageDescriptor21getFieldValueAsStringB5cxx11EN7omnetpp7any_ptrEii @7099
    _ZNK31ProcessingTimeMessageDescriptor21setFieldValueAsStringEN7omnetpp7any_ptrEiiPKc @7100
    _ZNK31ProcessingTimeMessageDescriptor25getFieldDynamicTypeStringEN7omnetpp7any_ptrEii @7101
    _ZNK31ProcessingTimeMessageDescriptor26getFieldStructValuePointerEN7omnetpp7any_ptrEii @7102
    _ZNK31ProcessingTimeMessageDescriptor26setFieldStructValuePointerEN7omnetpp7any_ptrEiiS1_ @7103
    _ZNK31ProcessingTimeMessageDescriptor9findFieldEPKc @7104
    _ZNK31RealTimeVideoStreamingAppPacket10parsimPackEPN7omnetpp11cCommBufferE @7105
    _ZNK31RealTimeVideoStreamingAppPacket3dupEv @7106
    _ZNK31RealTimeVideoStreamingAppPacket7getTypeEv @7107
    _ZNK32DeviceAppStopAckPacketDescriptor11doesSupportEPN7omnetpp7cObjectE @7108
    _ZNK32DeviceAppStopAckPacketDescriptor11getPropertyEPKc @7109
    _ZNK32DeviceAppStopAckPacketDescriptor12getFieldNameEi @7110
    _ZNK32DeviceAppStopAckPacketDescriptor13getFieldCountEv @7111
    _ZNK32DeviceAppStopAckPacketDescriptor13getFieldValueEN7omnetpp7any_ptrEii @7112
    _ZNK32DeviceAppStopAckPacketDescriptor13setFieldValueEN7omnetpp7any_ptrEiiRKNS0_6cValueE @7113
    _ZNK32DeviceAppStopAckPacketDescriptor16getFieldPropertyEiPKc @7114
    _ZNK32DeviceAppStopAckPacketDescriptor16getPropertyNamesEv @7115
    _ZNK32DeviceAppStopAckPacketDescriptor17getFieldArraySizeEN7omnetpp7any_ptrEi @7116
    _ZNK32DeviceAppStopAckPacketDescriptor17getFieldTypeFlagsEi @7117
    _ZNK32DeviceAppStopAckPacketDescriptor17setFieldArraySizeEN7omnetpp7any_ptrEii @7118
    _ZNK32DeviceAppStopAckPacketDescriptor18getFieldStructNameEi @7119
    _ZNK32DeviceAppStopAckPacketDescriptor18getFieldTypeStringEi @7120
    _ZNK32DeviceAppStopAckPacketDescriptor21getFieldPropertyNamesEi @7121
    _ZNK32DeviceAppStopAckPacketDescriptor21getFieldValueAsStringB5cxx11EN7omnetpp7any_ptrEii @7122
    _ZNK32DeviceAppStopAckPacketDescriptor21setFieldValueAsStringEN7omnetpp7any_ptrEiiPKc @7123
    _ZNK32DeviceAppStopAckPacketDescriptor25getFieldDynamicTypeStringEN7omnetpp7any_ptrEii @7124
    _ZNK32DeviceAppStopAckPacketDescriptor26getFieldStructValuePointerEN7omnetpp7any_ptrEii @7125
    _ZNK32DeviceAppStopAckPacketDescriptor26setFieldStructValuePointerEN7omnetpp7any_ptrEiiS1_ @7126
    _ZNK32DeviceAppStopAckPacketDescriptor9findFieldEPKc @7127
    _ZNK32MECOrchestratorMessageDescriptor11doesSupportEPN7omnetpp7cObjectE @7128
    _ZNK32MECOrchestratorMessageDescriptor11getPropertyEPKc @7129
    _ZNK32MECOrchestratorMessageDescriptor12getFieldNameEi @7130
    _ZNK32MECOrchestratorMessageDescriptor13getFieldCountEv @7131
    _ZNK32MECOrchestratorMessageDescriptor13getFieldValueEN7omnetpp7any_ptrEii @7132
    _ZNK32MECOrchestratorMessageDescriptor13setFieldValueEN7omnetpp7any_ptrEiiRKNS0_6cValueE @7133
    _ZNK32MECOrchestratorMessageDescriptor16getFieldPropertyEiPKc @7134
    _ZNK32MECOrchestratorMessageDescriptor16getPropertyNamesEv @7135
    _ZNK32MECOrchestratorMessageDescriptor17getFieldArraySizeEN7omnetpp7any_ptrEi @7136
    _ZNK32MECOrchestratorMessageDescriptor17getFieldTypeFlagsEi @7137
    _ZNK32MECOrchestratorMessageDescriptor17setFieldArraySizeEN7omnetpp7any_ptrEii @7138
    _ZNK32MECOrchestratorMessageDescriptor18getFieldStructNameEi @7139
    _ZNK32MECOrchestratorMessageDescriptor18getFieldTypeStringEi @7140
    _ZNK32MECOrchestratorMessageDescriptor21getFieldPropertyNamesEi @7141
    _ZNK32MECOrchestratorMessageDescriptor21getFieldValueAsStringB5cxx11EN7omnetpp7any_ptrEii @7142
    _ZNK32MECOrchestratorMessageDescriptor21setFieldValueAsStringEN7omnetpp7any_ptrEiiPKc @7143
    _ZNK32MECOrchestratorMessageDescriptor25getFieldDynamicTypeStringEN7omnetpp7any_ptrEii @7144
    _ZNK32MECOrchestratorMessageDescriptor26getFieldStructValuePointerEN7omnetpp7any_ptrEii @7145
    _ZNK32MECOrchestratorMessageDescriptor26setFieldStructValuePointerEN7omnetpp7any_ptrEiiS1_ @7146
    _ZNK32MECOrchestratorMessageDescriptor9findFieldEPKc @7147
    _ZNK32MecRequestBackgroundGeneratorApp13numInitStagesEv @7148
    _ZNK33DeleteContextAppMessageDescriptor11doesSupportEPN7omnetpp7cObjectE @7149
    _ZNK33DeleteContextAppMessageDescriptor11getPropertyEPKc @7150
    _ZNK33DeleteContextAppMessageDescriptor12getFieldNameEi @7151
    _ZNK33DeleteContextAppMessageDescriptor13getFieldCountEv @7152
    _ZNK33DeleteContextAppMessageDescriptor13getFieldValueEN7omnetpp7any_ptrEii @7153
    _ZNK33DeleteContextAppMessageDescriptor13setFieldValueEN7omnetpp7any_ptrEiiRKNS0_6cValueE @7154
    _ZNK33DeleteContextAppMessageDescriptor16getFieldPropertyEiPKc @7155
    _ZNK33DeleteContextAppMessageDescriptor16getPropertyNamesEv @7156
    _ZNK33DeleteContextAppMessageDescriptor17getFieldArraySizeEN7omnetpp7any_ptrEi @7157
    _ZNK33DeleteContextAppMessageDescriptor17getFieldTypeFlagsEi @7158
    _ZNK33DeleteContextAppMessageDescriptor17setFieldArraySizeEN7omnetpp7any_ptrEii @7159
    _ZNK33DeleteContextAppMessageDescriptor18getFieldStructNameEi @7160
    _ZNK33DeleteContextAppMessageDescriptor18getFieldTypeStringEi @7161
    _ZNK33DeleteContextAppMessageDescriptor21getFieldPropertyNamesEi @7162
    _ZNK33DeleteContextAppMessageDescriptor21getFieldValueAsStringB5cxx11EN7omnetpp7any_ptrEii @7163
    _ZNK33DeleteContextAppMessageDescriptor21setFieldValueAsStringEN7omnetpp7any_ptrEiiPKc @7164
    _ZNK33DeleteContextAppMessageDescriptor25getFieldDynamicTypeStringEN7omnetpp7any_ptrEii @7165
    _ZNK33DeleteContextAppMessageDescriptor26getFieldStructValuePointerEN7omnetpp7any_ptrEii @7166
    _ZNK33DeleteContextAppMessageDescriptor26setFieldStructValuePointerEN7omnetpp7any_ptrEiiS1_ @7167
    _ZNK33DeleteContextAppMessageDescriptor9findFieldEPKc @7168
    _ZNK33DeviceAppStartAckPacketDescriptor11doesSupportEPN7omnetpp7cObjectE @7169
    _ZNK33DeviceAppStartAckPacketDescriptor11getPropertyEPKc @7170
    _ZNK33DeviceAppStartAckPacketDescriptor12getFieldNameEi @7171
    _ZNK33DeviceAppStartAckPacketDescriptor13getFieldCountEv @7172
    _ZNK33DeviceAppStartAckPacketDescriptor13getFieldValueEN7omnetpp7any_ptrEii @7173
    _ZNK33DeviceAppStartAckPacketDescriptor13setFieldValueEN7omnetpp7any_ptrEiiRKNS0_6cValueE @7174
    _ZNK33DeviceAppStartAckPacketDescriptor16getFieldPropertyEiPKc @7175
    _ZNK33DeviceAppStartAckPacketDescriptor16getPropertyNamesEv @7176
    _ZNK33DeviceAppStartAckPacketDescriptor17getFieldArraySizeEN7omnetpp7any_ptrEi @7177
    _ZNK33DeviceAppStartAckPacketDescriptor17getFieldTypeFlagsEi @7178
    _ZNK33DeviceAppStartAckPacketDescriptor17setFieldArraySizeEN7omnetpp7any_ptrEii @7179
    _ZNK33DeviceAppStartAckPacketDescriptor18getFieldStructNameEi @7180
    _ZNK33DeviceAppStartAckPacketDescriptor18getFieldTypeStringEi @7181
    _ZNK33DeviceAppStartAckPacketDescriptor21getFieldPropertyNamesEi @7182
    _ZNK33DeviceAppStartAckPacketDescriptor21getFieldValueAsStringB5cxx11EN7omnetpp7any_ptrEii @7183
    _ZNK33DeviceAppStartAckPacketDescriptor21setFieldValueAsStringEN7omnetpp7any_ptrEiiPKc @7184
    _ZNK33DeviceAppStartAckPacketDescriptor25getFieldDynamicTypeStringEN7omnetpp7any_ptrEii @7185
    _ZNK33DeviceAppStartAckPacketDescriptor26getFieldStructValuePointerEN7omnetpp7any_ptrEii @7186
    _ZNK33DeviceAppStartAckPacketDescriptor26setFieldStructValuePointerEN7omnetpp7any_ptrEiiS1_ @7187
    _ZNK33DeviceAppStartAckPacketDescriptor9findFieldEPKc @7188
    _ZNK33TerminateVehicleMessageDescriptor11doesSupportEPN7omnetpp7cObjectE @7189
    _ZNK33TerminateVehicleMessageDescriptor11getPropertyEPKc @7190
    _ZNK33TerminateVehicleMessageDescriptor12getFieldNameEi @7191
    _ZNK33TerminateVehicleMessageDescriptor13getFieldCountEv @7192
    _ZNK33TerminateVehicleMessageDescriptor13getFieldValueEN7omnetpp7any_ptrEii @7193
    _ZNK33TerminateVehicleMessageDescriptor13setFieldValueEN7omnetpp7any_ptrEiiRKNS0_6cValueE @7194
    _ZNK33TerminateVehicleMessageDescriptor16getFieldPropertyEiPKc @7195
    _ZNK33TerminateVehicleMessageDescriptor16getPropertyNamesEv @7196
    _ZNK33TerminateVehicleMessageDescriptor17getFieldArraySizeEN7omnetpp7any_ptrEi @7197
    _ZNK33TerminateVehicleMessageDescriptor17getFieldTypeFlagsEi @7198
    _ZNK33TerminateVehicleMessageDescriptor17setFieldArraySizeEN7omnetpp7any_ptrEii @7199
    _ZNK33TerminateVehicleMessageDescriptor18getFieldStructNameEi @7200
    _ZNK33TerminateVehicleMessageDescriptor18getFieldTypeStringEi @7201
    _ZNK33TerminateVehicleMessageDescriptor21getFieldPropertyNamesEi @7202
    _ZNK33TerminateVehicleMessageDescriptor21getFieldValueAsStringB5cxx11EN7omnetpp7any_ptrEii @7203
    _ZNK33TerminateVehicleMessageDescriptor21setFieldValueAsStringEN7omnetpp7any_ptrEiiPKc @7204
    _ZNK33TerminateVehicleMessageDescriptor25getFieldDynamicTypeStringEN7omnetpp7any_ptrEii @7205
    _ZNK33TerminateVehicleMessageDescriptor26getFieldStructValuePointerEN7omnetpp7any_ptrEii @7206
    _ZNK33TerminateVehicleMessageDescriptor26setFieldStructValuePointerEN7omnetpp7any_ptrEiiS1_ @7207
    _ZNK33TerminateVehicleMessageDescriptor9findFieldEPKc @7208
    _ZNK34MecRequestResponsePacketDescriptor11doesSupportEPN7omnetpp7cObjectE @7209
    _ZNK34MecRequestResponsePacketDescriptor11getPropertyEPKc @7210
    _ZNK34MecRequestResponsePacketDescriptor12getFieldNameEi @7211
    _ZNK34MecRequestResponsePacketDescriptor13getFieldCountEv @7212
    _ZNK34MecRequestResponsePacketDescriptor13getFieldValueEN7omnetpp7any_ptrEii @7213
    _ZNK34MecRequestResponsePacketDescriptor13setFieldValueEN7omnetpp7any_ptrEiiRKNS0_6cValueE @7214
    _ZNK34MecRequestResponsePacketDescriptor16getFieldPropertyEiPKc @7215
    _ZNK34MecRequestResponsePacketDescriptor16getPropertyNamesEv @7216
    _ZNK34MecRequestResponsePacketDescriptor17getFieldArraySizeEN7omnetpp7any_ptrEi @7217
    _ZNK34MecRequestResponsePacketDescriptor17getFieldTypeFlagsEi @7218
    _ZNK34MecRequestResponsePacketDescriptor17setFieldArraySizeEN7omnetpp7any_ptrEii @7219
    _ZNK34MecRequestResponsePacketDescriptor18getFieldStructNameEi @7220
    _ZNK34MecRequestResponsePacketDescriptor18getFieldTypeStringEi @7221
    _ZNK34MecRequestResponsePacketDescriptor21getFieldPropertyNamesEi @7222
    _ZNK34MecRequestResponsePacketDescriptor21getFieldValueAsStringB5cxx11EN7omnetpp7any_ptrEii @7223
    _ZNK34MecRequestResponsePacketDescriptor21setFieldValueAsStringEN7omnetpp7any_ptrEiiPKc @7224
    _ZNK34MecRequestResponsePacketDescriptor25getFieldDynamicTypeStringEN7omnetpp7any_ptrEii @7225
    _ZNK34MecRequestResponsePacketDescriptor26getFieldStructValuePointerEN7omnetpp7any_ptrEii @7226
    _ZNK34MecRequestResponsePacketDescriptor26setFieldStructValuePointerEN7omnetpp7any_ptrEiiS1_ @7227
    _ZNK34MecRequestResponsePacketDescriptor9findFieldEPKc @7228
    _ZNK34RequestResponseAppPacketDescriptor11doesSupportEPN7omnetpp7cObjectE @7229
    _ZNK34RequestResponseAppPacketDescriptor11getPropertyEPKc @7230
    _ZNK34RequestResponseAppPacketDescriptor12getFieldNameEi @7231
    _ZNK34RequestResponseAppPacketDescriptor13getFieldCountEv @7232
    _ZNK34RequestResponseAppPacketDescriptor13getFieldValueEN7omnetpp7any_ptrEii @7233
    _ZNK34RequestResponseAppPacketDescriptor13setFieldValueEN7omnetpp7any_ptrEiiRKNS0_6cValueE @7234
    _ZNK34RequestResponseAppPacketDescriptor16getFieldPropertyEiPKc @7235
    _ZNK34RequestResponseAppPacketDescriptor16getPropertyNamesEv @7236
    _ZNK34RequestResponseAppPacketDescriptor17getFieldArraySizeEN7omnetpp7any_ptrEi @7237
    _ZNK34RequestResponseAppPacketDescriptor17getFieldTypeFlagsEi @7238
    _ZNK34RequestResponseAppPacketDescriptor17setFieldArraySizeEN7omnetpp7any_ptrEii @7239
    _ZNK34RequestResponseAppPacketDescriptor18getFieldStructNameEi @7240
    _ZNK34RequestResponseAppPacketDescriptor18getFieldTypeStringEi @7241
    _ZNK34RequestResponseAppPacketDescriptor21getFieldPropertyNamesEi @7242
    _ZNK34RequestResponseAppPacketDescriptor21getFieldValueAsStringB5cxx11EN7omnetpp7any_ptrEii @7243
    _ZNK34RequestResponseAppPacketDescriptor21setFieldValueAsStringEN7omnetpp7any_ptrEiiPKc @7244
    _ZNK34RequestResponseAppPacketDescriptor25getFieldDynamicTypeStringEN7omnetpp7any_ptrEii @7245
    _ZNK34RequestResponseAppPacketDescriptor26getFieldStructValuePointerEN7omnetpp7any_ptrEii @7246
    _ZNK34RequestResponseAppPacketDescriptor26setFieldStructValuePointerEN7omnetpp7any_ptrEiiS1_ @7247
    _ZNK34RequestResponseAppPacketDescriptor9findFieldEPKc @7248
    _ZNK35D2DModeSwitchNotificationDescriptor11doesSupportEPN7omnetpp7cObjectE @7249
    _ZNK35D2DModeSwitchNotificationDescriptor11getPropertyEPKc @7250
    _ZNK35D2DModeSwitchNotificationDescriptor12getFieldNameEi @7251
    _ZNK35D2DModeSwitchNotificationDescriptor13getFieldCountEv @7252
    _ZNK35D2DModeSwitchNotificationDescriptor13getFieldValueEN7omnetpp7any_ptrEii @7253
    _ZNK35D2DModeSwitchNotificationDescriptor13setFieldValueEN7omnetpp7any_ptrEiiRKNS0_6cValueE @7254
    _ZNK35D2DModeSwitchNotificationDescriptor16getFieldPropertyEiPKc @7255
    _ZNK35D2DModeSwitchNotificationDescriptor16getPropertyNamesEv @7256
    _ZNK35D2DModeSwitchNotificationDescriptor17getFieldArraySizeEN7omnetpp7any_ptrEi @7257
    _ZNK35D2DModeSwitchNotificationDescriptor17getFieldTypeFlagsEi @7258
    _ZNK35D2DModeSwitchNotificationDescriptor17setFieldArraySizeEN7omnetpp7any_ptrEii @7259
    _ZNK35D2DModeSwitchNotificationDescriptor18getFieldStructNameEi @7260
    _ZNK35D2DModeSwitchNotificationDescriptor18getFieldTypeStringEi @7261
    _ZNK35D2DModeSwitchNotificationDescriptor21getFieldPropertyNamesEi @7262
    _ZNK35D2DModeSwitchNotificationDescriptor21getFieldValueAsStringB5cxx11EN7omnetpp7any_ptrEii @7263
    _ZNK35D2DModeSwitchNotificationDescriptor21setFieldValueAsStringEN7omnetpp7any_ptrEiiPKc @7264
    _ZNK35D2DModeSwitchNotificationDescriptor25getFieldDynamicTypeStringEN7omnetpp7any_ptrEii @7265
    _ZNK35D2DModeSwitchNotificationDescriptor26getFieldStructValuePointerEN7omnetpp7any_ptrEii @7266
    _ZNK35D2DModeSwitchNotificationDescriptor26setFieldStructValuePointerEN7omnetpp7any_ptrEiiS1_ @7267
    _ZNK35D2DModeSwitchNotificationDescriptor9findFieldEPKc @7268
    _ZNK35VirtualisationInfrastructureManager13numInitStagesEv @7269
    _ZNK35VirtualisationInfrastructureManager21getAvailableResourcesEv @7270
    _ZNK36DeleteContextAppAckMessageDescriptor11doesSupportEPN7omnetpp7cObjectE @7271
    _ZNK36DeleteContextAppAckMessageDescriptor11getPropertyEPKc @7272
    _ZNK36DeleteContextAppAckMessageDescriptor12getFieldNameEi @7273
    _ZNK36DeleteContextAppAckMessageDescriptor13getFieldCountEv @7274
    _ZNK36DeleteContextAppAckMessageDescriptor13getFieldValueEN7omnetpp7any_ptrEii @7275
    _ZNK36DeleteContextAppAckMessageDescriptor13setFieldValueEN7omnetpp7any_ptrEiiRKNS0_6cValueE @7276
    _ZNK36DeleteContextAppAckMessageDescriptor16getFieldPropertyEiPKc @7277
    _ZNK36DeleteContextAppAckMessageDescriptor16getPropertyNamesEv @7278
    _ZNK36DeleteContextAppAckMessageDescriptor17getFieldArraySizeEN7omnetpp7any_ptrEi @7279
    _ZNK36DeleteContextAppAckMessageDescriptor17getFieldTypeFlagsEi @7280
    _ZNK36DeleteContextAppAckMessageDescriptor17setFieldArraySizeEN7omnetpp7any_ptrEii @7281
    _ZNK36DeleteContextAppAckMessageDescriptor18getFieldStructNameEi @7282
    _ZNK36DeleteContextAppAckMessageDescriptor18getFieldTypeStringEi @7283
    _ZNK36DeleteContextAppAckMessageDescriptor21getFieldPropertyNamesEi @7284
    _ZNK36DeleteContextAppAckMessageDescriptor21getFieldValueAsStringB5cxx11EN7omnetpp7any_ptrEii @7285
    _ZNK36DeleteContextAppAckMessageDescriptor21setFieldValueAsStringEN7omnetpp7any_ptrEiiPKc @7286
    _ZNK36DeleteContextAppAckMessageDescriptor25getFieldDynamicTypeStringEN7omnetpp7any_ptrEii @7287
    _ZNK36DeleteContextAppAckMessageDescriptor26getFieldStructValuePointerEN7omnetpp7any_ptrEii @7288
    _ZNK36DeleteContextAppAckMessageDescriptor26setFieldStructValuePointerEN7omnetpp7any_ptrEiiS1_ @7289
    _ZNK36DeleteContextAppAckMessageDescriptor9findFieldEPKc @7290
    _ZNK36StartRealTimeVideoStreamingAppPacket10parsimPackEPN7omnetpp11cCommBufferE @7291
    _ZNK36StartRealTimeVideoStreamingAppPacket12getSessionIdEv @7292
    _ZNK36StartRealTimeVideoStreamingAppPacket3dupEv @7293
    _ZNK36StartRealTimeVideoStreamingAppPacket6getFpsEv @7294
    _ZNK36StartRealTimeVideoStreamingAppPacket8getCodecEv @7295
    _ZNK36TerminateContextAppMessageDescriptor11doesSupportEPN7omnetpp7cObjectE @7296
    _ZNK36TerminateContextAppMessageDescriptor11getPropertyEPKc @7297
    _ZNK36TerminateContextAppMessageDescriptor12getFieldNameEi @7298
    _ZNK36TerminateContextAppMessageDescriptor13getFieldCountEv @7299
    _ZNK36TerminateContextAppMessageDescriptor13getFieldValueEN7omnetpp7any_ptrEii @7300
    _ZNK36TerminateContextAppMessageDescriptor13setFieldValueEN7omnetpp7any_ptrEiiRKNS0_6cValueE @7301
    _ZNK36TerminateContextAppMessageDescriptor16getFieldPropertyEiPKc @7302
    _ZNK36TerminateContextAppMessageDescriptor16getPropertyNamesEv @7303
    _ZNK36TerminateContextAppMessageDescriptor17getFieldArraySizeEN7omnetpp7any_ptrEi @7304
    _ZNK36TerminateContextAppMessageDescriptor17getFieldTypeFlagsEi @7305
    _ZNK36TerminateContextAppMessageDescriptor17setFieldArraySizeEN7omnetpp7any_ptrEii @7306
    _ZNK36TerminateContextAppMessageDescriptor18getFieldStructNameEi @7307
    _ZNK36TerminateContextAppMessageDescriptor18getFieldTypeStringEi @7308
    _ZNK36TerminateContextAppMessageDescriptor21getFieldPropertyNamesEi @7309
    _ZNK36TerminateContextAppMessageDescriptor21getFieldValueAsStringB5cxx11EN7omnetpp7any_ptrEii @7310
    _ZNK36TerminateContextAppMessageDescriptor21setFieldValueAsStringEN7omnetpp7any_ptrEiiPKc @7311
    _ZNK36TerminateContextAppMessageDescriptor25getFieldDynamicTypeStringEN7omnetpp7any_ptrEii @7312
    _ZNK36TerminateContextAppMessageDescriptor26getFieldStructValuePointerEN7omnetpp7any_ptrEii @7313
    _ZNK36TerminateContextAppMessageDescriptor26setFieldStructValuePointerEN7omnetpp7any_ptrEiiS1_ @7314
    _ZNK36TerminateContextAppMessageDescriptor9findFieldEPKc @7315
    _ZNK38AperiodicSubscriptionTimer_mDescriptor11doesSupportEPN7omnetpp7cObjectE @7316
    _ZNK38AperiodicSubscriptionTimer_mDescriptor11getPropertyEPKc @7317
    _ZNK38AperiodicSubscriptionTimer_mDescriptor12getFieldNameEi @7318
    _ZNK38AperiodicSubscriptionTimer_mDescriptor13getFieldCountEv @7319
    _ZNK38AperiodicSubscriptionTimer_mDescriptor13getFieldValueEN7omnetpp7any_ptrEii @7320
    _ZNK38AperiodicSubscriptionTimer_mDescriptor13setFieldValueEN7omnetpp7any_ptrEiiRKNS0_6cValueE @7321
    _ZNK38AperiodicSubscriptionTimer_mDescriptor16getFieldPropertyEiPKc @7322
    _ZNK38AperiodicSubscriptionTimer_mDescriptor16getPropertyNamesEv @7323
    _ZNK38AperiodicSubscriptionTimer_mDescriptor17getFieldArraySizeEN7omnetpp7any_ptrEi @7324
    _ZNK38AperiodicSubscriptionTimer_mDescriptor17getFieldTypeFlagsEi @7325
    _ZNK38AperiodicSubscriptionTimer_mDescriptor17setFieldArraySizeEN7omnetpp7any_ptrEii @7326
    _ZNK38AperiodicSubscriptionTimer_mDescriptor18getFieldStructNameEi @7327
    _ZNK38AperiodicSubscriptionTimer_mDescriptor18getFieldTypeStringEi @7328
    _ZNK38AperiodicSubscriptionTimer_mDescriptor21getFieldPropertyNamesEi @7329
    _ZNK38AperiodicSubscriptionTimer_mDescriptor21getFieldValueAsStringB5cxx11EN7omnetpp7any_ptrEii @7330
    _ZNK38AperiodicSubscriptionTimer_mDescriptor21setFieldValueAsStringEN7omnetpp7any_ptrEiiPKc @7331
    _ZNK38AperiodicSubscriptionTimer_mDescriptor25getFieldDynamicTypeStringEN7omnetpp7any_ptrEii @7332
    _ZNK38AperiodicSubscriptionTimer_mDescriptor26getFieldStructValuePointerEN7omnetpp7any_ptrEii @7333
    _ZNK38AperiodicSubscriptionTimer_mDescriptor26setFieldStructValuePointerEN7omnetpp7any_ptrEiiS1_ @7334
    _ZNK38AperiodicSubscriptionTimer_mDescriptor9findFieldEPKc @7335
    _ZNK38RealTimeVideoStreamingAppSegmentHeader10parsimPackEPN7omnetpp11cCommBufferE @7336
    _ZNK38RealTimeVideoStreamingAppSegmentHeader12getSessionIdEv @7337
    _ZNK38RealTimeVideoStreamingAppSegmentHeader12isFragmentedEv @7338
    _ZNK38RealTimeVideoStreamingAppSegmentHeader13getTotalFragsEv @7339
    _ZNK38RealTimeVideoStreamingAppSegmentHeader14getFrameLengthEv @7340
    _ZNK38RealTimeVideoStreamingAppSegmentHeader14getFrameNumberEv @7341
    _ZNK38RealTimeVideoStreamingAppSegmentHeader14getPictureTypeEv @7342
    _ZNK38RealTimeVideoStreamingAppSegmentHeader14isLastFragmentEv @7343
    _ZNK38RealTimeVideoStreamingAppSegmentHeader15getCurrentFragsEv @7344
    _ZNK38RealTimeVideoStreamingAppSegmentHeader15getHeaderLengthEv @7345
    _ZNK38RealTimeVideoStreamingAppSegmentHeader16getPayloadLengthEv @7346
    _ZNK38RealTimeVideoStreamingAppSegmentHeader17getSequenceNumberEv @7347
    _ZNK38RealTimeVideoStreamingAppSegmentHeader19getPayloadTimestampEv @7348
    _ZNK38RealTimeVideoStreamingAppSegmentHeader3dupEv @7349
    _ZNK41RealTimeVideoStreamingAppPacketDescriptor11doesSupportEPN7omnetpp7cObjectE @7350
    _ZNK41RealTimeVideoStreamingAppPacketDescriptor11getPropertyEPKc @7351
    _ZNK41RealTimeVideoStreamingAppPacketDescriptor12getFieldNameEi @7352
    _ZNK41RealTimeVideoStreamingAppPacketDescriptor13getFieldCountEv @7353
    _ZNK41RealTimeVideoStreamingAppPacketDescriptor13getFieldValueEN7omnetpp7any_ptrEii @7354
    _ZNK41RealTimeVideoStreamingAppPacketDescriptor13setFieldValueEN7omnetpp7any_ptrEiiRKNS0_6cValueE @7355
    _ZNK41RealTimeVideoStreamingAppPacketDescriptor16getFieldPropertyEiPKc @7356
    _ZNK41RealTimeVideoStreamingAppPacketDescriptor16getPropertyNamesEv @7357
    _ZNK41RealTimeVideoStreamingAppPacketDescriptor17getFieldArraySizeEN7omnetpp7any_ptrEi @7358
    _ZNK41RealTimeVideoStreamingAppPacketDescriptor17getFieldTypeFlagsEi @7359
    _ZNK41RealTimeVideoStreamingAppPacketDescriptor17setFieldArraySizeEN7omnetpp7any_ptrEii @7360
    _ZNK41RealTimeVideoStreamingAppPacketDescriptor18getFieldStructNameEi @7361
    _ZNK41RealTimeVideoStreamingAppPacketDescriptor18getFieldTypeStringEi @7362
    _ZNK41RealTimeVideoStreamingAppPacketDescriptor21getFieldPropertyNamesEi @7363
    _ZNK41RealTimeVideoStreamingAppPacketDescriptor21getFieldValueAsStringB5cxx11EN7omnetpp7any_ptrEii @7364
    _ZNK41RealTimeVideoStreamingAppPacketDescriptor21setFieldValueAsStringEN7omnetpp7any_ptrEiiPKc @7365
    _ZNK41RealTimeVideoStreamingAppPacketDescriptor25getFieldDynamicTypeStringEN7omnetpp7any_ptrEii @7366
    _ZNK41RealTimeVideoStreamingAppPacketDescriptor26getFieldStructValuePointerEN7omnetpp7any_ptrEii @7367
    _ZNK41RealTimeVideoStreamingAppPacketDescriptor26setFieldStructValuePointerEN7omnetpp7any_ptrEiiS1_ @7368
    _ZNK41RealTimeVideoStreamingAppPacketDescriptor9findFieldEPKc @7369
    _ZNK42StopSessionRealTimeVideoStreamingAppPacket10parsimPackEPN7omnetpp11cCommBufferE @7370
    _ZNK42StopSessionRealTimeVideoStreamingAppPacket12getSessionIdEv @7371
    _ZNK42StopSessionRealTimeVideoStreamingAppPacket3dupEv @7372
    _ZNK43StartSessionRealTimeVideoStreamingAppPacket10parsimPackEPN7omnetpp11cCommBufferE @7373
    _ZNK43StartSessionRealTimeVideoStreamingAppPacket12getSessionIdEv @7374
    _ZNK43StartSessionRealTimeVideoStreamingAppPacket3dupEv @7375
    _ZNK43StartSessionRealTimeVideoStreamingAppPacket6getFpsEv @7376
    _ZNK43StartSessionRealTimeVideoStreamingAppPacket8getCodecEv @7377
    _ZNK46StartRealTimeVideoStreamingAppPacketDescriptor11doesSupportEPN7omnetpp7cObjectE @7378
    _ZNK46StartRealTimeVideoStreamingAppPacketDescriptor11getPropertyEPKc @7379
    _ZNK46StartRealTimeVideoStreamingAppPacketDescriptor12getFieldNameEi @7380
    _ZNK46StartRealTimeVideoStreamingAppPacketDescriptor13getFieldCountEv @7381
    _ZNK46StartRealTimeVideoStreamingAppPacketDescriptor13getFieldValueEN7omnetpp7any_ptrEii @7382
    _ZNK46StartRealTimeVideoStreamingAppPacketDescriptor13setFieldValueEN7omnetpp7any_ptrEiiRKNS0_6cValueE @7383
    _ZNK46StartRealTimeVideoStreamingAppPacketDescriptor16getFieldPropertyEiPKc @7384
    _ZNK46StartRealTimeVideoStreamingAppPacketDescriptor16getPropertyNamesEv @7385
    _ZNK46StartRealTimeVideoStreamingAppPacketDescriptor17getFieldArraySizeEN7omnetpp7any_ptrEi @7386
    _ZNK46StartRealTimeVideoStreamingAppPacketDescriptor17getFieldTypeFlagsEi @7387
    _ZNK46StartRealTimeVideoStreamingAppPacketDescriptor17setFieldArraySizeEN7omnetpp7any_ptrEii @7388
    _ZNK46StartRealTimeVideoStreamingAppPacketDescriptor18getFieldStructNameEi @7389
    _ZNK46StartRealTimeVideoStreamingAppPacketDescriptor18getFieldTypeStringEi @7390
    _ZNK46StartRealTimeVideoStreamingAppPacketDescriptor21getFieldPropertyNamesEi @7391
    _ZNK46StartRealTimeVideoStreamingAppPacketDescriptor21getFieldValueAsStringB5cxx11EN7omnetpp7any_ptrEii @7392
    _ZNK46StartRealTimeVideoStreamingAppPacketDescriptor21setFieldValueAsStringEN7omnetpp7any_ptrEiiPKc @7393
    _ZNK46StartRealTimeVideoStreamingAppPacketDescriptor25getFieldDynamicTypeStringEN7omnetpp7any_ptrEii @7394
    _ZNK46StartRealTimeVideoStreamingAppPacketDescriptor26getFieldStructValuePointerEN7omnetpp7any_ptrEii @7395
    _ZNK46StartRealTimeVideoStreamingAppPacketDescriptor26setFieldStructValuePointerEN7omnetpp7any_ptrEiiS1_ @7396
    _ZNK46StartRealTimeVideoStreamingAppPacketDescriptor9findFieldEPKc @7397
    _ZNK48RealTimeVideoStreamingAppSegmentHeaderDescriptor11doesSupportEPN7omnetpp7cObjectE @7398
    _ZNK48RealTimeVideoStreamingAppSegmentHeaderDescriptor11getPropertyEPKc @7399
    _ZNK48RealTimeVideoStreamingAppSegmentHeaderDescriptor12getFieldNameEi @7400
    _ZNK48RealTimeVideoStreamingAppSegmentHeaderDescriptor13getFieldCountEv @7401
    _ZNK48RealTimeVideoStreamingAppSegmentHeaderDescriptor13getFieldValueEN7omnetpp7any_ptrEii @7402
    _ZNK48RealTimeVideoStreamingAppSegmentHeaderDescriptor13setFieldValueEN7omnetpp7any_ptrEiiRKNS0_6cValueE @7403
    _ZNK48RealTimeVideoStreamingAppSegmentHeaderDescriptor16getFieldPropertyEiPKc @7404
    _ZNK48RealTimeVideoStreamingAppSegmentHeaderDescriptor16getPropertyNamesEv @7405
    _ZNK48RealTimeVideoStreamingAppSegmentHeaderDescriptor17getFieldArraySizeEN7omnetpp7any_ptrEi @7406
    _ZNK48RealTimeVideoStreamingAppSegmentHeaderDescriptor17getFieldTypeFlagsEi @7407
    _ZNK48RealTimeVideoStreamingAppSegmentHeaderDescriptor17setFieldArraySizeEN7omnetpp7any_ptrEii @7408
    _ZNK48RealTimeVideoStreamingAppSegmentHeaderDescriptor18getFieldStructNameEi @7409
    _ZNK48RealTimeVideoStreamingAppSegmentHeaderDescriptor18getFieldTypeStringEi @7410
    _ZNK48RealTimeVideoStreamingAppSegmentHeaderDescriptor21getFieldPropertyNamesEi @7411
    _ZNK48RealTimeVideoStreamingAppSegmentHeaderDescriptor21getFieldValueAsStringB5cxx11EN7omnetpp7any_ptrEii @7412
    _ZNK48RealTimeVideoStreamingAppSegmentHeaderDescriptor21setFieldValueAsStringEN7omnetpp7any_ptrEiiPKc @7413
    _ZNK48RealTimeVideoStreamingAppSegmentHeaderDescriptor25getFieldDynamicTypeStringEN7omnetpp7any_ptrEii @7414
    _ZNK48RealTimeVideoStreamingAppSegmentHeaderDescriptor26getFieldStructValuePointerEN7omnetpp7any_ptrEii @7415
    _ZNK48RealTimeVideoStreamingAppSegmentHeaderDescriptor26setFieldStructValuePointerEN7omnetpp7any_ptrEiiS1_ @7416
    _ZNK48RealTimeVideoStreamingAppSegmentHeaderDescriptor9findFieldEPKc @7417
    _ZNK4Ecgi6toJsonB5cxx11Ev @7418
    _ZNK4Ecgi7getPlmnEv @7419
    _ZNK4Ecgi9getCellIdEv @7420
    _ZNK4Plmn6getMccB5cxx11Ev @7421
    _ZNK4Plmn6getMncB5cxx11Ev @7422
    _ZNK4Plmn6toJsonB5cxx11Ev @7423
    _ZNK4User6toJsonB5cxx11Ev @7424
    _ZNK4inet10SctpServer13numInitStagesEv @7425
    _ZNK4inet11FieldsChunk12getChunkTypeEv @7426
    _ZNK4inet11FieldsChunk14getChunkLengthEv @7427
    _ZNK4inet12MobilityBase20getConstraintAreaMaxEv @7428
    _ZNK4inet12MobilityBase20getConstraintAreaMinEv @7429
    _ZNK4inet12MobilityBase5getIdEv @7430
    _ZNK4inet14LinearMobility11getMaxSpeedEv @7431
    _ZNK4inet15ApplicationBase17isInitializeStageEi @7432
    _ZNK4inet15ApplicationBase17isModuleStopStageEi @7433
    _ZNK4inet15ApplicationBase18isModuleStartStageEi @7434
    _ZNK4inet16IPrintableObject13printToStringB5cxx11Eii @7435
    _ZNK4inet16IPrintableObject13printToStringB5cxx11Ev @7436
    _ZNK4inet16IPrintableObject27getInfoStringRepresentationB5cxx11Ei @7437
    _ZNK4inet16IPrintableObject28getDebugStringRepresentationB5cxx11Ei @7438
    _ZNK4inet16IPrintableObject28getTraceStringRepresentationB5cxx11Ei @7439
    _ZNK4inet16IPrintableObject29getDetailStringRepresentationB5cxx11Ei @7440
    _ZNK4inet16IPrintableObject31getCompleteStringRepresentationB5cxx11Ei @7441
    _ZNK4inet22SafetyPacketSerializer11deserializeERNS_17MemoryInputStreamE @7442
    _ZNK4inet22SafetyPacketSerializer9serializeERNS_18MemoryOutputStreamERKNS_12IntrusivePtrIKNS_5ChunkEEE @7443
    _ZNK4inet26DeviceAppMessageSerializer11deserializeERNS_17MemoryInputStreamE @7444
    _ZNK4inet26DeviceAppMessageSerializer9serializeERNS_18MemoryOutputStreamERKNS_12IntrusivePtrIKNS_5ChunkEEE @7445
    _ZNK4inet28HttpRequestMessageSerializer11deserializeERNS_17MemoryInputStreamE @7446
    _ZNK4inet28HttpRequestMessageSerializer9serializeERNS_18MemoryOutputStreamERKNS_12IntrusivePtrIKNS_5ChunkEEE @7447
    _ZNK4inet28WarningAlertPacketSerializer11deserializeERNS_17MemoryInputStreamE @7448
    _ZNK4inet28WarningAlertPacketSerializer9serializeERNS_18MemoryOutputStreamERKNS_12IntrusivePtrIKNS_5ChunkEEE @7449
    _ZNK4inet29HttpResponseMessageSerializer11deserializeERNS_17MemoryInputStreamE @7450
    _ZNK4inet29HttpResponseMessageSerializer9serializeERNS_18MemoryOutputStreamERKNS_12IntrusivePtrIKNS_5ChunkEEE @7451
    _ZNK4inet5Chunk10isCompleteEv @7452
    _ZNK4inet5Chunk11canInsertAtERKNS_12IntrusivePtrIKS0_EENS_5units5valueIxNS6_5units1bEEE @7453
    _ZNK4inet5Chunk11canRemoveAtENS_5units5valueIxNS1_5units1bEEES5_ @7454
    _ZNK4inet5Chunk11isImmutableEv @7455
    _ZNK4inet5Chunk11isIncorrectEv @7456
    _ZNK4inet5Chunk12isIncompleteEv @7457
    _ZNK4inet5Chunk13peekConvertedI10DataPacketEEKNS_12IntrusivePtrIT_EERKNS0_8IteratorENS_5units5valueIxNSA_5units1bEEEi @7458
    _ZNK4inet5Chunk13peekConvertedI10GtpUserMsgEEKNS_12IntrusivePtrIT_EERKNS0_8IteratorENS_5units5valueIxNSA_5units1bEEEi @7459
    _ZNK4inet5Chunk13peekConvertedI10LtePdcpPduEEKNS_12IntrusivePtrIT_EERKNS0_8IteratorENS_5units5valueIxNSA_5units1bEEEi @7460
    _ZNK4inet5Chunk13peekConvertedI10LteRohcPduEEKNS_12IntrusivePtrIT_EERKNS0_8IteratorENS_5units5valueIxNSA_5units1bEEEi @7461
    _ZNK4inet5Chunk13peekConvertedI10VoipPacketEEKNS_12IntrusivePtrIT_EERKNS0_8IteratorENS_5units5valueIxNSA_5units1bEEEi @7462
    _ZNK4inet5Chunk13peekConvertedI11AlertPacketEEKNS_12IntrusivePtrIT_EERKNS0_8IteratorENS_5units5valueIxNSA_5units1bEEEi @7463
    _ZNK4inet5Chunk13peekConvertedI11BurstPacketEEKNS_12IntrusivePtrIT_EERKNS0_8IteratorENS_5units5valueIxNSA_5units1bEEEi @7464
    _ZNK4inet5Chunk13peekConvertedI11LteRlcAmPduEEKNS_12IntrusivePtrIT_EERKNS0_8IteratorENS_5units5valueIxNSA_5units1bEEEi @7465
    _ZNK4inet5Chunk13peekConvertedI11LteRlcAmSduEEKNS_12IntrusivePtrIT_EERKNS0_8IteratorENS_5units5valueIxNSA_5units1bEEEi @7466
    _ZNK4inet5Chunk13peekConvertedI12LteX2MessageEEKNS_12IntrusivePtrIT_EERKNS0_8IteratorENS_5units5valueIxNSA_5units1bEEEi @7467
    _ZNK4inet5Chunk13peekConvertedI12SafetyPacketEEKNS_12IntrusivePtrIT_EERKNS0_8IteratorENS_5units5valueIxNSA_5units1bEEEi @7468
    _ZNK4inet5Chunk13peekConvertedI14LteFeedbackPktEEKNS_12IntrusivePtrIT_EERKNS0_8IteratorENS_5units5valueIxNSA_5units1bEEEi @7469
    _ZNK4inet5Chunk13peekConvertedI15DeviceAppPacketEEKNS_12IntrusivePtrIT_EERKNS0_8IteratorENS_5units5valueIxNSA_5units1bEEEi @7470
    _ZNK4inet5Chunk13peekConvertedI15LteHarqFeedbackEEKNS_12IntrusivePtrIT_EERKNS0_8IteratorENS_5units5valueIxNSA_5units1bEEEi @7471
    _ZNK4inet5Chunk13peekConvertedI15LteRlcUmDataPduEEKNS_12IntrusivePtrIT_EERKNS0_8IteratorENS_5units5valueIxNSA_5units1bEEEi @7472
    _ZNK4inet5Chunk13peekConvertedI16LteMacSduRequestEEKNS_12IntrusivePtrIT_EERKNS0_8IteratorENS_5units5valueIxNSA_5units1bEEEi @7473
    _ZNK4inet5Chunk13peekConvertedI16LteRlcPduNewDataEEKNS_12IntrusivePtrIT_EERKNS0_8IteratorENS_5units5valueIxNSA_5units1bEEEi @7474
    _ZNK4inet5Chunk13peekConvertedI16WarningAppPacketEEKNS_12IntrusivePtrIT_EERKNS0_8IteratorENS_5units5valueIxNSA_5units1bEEEi @7475
    _ZNK4inet5Chunk13peekConvertedI17MultihopD2DPacketEEKNS_12IntrusivePtrIT_EERKNS0_8IteratorENS_5units5valueIxNSA_5units1bEEEi @7476
    _ZNK4inet5Chunk13peekConvertedI18LteSchedulingGrantEEKNS_12IntrusivePtrIT_EERKNS0_8IteratorENS_5units5valueIxNSA_5units1bEEEi @7477
    _ZNK4inet5Chunk13peekConvertedI18WarningAlertPacketEEKNS_12IntrusivePtrIT_EERKNS0_8IteratorENS_5units5valueIxNSA_5units1bEEEi @7478
    _ZNK4inet5Chunk13peekConvertedI21LteHarqFeedbackMirrorEEKNS_12IntrusivePtrIT_EERKNS0_8IteratorENS_5units5valueIxNSA_5units1bEEEi @7479
    _ZNK4inet5Chunk13peekConvertedI22DeviceAppStopAckPacketEEKNS_12IntrusivePtrIT_EERKNS0_8IteratorENS_5units5valueIxNSA_5units1bEEEi @7480
    _ZNK4inet5Chunk13peekConvertedI23DeviceAppStartAckPacketEEKNS_12IntrusivePtrIT_EERKNS0_8IteratorENS_5units5valueIxNSA_5units1bEEEi @7481
    _ZNK4inet5Chunk13peekConvertedI24MecRequestResponsePacketEEKNS_12IntrusivePtrIT_EERKNS0_8IteratorENS_5units5valueIxNSA_5units1bEEEi @7482
    _ZNK4inet5Chunk13peekConvertedI24RequestResponseAppPacketEEKNS_12IntrusivePtrIT_EERKNS0_8IteratorENS_5units5valueIxNSA_5units1bEEEi @7483
    _ZNK4inet5Chunk13peekConvertedI25D2DModeSwitchNotificationEEKNS_12IntrusivePtrIT_EERKNS0_8IteratorENS_5units5valueIxNSA_5units1bEEEi @7484
    _ZNK4inet5Chunk13peekConvertedI25X2DualConnectivityDataMsgEEKNS_12IntrusivePtrIT_EERKNS0_8IteratorENS_5units5valueIxNSA_5units1bEEEi @7485
    _ZNK4inet5Chunk13peekConvertedI31RealTimeVideoStreamingAppPacketEEKNS_12IntrusivePtrIT_EERKNS0_8IteratorENS_5units5valueIxNSA_5units1bEEEi @7486
    _ZNK4inet5Chunk13peekConvertedI36StartRealTimeVideoStreamingAppPacketEEKNS_12IntrusivePtrIT_EERKNS0_8IteratorENS_5units5valueIxNSA_5units1bEEEi @7487
    _ZNK4inet5Chunk13peekConvertedI38RealTimeVideoStreamingAppSegmentHeaderEEKNS_12IntrusivePtrIT_EERKNS0_8IteratorENS_5units5valueIxNSA_5units1bEEEi @7488
    _ZNK4inet5Chunk13peekConvertedI42StopSessionRealTimeVideoStreamingAppPacketEEKNS_12IntrusivePtrIT_EERKNS0_8IteratorENS_5units5valueIxNSA_5units1bEEEi @7489
    _ZNK4inet5Chunk13peekConvertedI43StartSessionRealTimeVideoStreamingAppPacketEEKNS_12IntrusivePtrIT_EERKNS0_8IteratorENS_5units5valueIxNSA_5units1bEEEi @7490
    _ZNK4inet5Chunk13peekConvertedI6LteRacEEKNS_12IntrusivePtrIT_EERKNS0_8IteratorENS_5units5valueIxNSA_5units1bEEEi @7491
    _ZNK4inet5Chunk13peekConvertedI9CbrPacketEEKNS_12IntrusivePtrIT_EERKNS0_8IteratorENS_5units5valueIxNSA_5units1bEEEi @7492
    _ZNK4inet5Chunk13peekConvertedI9LteMacPduEEKNS_12IntrusivePtrIT_EERKNS0_8IteratorENS_5units5valueIxNSA_5units1bEEEi @7493
    _ZNK4inet5Chunk13peekConvertedI9LteRlcSduEEKNS_12IntrusivePtrIT_EERKNS0_8IteratorENS_5units5valueIxNSA_5units1bEEEi @7494
    _ZNK4inet5Chunk13peekConvertedI9X2CompMsgEEKNS_12IntrusivePtrIT_EERKNS0_8IteratorENS_5units5valueIxNSA_5units1bEEEi @7495
    _ZNK4inet5Chunk13peekConvertedINS_10BytesChunkEEEKNS_12IntrusivePtrIT_EERKNS0_8IteratorENS_5units5valueIxNSA_5units1bEEEi @7496
    _ZNK4inet5Chunk13peekConvertedINS_10Ipv4HeaderEEEKNS_12IntrusivePtrIT_EERKNS0_8IteratorENS_5units5valueIxNSA_5units1bEEEi @7497
    _ZNK4inet5Chunk13peekConvertedINS_3tcp9TcpHeaderEEEKNS_12IntrusivePtrIT_EERKNS0_8IteratorENS_5units5valueIxNSB_5units1bEEEi @7498
    _ZNK4inet5Chunk13peekConvertedINS_9UdpHeaderEEEKNS_12IntrusivePtrIT_EERKNS0_8IteratorENS_5units5valueIxNSA_5units1bEEEi @7499
    _ZNK4inet5Chunk15canInsertAtBackERKNS_12IntrusivePtrIKS0_EE @7500
    _ZNK4inet5Chunk15canRemoveAtBackENS_5units5valueIxNS1_5units1bEEE @7501
    _ZNK4inet5Chunk15checkPeekResultI10DataPacketEEKNS_12IntrusivePtrIT_EERS6_i @7502
    _ZNK4inet5Chunk15checkPeekResultI10GtpUserMsgEEKNS_12IntrusivePtrIT_EERS6_i @7503
    _ZNK4inet5Chunk15checkPeekResultI10LtePdcpPduEEKNS_12IntrusivePtrIT_EERS6_i @7504
    _ZNK4inet5Chunk15checkPeekResultI10LteRohcPduEEKNS_12IntrusivePtrIT_EERS6_i @7505
    _ZNK4inet5Chunk15checkPeekResultI10VoipPacketEEKNS_12IntrusivePtrIT_EERS6_i @7506
    _ZNK4inet5Chunk15checkPeekResultI11AlertPacketEEKNS_12IntrusivePtrIT_EERS6_i @7507
    _ZNK4inet5Chunk15checkPeekResultI11BurstPacketEEKNS_12IntrusivePtrIT_EERS6_i @7508
    _ZNK4inet5Chunk15checkPeekResultI11LteRlcAmPduEEKNS_12IntrusivePtrIT_EERS6_i @7509
    _ZNK4inet5Chunk15checkPeekResultI11LteRlcAmSduEEKNS_12IntrusivePtrIT_EERS6_i @7510
    _ZNK4inet5Chunk15checkPeekResultI12LteX2MessageEEKNS_12IntrusivePtrIT_EERS6_i @7511
    _ZNK4inet5Chunk15checkPeekResultI12SafetyPacketEEKNS_12IntrusivePtrIT_EERS6_i @7512
    _ZNK4inet5Chunk15checkPeekResultI14LteFeedbackPktEEKNS_12IntrusivePtrIT_EERS6_i @7513
    _ZNK4inet5Chunk15checkPeekResultI15DeviceAppPacketEEKNS_12IntrusivePtrIT_EERS6_i @7514
    _ZNK4inet5Chunk15checkPeekResultI15LteHarqFeedbackEEKNS_12IntrusivePtrIT_EERS6_i @7515
    _ZNK4inet5Chunk15checkPeekResultI15LteRlcUmDataPduEEKNS_12IntrusivePtrIT_EERS6_i @7516
    _ZNK4inet5Chunk15checkPeekResultI16LteMacSduRequestEEKNS_12IntrusivePtrIT_EERS6_i @7517
    _ZNK4inet5Chunk15checkPeekResultI16LteRlcPduNewDataEEKNS_12IntrusivePtrIT_EERS6_i @7518
    _ZNK4inet5Chunk15checkPeekResultI16WarningAppPacketEEKNS_12IntrusivePtrIT_EERS6_i @7519
    _ZNK4inet5Chunk15checkPeekResultI17MultihopD2DPacketEEKNS_12IntrusivePtrIT_EERS6_i @7520
    _ZNK4inet5Chunk15checkPeekResultI18LteSchedulingGrantEEKNS_12IntrusivePtrIT_EERS6_i @7521
    _ZNK4inet5Chunk15checkPeekResultI18WarningAlertPacketEEKNS_12IntrusivePtrIT_EERS6_i @7522
    _ZNK4inet5Chunk15checkPeekResultI21LteHarqFeedbackMirrorEEKNS_12IntrusivePtrIT_EERS6_i @7523
    _ZNK4inet5Chunk15checkPeekResultI22DeviceAppStopAckPacketEEKNS_12IntrusivePtrIT_EERS6_i @7524
    _ZNK4inet5Chunk15checkPeekResultI23DeviceAppStartAckPacketEEKNS_12IntrusivePtrIT_EERS6_i @7525
    _ZNK4inet5Chunk15checkPeekResultI24MecRequestResponsePacketEEKNS_12IntrusivePtrIT_EERS6_i @7526
    _ZNK4inet5Chunk15checkPeekResultI24RequestResponseAppPacketEEKNS_12IntrusivePtrIT_EERS6_i @7527
    _ZNK4inet5Chunk15checkPeekResultI25D2DModeSwitchNotificationEEKNS_12IntrusivePtrIT_EERS6_i @7528
    _ZNK4inet5Chunk15checkPeekResultI25X2DualConnectivityDataMsgEEKNS_12IntrusivePtrIT_EERS6_i @7529
    _ZNK4inet5Chunk15checkPeekResultI31RealTimeVideoStreamingAppPacketEEKNS_12IntrusivePtrIT_EERS6_i @7530
    _ZNK4inet5Chunk15checkPeekResultI36StartRealTimeVideoStreamingAppPacketEEKNS_12IntrusivePtrIT_EERS6_i @7531
    _ZNK4inet5Chunk15checkPeekResultI38RealTimeVideoStreamingAppSegmentHeaderEEKNS_12IntrusivePtrIT_EERS6_i @7532
    _ZNK4inet5Chunk15checkPeekResultI42StopSessionRealTimeVideoStreamingAppPacketEEKNS_12IntrusivePtrIT_EERS6_i @7533
    _ZNK4inet5Chunk15checkPeekResultI43StartSessionRealTimeVideoStreamingAppPacketEEKNS_12IntrusivePtrIT_EERS6_i @7534
    _ZNK4inet5Chunk15checkPeekResultI6LteRacEEKNS_12IntrusivePtrIT_EERS6_i @7535
    _ZNK4inet5Chunk15checkPeekResultI9CbrPacketEEKNS_12IntrusivePtrIT_EERS6_i @7536
    _ZNK4inet5Chunk15checkPeekResultI9LteMacPduEEKNS_12IntrusivePtrIT_EERS6_i @7537
    _ZNK4inet5Chunk15checkPeekResultI9LteRlcSduEEKNS_12IntrusivePtrIT_EERS6_i @7538
    _ZNK4inet5Chunk15checkPeekResultI9X2CompMsgEEKNS_12IntrusivePtrIT_EERS6_i @7539
    _ZNK4inet5Chunk15checkPeekResultINS_10BytesChunkEEEKNS_12IntrusivePtrIT_EERS6_i @7540
    _ZNK4inet5Chunk15checkPeekResultINS_10Ipv4HeaderEEEKNS_12IntrusivePtrIT_EERS6_i @7541
    _ZNK4inet5Chunk15checkPeekResultINS_3tcp9TcpHeaderEEEKNS_12IntrusivePtrIT_EERS7_i @7542
    _ZNK4inet5Chunk15checkPeekResultINS_9UdpHeaderEEEKNS_12IntrusivePtrIT_EERS6_i @7543
    _ZNK4inet5Chunk16canInsertAtFrontERKNS_12IntrusivePtrIKS0_EE @7544
    _ZNK4inet5Chunk16canRemoveAtFrontENS_5units5valueIxNS1_5units1bEEE @7545
    _ZNK4inet5Chunk21isProperlyRepresentedEv @7546
    _ZNK4inet5Chunk23isImproperlyRepresentedEv @7547
    _ZNK4inet5Chunk4peekI10DataPacketEEKNS_12IntrusivePtrIT_EERKNS0_8IteratorENS_5units5valueIxNSA_5units1bEEEi @7548
    _ZNK4inet5Chunk4peekI10GtpUserMsgEEKNS_12IntrusivePtrIT_EERKNS0_8IteratorENS_5units5valueIxNSA_5units1bEEEi @7549
    _ZNK4inet5Chunk4peekI10LtePdcpPduEEKNS_12IntrusivePtrIT_EERKNS0_8IteratorENS_5units5valueIxNSA_5units1bEEEi @7550
    _ZNK4inet5Chunk4peekI10LteRohcPduEEKNS_12IntrusivePtrIT_EERKNS0_8IteratorENS_5units5valueIxNSA_5units1bEEEi @7551
    _ZNK4inet5Chunk4peekI10VoipPacketEEKNS_12IntrusivePtrIT_EERKNS0_8IteratorENS_5units5valueIxNSA_5units1bEEEi @7552
    _ZNK4inet5Chunk4peekI11AlertPacketEEKNS_12IntrusivePtrIT_EERKNS0_8IteratorENS_5units5valueIxNSA_5units1bEEEi @7553
    _ZNK4inet5Chunk4peekI11BurstPacketEEKNS_12IntrusivePtrIT_EERKNS0_8IteratorENS_5units5valueIxNSA_5units1bEEEi @7554
    _ZNK4inet5Chunk4peekI11LteRlcAmPduEEKNS_12IntrusivePtrIT_EERKNS0_8IteratorENS_5units5valueIxNSA_5units1bEEEi @7555
    _ZNK4inet5Chunk4peekI11LteRlcAmSduEEKNS_12IntrusivePtrIT_EERKNS0_8IteratorENS_5units5valueIxNSA_5units1bEEEi @7556
    _ZNK4inet5Chunk4peekI12LteX2MessageEEKNS_12IntrusivePtrIT_EERKNS0_8IteratorENS_5units5valueIxNSA_5units1bEEEi @7557
    _ZNK4inet5Chunk4peekI12SafetyPacketEEKNS_12IntrusivePtrIT_EERKNS0_8IteratorENS_5units5valueIxNSA_5units1bEEEi @7558
    _ZNK4inet5Chunk4peekI14LteFeedbackPktEEKNS_12IntrusivePtrIT_EERKNS0_8IteratorENS_5units5valueIxNSA_5units1bEEEi @7559
    _ZNK4inet5Chunk4peekI15DeviceAppPacketEEKNS_12IntrusivePtrIT_EERKNS0_8IteratorENS_5units5valueIxNSA_5units1bEEEi @7560
    _ZNK4inet5Chunk4peekI15LteHarqFeedbackEEKNS_12IntrusivePtrIT_EERKNS0_8IteratorENS_5units5valueIxNSA_5units1bEEEi @7561
    _ZNK4inet5Chunk4peekI15LteRlcUmDataPduEEKNS_12IntrusivePtrIT_EERKNS0_8IteratorENS_5units5valueIxNSA_5units1bEEEi @7562
    _ZNK4inet5Chunk4peekI16LteMacSduRequestEEKNS_12IntrusivePtrIT_EERKNS0_8IteratorENS_5units5valueIxNSA_5units1bEEEi @7563
    _ZNK4inet5Chunk4peekI16LteRlcPduNewDataEEKNS_12IntrusivePtrIT_EERKNS0_8IteratorENS_5units5valueIxNSA_5units1bEEEi @7564
    _ZNK4inet5Chunk4peekI16WarningAppPacketEEKNS_12IntrusivePtrIT_EERKNS0_8IteratorENS_5units5valueIxNSA_5units1bEEEi @7565
    _ZNK4inet5Chunk4peekI17MultihopD2DPacketEEKNS_12IntrusivePtrIT_EERKNS0_8IteratorENS_5units5valueIxNSA_5units1bEEEi @7566
    _ZNK4inet5Chunk4peekI18LteSchedulingGrantEEKNS_12IntrusivePtrIT_EERKNS0_8IteratorENS_5units5valueIxNSA_5units1bEEEi @7567
    _ZNK4inet5Chunk4peekI18WarningAlertPacketEEKNS_12IntrusivePtrIT_EERKNS0_8IteratorENS_5units5valueIxNSA_5units1bEEEi @7568
    _ZNK4inet5Chunk4peekI21LteHarqFeedbackMirrorEEKNS_12IntrusivePtrIT_EERKNS0_8IteratorENS_5units5valueIxNSA_5units1bEEEi @7569
    _ZNK4inet5Chunk4peekI22DeviceAppStopAckPacketEEKNS_12IntrusivePtrIT_EERKNS0_8IteratorENS_5units5valueIxNSA_5units1bEEEi @7570
    _ZNK4inet5Chunk4peekI23DeviceAppStartAckPacketEEKNS_12IntrusivePtrIT_EERKNS0_8IteratorENS_5units5valueIxNSA_5units1bEEEi @7571
    _ZNK4inet5Chunk4peekI24MecRequestResponsePacketEEKNS_12IntrusivePtrIT_EERKNS0_8IteratorENS_5units5valueIxNSA_5units1bEEEi @7572
    _ZNK4inet5Chunk4peekI24RequestResponseAppPacketEEKNS_12IntrusivePtrIT_EERKNS0_8IteratorENS_5units5valueIxNSA_5units1bEEEi @7573
    _ZNK4inet5Chunk4peekI25D2DModeSwitchNotificationEEKNS_12IntrusivePtrIT_EERKNS0_8IteratorENS_5units5valueIxNSA_5units1bEEEi @7574
    _ZNK4inet5Chunk4peekI25X2DualConnectivityDataMsgEEKNS_12IntrusivePtrIT_EERKNS0_8IteratorENS_5units5valueIxNSA_5units1bEEEi @7575
    _ZNK4inet5Chunk4peekI31RealTimeVideoStreamingAppPacketEEKNS_12IntrusivePtrIT_EERKNS0_8IteratorENS_5units5valueIxNSA_5units1bEEEi @7576
    _ZNK4inet5Chunk4peekI36StartRealTimeVideoStreamingAppPacketEEKNS_12IntrusivePtrIT_EERKNS0_8IteratorENS_5units5valueIxNSA_5units1bEEEi @7577
    _ZNK4inet5Chunk4peekI38RealTimeVideoStreamingAppSegmentHeaderEEKNS_12IntrusivePtrIT_EERKNS0_8IteratorENS_5units5valueIxNSA_5units1bEEEi @7578
    _ZNK4inet5Chunk4peekI42StopSessionRealTimeVideoStreamingAppPacketEEKNS_12IntrusivePtrIT_EERKNS0_8IteratorENS_5units5valueIxNSA_5units1bEEEi @7579
    _ZNK4inet5Chunk4peekI43StartSessionRealTimeVideoStreamingAppPacketEEKNS_12IntrusivePtrIT_EERKNS0_8IteratorENS_5units5valueIxNSA_5units1bEEEi @7580
    _ZNK4inet5Chunk4peekI6LteRacEEKNS_12IntrusivePtrIT_EERKNS0_8IteratorENS_5units5valueIxNSA_5units1bEEEi @7581
    _ZNK4inet5Chunk4peekI9CbrPacketEEKNS_12IntrusivePtrIT_EERKNS0_8IteratorENS_5units5valueIxNSA_5units1bEEEi @7582
    _ZNK4inet5Chunk4peekI9LteMacPduEEKNS_12IntrusivePtrIT_EERKNS0_8IteratorENS_5units5valueIxNSA_5units1bEEEi @7583
    _ZNK4inet5Chunk4peekI9LteRlcSduEEKNS_12IntrusivePtrIT_EERKNS0_8IteratorENS_5units5valueIxNSA_5units1bEEEi @7584
    _ZNK4inet5Chunk4peekI9X2CompMsgEEKNS_12IntrusivePtrIT_EERKNS0_8IteratorENS_5units5valueIxNSA_5units1bEEEi @7585
    _ZNK4inet5Chunk4peekINS_10BytesChunkEEEKNS_12IntrusivePtrIT_EERKNS0_8IteratorENS_5units5valueIxNSA_5units1bEEEi @7586
    _ZNK4inet5Chunk4peekINS_10Ipv4HeaderEEEKNS_12IntrusivePtrIT_EERKNS0_8IteratorENS_5units5valueIxNSA_5units1bEEEi @7587
    _ZNK4inet5Chunk4peekINS_3tcp9TcpHeaderEEEKNS_12IntrusivePtrIT_EERKNS0_8IteratorENS_5units5valueIxNSB_5units1bEEEi @7588
    _ZNK4inet5Chunk4peekINS_9UdpHeaderEEEKNS_12IntrusivePtrIT_EERKNS0_8IteratorENS_5units5valueIxNSA_5units1bEEEi @7589
    _ZNK4inet5Chunk6getTagI15FlowControlInfoEEKNS_12IntrusivePtrIKT_EENS_5units5valueIxNS8_5units1bEEESC_ @7590
    _ZNK4inet5Chunk6getTagINS_15CreationTimeTagEEEKNS_12IntrusivePtrIKT_EENS_5units5valueIxNS8_5units1bEEESC_ @7591
    _ZNK4inet5Chunk7isEmptyEv @7592
    _ZNK4inet5Chunk9dupSharedEv @7593
    _ZNK4inet5Chunk9isCorrectEv @7594
    _ZNK4inet5Chunk9isMutableEv @7595
    _ZNK4inet5Coord3strB5cxx11Ev @7596
    _ZNK4inet6Packet11peekAtFrontI11LteRlcAmPduEEKNS_12IntrusivePtrIKT_EENS_5units5valueIxNS8_5units1bEEEi @7597
    _ZNK4inet6Packet6getTagI15FlowControlInfoEEKNS_12IntrusivePtrIKT_EEv @7598
    _ZNK4inet6Packet6getTagI15UserControlInfoEEKNS_12IntrusivePtrIKT_EEv @7599
    _ZNK4inet6Packet6getTagINS_12L3AddressIndEEEKNS_12IntrusivePtrIKT_EEv @7600
    _ZNK4inet6Packet6getTagINS_9L4PortIndEEEKNS_12IntrusivePtrIKT_EEv @7601
    _ZNK4inet7TagBase12changeRegionENS_5units5valueIxNS1_5units1bEEES5_ @7602
    _ZNK4inet7TagBase9dupSharedEv @7603
    _ZNK52StopSessionRealTimeVideoStreamingAppPacketDescriptor11doesSupportEPN7omnetpp7cObjectE @7604
    _ZNK52StopSessionRealTimeVideoStreamingAppPacketDescriptor11getPropertyEPKc @7605
    _ZNK52StopSessionRealTimeVideoStreamingAppPacketDescriptor12getFieldNameEi @7606
    _ZNK52StopSessionRealTimeVideoStreamingAppPacketDescriptor13getFieldCountEv @7607
    _ZNK52StopSessionRealTimeVideoStreamingAppPacketDescriptor13getFieldValueEN7omnetpp7any_ptrEii @7608
    _ZNK52StopSessionRealTimeVideoStreamingAppPacketDescriptor13setFieldValueEN7omnetpp7any_ptrEiiRKNS0_6cValueE @7609
    _ZNK52StopSessionRealTimeVideoStreamingAppPacketDescriptor16getFieldPropertyEiPKc @7610
    _ZNK52StopSessionRealTimeVideoStreamingAppPacketDescriptor16getPropertyNamesEv @7611
    _ZNK52StopSessionRealTimeVideoStreamingAppPacketDescriptor17getFieldArraySizeEN7omnetpp7any_ptrEi @7612
    _ZNK52StopSessionRealTimeVideoStreamingAppPacketDescriptor17getFieldTypeFlagsEi @7613
    _ZNK52StopSessionRealTimeVideoStreamingAppPacketDescriptor17setFieldArraySizeEN7omnetpp7any_ptrEii @7614
    _ZNK52StopSessionRealTimeVideoStreamingAppPacketDescriptor18getFieldStructNameEi @7615
    _ZNK52StopSessionRealTimeVideoStreamingAppPacketDescriptor18getFieldTypeStringEi @7616
    _ZNK52StopSessionRealTimeVideoStreamingAppPacketDescriptor21getFieldPropertyNamesEi @7617
    _ZNK52StopSessionRealTimeVideoStreamingAppPacketDescriptor21getFieldValueAsStringB5cxx11EN7omnetpp7any_ptrEii @7618
    _ZNK52StopSessionRealTimeVideoStreamingAppPacketDescriptor21setFieldValueAsStringEN7omnetpp7any_ptrEiiPKc @7619
    _ZNK52StopSessionRealTimeVideoStreamingAppPacketDescriptor25getFieldDynamicTypeStringEN7omnetpp7any_ptrEii @7620
    _ZNK52StopSessionRealTimeVideoStreamingAppPacketDescriptor26getFieldStructValuePointerEN7omnetpp7any_ptrEii @7621
    _ZNK52StopSessionRealTimeVideoStreamingAppPacketDescriptor26setFieldStructValuePointerEN7omnetpp7any_ptrEiiS1_ @7622
    _ZNK52StopSessionRealTimeVideoStreamingAppPacketDescriptor9findFieldEPKc @7623
    _ZNK53StartSessionRealTimeVideoStreamingAppPacketDescriptor11doesSupportEPN7omnetpp7cObjectE @7624
    _ZNK53StartSessionRealTimeVideoStreamingAppPacketDescriptor11getPropertyEPKc @7625
    _ZNK53StartSessionRealTimeVideoStreamingAppPacketDescriptor12getFieldNameEi @7626
    _ZNK53StartSessionRealTimeVideoStreamingAppPacketDescriptor13getFieldCountEv @7627
    _ZNK53StartSessionRealTimeVideoStreamingAppPacketDescriptor13getFieldValueEN7omnetpp7any_ptrEii @7628
    _ZNK53StartSessionRealTimeVideoStreamingAppPacketDescriptor13setFieldValueEN7omnetpp7any_ptrEiiRKNS0_6cValueE @7629
    _ZNK53StartSessionRealTimeVideoStreamingAppPacketDescriptor16getFieldPropertyEiPKc @7630
    _ZNK53StartSessionRealTimeVideoStreamingAppPacketDescriptor16getPropertyNamesEv @7631
    _ZNK53StartSessionRealTimeVideoStreamingAppPacketDescriptor17getFieldArraySizeEN7omnetpp7any_ptrEi @7632
    _ZNK53StartSessionRealTimeVideoStreamingAppPacketDescriptor17getFieldTypeFlagsEi @7633
    _ZNK53StartSessionRealTimeVideoStreamingAppPacketDescriptor17setFieldArraySizeEN7omnetpp7any_ptrEii @7634
    _ZNK53StartSessionRealTimeVideoStreamingAppPacketDescriptor18getFieldStructNameEi @7635
    _ZNK53StartSessionRealTimeVideoStreamingAppPacketDescriptor18getFieldTypeStringEi @7636
    _ZNK53StartSessionRealTimeVideoStreamingAppPacketDescriptor21getFieldPropertyNamesEi @7637
    _ZNK53StartSessionRealTimeVideoStreamingAppPacketDescriptor21getFieldValueAsStringB5cxx11EN7omnetpp7any_ptrEii @7638
    _ZNK53StartSessionRealTimeVideoStreamingAppPacketDescriptor21setFieldValueAsStringEN7omnetpp7any_ptrEiiPKc @7639
    _ZNK53StartSessionRealTimeVideoStreamingAppPacketDescriptor25getFieldDynamicTypeStringEN7omnetpp7any_ptrEii @7640
    _ZNK53StartSessionRealTimeVideoStreamingAppPacketDescriptor26getFieldStructValuePointerEN7omnetpp7any_ptrEii @7641
    _ZNK53StartSessionRealTimeVideoStreamingAppPacketDescriptor26setFieldStructValuePointerEN7omnetpp7any_ptrEiiS1_ @7642
    _ZNK53StartSessionRealTimeVideoStreamingAppPacketDescriptor9findFieldEPKc @7643
    _ZNK6Binder13numInitStagesEv @7644
    _ZNK6IP2Nic13numInitStagesEv @7645
    _ZNK6L2Meas10toJsonCellB5cxx11ERSt6vectorItSaItEE @7646
    _ZNK6L2Meas6toJsonB5cxx11ERSt6vectorItSaItEERS0_IN4inet11Ipv4AddressESaIS5_EE @7647
    _ZNK6L2Meas6toJsonB5cxx11Ev @7648
    _ZNK6L2Meas8toJsonUeB5cxx11ERSt6vectorIN4inet11Ipv4AddressESaIS2_EE @7649
    _ZNK6LteRac10getSuccessEv @7650
    _ZNK6LteRac10parsimPackEPN7omnetpp11cCommBufferE @7651
    _ZNK6LteRac3dupEv @7652
    _ZNK6MacBsr10parsimPackEPN7omnetpp11cCommBufferE @7653
    _ZNK6MacBsr7getSizeEv @7654
    _ZNK7ExtCell13numInitStagesEv @7655
    _ZNK7GtpUser13numInitStagesEv @7656
    _ZNK7omnetpp10cComponent10chi_squareEji @7657
    _ZNK7omnetpp10cComponent10intuniformEiii @7658
    _ZNK7omnetpp10cComponent11exponentialENS_7SimTimeEi @7659
    _ZNK7omnetpp10cComponent11exponentialEdi @7660
    _ZNK7omnetpp10cComponent11negbinomialEidi @7661
    _ZNK7omnetpp10cComponent11truncnormalENS_7SimTimeES1_i @7662
    _ZNK7omnetpp10cComponent11truncnormalEddi @7663
    _ZNK7omnetpp10cComponent12getNumParamsEv @7664
    _ZNK7omnetpp10cComponent13numInitStagesEv @7665
    _ZNK7omnetpp10cComponent14getDisplayNameEv @7666
    _ZNK7omnetpp10cComponent14intuniformexclEiii @7667
    _ZNK7omnetpp10cComponent14pareto_shiftedEdddi @7668
    _ZNK7omnetpp10cComponent4betaEddi @7669
    _ZNK7omnetpp10cComponent6cauchyEddi @7670
    _ZNK7omnetpp10cComponent6normalENS_7SimTimeES1_i @7671
    _ZNK7omnetpp10cComponent6normalEddi @7672
    _ZNK7omnetpp10cComponent6triangEdddi @7673
    _ZNK7omnetpp10cComponent7dblrandEi @7674
    _ZNK7omnetpp10cComponent7gamma_dEddi @7675
    _ZNK7omnetpp10cComponent7intrandEji @7676
    _ZNK7omnetpp10cComponent7poissonEdi @7677
    _ZNK7omnetpp10cComponent7uniformENS_7SimTimeES1_i @7678
    _ZNK7omnetpp10cComponent7uniformEddi @7679
    _ZNK7omnetpp10cComponent7weibullEddi @7680
    _ZNK7omnetpp10cComponent8binomialEidi @7681
    _ZNK7omnetpp10cComponent8erlang_kEjdi @7682
    _ZNK7omnetpp10cComponent9bernoulliEdi @7683
    _ZNK7omnetpp10cComponent9geometricEdi @7684
    _ZNK7omnetpp10cComponent9lognormalEddi @7685
    _ZNK7omnetpp10cComponent9student_tEji @7686
    _ZNK7omnetpp10cIListener17getSubscribeCountEv @7687
    _ZNK7omnetpp10cSoftOwner11isSoftOwnerEv @7688
    _ZNK7omnetpp12cNamedObject7getNameEv @7689
    _ZNK7omnetpp12cOwnedObject13isOwnedObjectEv @7690
    _ZNK7omnetpp12cOwnedObject8getOwnerEv @7691
    _ZNK7omnetpp12cPacketQueue3getEi @7692
    _ZNK7omnetpp12cPacketQueue4backEv @7693
    _ZNK7omnetpp12cPacketQueue5frontEv @7694
    _ZNK7omnetpp14cStdMapWatcherIjP10UmRxEntitySt4lessIjEE12getClassNameEv @7695
    _ZNK7omnetpp14cStdMapWatcherIjP10UmRxEntitySt4lessIjEE15getElemTypeNameEv @7696
    _ZNK7omnetpp14cStdMapWatcherIjP10UmRxEntitySt4lessIjEE2atB5cxx11Ei @7697
    _ZNK7omnetpp14cStdMapWatcherIjP10UmRxEntitySt4lessIjEE4atItB5cxx11Ev @7698
    _ZNK7omnetpp14cStdMapWatcherIjP10UmRxEntitySt4lessIjEE4sizeEv @7699
    _ZNK7omnetpp14cStdMapWatcherIjP10UmTxEntitySt4lessIjEE12getClassNameEv @7700
    _ZNK7omnetpp14cStdMapWatcherIjP10UmTxEntitySt4lessIjEE15getElemTypeNameEv @7701
    _ZNK7omnetpp14cStdMapWatcherIjP10UmTxEntitySt4lessIjEE2atB5cxx11Ei @7702
    _ZNK7omnetpp14cStdMapWatcherIjP10UmTxEntitySt4lessIjEE4atItB5cxx11Ev @7703
    _ZNK7omnetpp14cStdMapWatcherIjP10UmTxEntitySt4lessIjEE4sizeEv @7704
    _ZNK7omnetpp14cStdMapWatcherIjP11LteMacQueueSt4lessIjEE12getClassNameEv @7705
    _ZNK7omnetpp14cStdMapWatcherIjP11LteMacQueueSt4lessIjEE15getElemTypeNameEv @7706
    _ZNK7omnetpp14cStdMapWatcherIjP11LteMacQueueSt4lessIjEE2atB5cxx11Ei @7707
    _ZNK7omnetpp14cStdMapWatcherIjP11LteMacQueueSt4lessIjEE4atItB5cxx11Ev @7708
    _ZNK7omnetpp14cStdMapWatcherIjP11LteMacQueueSt4lessIjEE4sizeEv @7709
    _ZNK7omnetpp14cStdMapWatcherIjP12LteMacBufferSt4lessIjEE12getClassNameEv @7710
    _ZNK7omnetpp14cStdMapWatcherIjP12LteMacBufferSt4lessIjEE15getElemTypeNameEv @7711
    _ZNK7omnetpp14cStdMapWatcherIjP12LteMacBufferSt4lessIjEE2atB5cxx11Ei @7712
    _ZNK7omnetpp14cStdMapWatcherIjP12LteMacBufferSt4lessIjEE4atItB5cxx11Ev @7713
    _ZNK7omnetpp14cStdMapWatcherIjP12LteMacBufferSt4lessIjEE4sizeEv @7714
    _ZNK7omnetpp21cGenericReadonlyWatchI11RanNodeTypeE12getClassNameEv @7715
    _ZNK7omnetpp21cGenericReadonlyWatchI11RanNodeTypeE18supportsAssignmentEv @7716
    _ZNK7omnetpp21cGenericReadonlyWatchI11RanNodeTypeE3strB5cxx11Ev @7717
    _ZNK7omnetpp21cGenericReadonlyWatchI12FeedbackTypeE12getClassNameEv @7718
    _ZNK7omnetpp21cGenericReadonlyWatchI12FeedbackTypeE18supportsAssignmentEv @7719
    _ZNK7omnetpp21cGenericReadonlyWatchI12FeedbackTypeE3strB5cxx11Ev @7720
    _ZNK7omnetpp21cGenericReadonlyWatchI16RbAllocationTypeE12getClassNameEv @7721
    _ZNK7omnetpp21cGenericReadonlyWatchI16RbAllocationTypeE18supportsAssignmentEv @7722
    _ZNK7omnetpp21cGenericReadonlyWatchI16RbAllocationTypeE3strB5cxx11Ev @7723
    _ZNK7omnetpp21cGenericReadonlyWatchI6TxModeE12getClassNameEv @7724
    _ZNK7omnetpp21cGenericReadonlyWatchI6TxModeE18supportsAssignmentEv @7725
    _ZNK7omnetpp21cGenericReadonlyWatchI6TxModeE3strB5cxx11Ev @7726
    _ZNK7omnetpp21cGenericReadonlyWatchIN4inet5units5valueIxNS2_8intscaleINS2_5units1bELi1ELi8EEEEEE12getClassNameEv @7727
    _ZNK7omnetpp21cGenericReadonlyWatchIN4inet5units5valueIxNS2_8intscaleINS2_5units1bELi1ELi8EEEEEE18supportsAssignmentEv @7728
    _ZNK7omnetpp21cGenericReadonlyWatchIN4inet5units5valueIxNS2_8intscaleINS2_5units1bELi1ELi8EEEEEE3strB5cxx11Ev @7729
    _ZNK7omnetpp21cGenericReadonlyWatchINS_7SimTimeEE12getClassNameEv @7730
    _ZNK7omnetpp21cGenericReadonlyWatchINS_7SimTimeEE18supportsAssignmentEv @7731
    _ZNK7omnetpp21cGenericReadonlyWatchINS_7SimTimeEE3strB5cxx11Ev @7732
    _ZNK7omnetpp21cStdVectorWatcherBase18supportsAssignmentEv @7733
    _ZNK7omnetpp23cGenericAssignableWatchIdE12getClassNameEv @7734
    _ZNK7omnetpp23cGenericAssignableWatchIdE18supportsAssignmentEv @7735
    _ZNK7omnetpp23cGenericAssignableWatchIdE3strB5cxx11Ev @7736
    _ZNK7omnetpp23cGenericAssignableWatchIiE12getClassNameEv @7737
    _ZNK7omnetpp23cGenericAssignableWatchIiE18supportsAssignmentEv @7738
    _ZNK7omnetpp23cGenericAssignableWatchIiE3strB5cxx11Ev @7739
    _ZNK7omnetpp23cGenericAssignableWatchIjE12getClassNameEv @7740
    _ZNK7omnetpp23cGenericAssignableWatchIjE18supportsAssignmentEv @7741
    _ZNK7omnetpp23cGenericAssignableWatchIjE3strB5cxx11Ev @7742
    _ZNK7omnetpp23cGenericAssignableWatchItE12getClassNameEv @7743
    _ZNK7omnetpp23cGenericAssignableWatchItE18supportsAssignmentEv @7744
    _ZNK7omnetpp23cGenericAssignableWatchItE3strB5cxx11Ev @7745
    _ZNK7omnetpp23cNoncopyableOwnedObject10parsimPackEPNS_11cCommBufferE @7746
    _ZNK7omnetpp7cModule13isPlaceholderEv @7747
    _ZNK7omnetpp7cModule15getParentModuleEv @7748
    _ZNK7omnetpp7cModule16getComponentKindEv @7749
    _ZNK7omnetpp7cModule27getBuiltinAnimationsAllowedEv @7750
    _ZNK7omnetpp7cObject11getFullNameEv @7751
    _ZNK7omnetpp7cObject11isSoftOwnerEv @7752
    _ZNK7omnetpp7cObject13isOwnedObjectEv @7753
    _ZNK7omnetpp7cObject7getNameEv @7754
    _ZNK7omnetpp7cObject8getOwnerEv @7755
    _ZNK7omnetpp7cPacket11hasBitErrorEv @7756
    _ZNK7omnetpp7cPacket12getBitLengthEv @7757
    _ZNK7omnetpp7cPacket8isPacketEv @7758
    _ZNK7omnetpp8cMessage12getSrcProcIdEv @7759
    _ZNK7omnetpp8cMessage6hasParEPKc @7760
    _ZNK7omnetpp8cMessage8isPacketEv @7761
    _ZNK7omnetpp8cMessage9isMessageEv @7762
    _ZNK8AirFrame10getBitrateEv @7763
    _ZNK8AirFrame10parsimPackEPN7omnetpp11cCommBufferE @7764
    _ZNK8AirFrame11getDurationEv @7765
    _ZNK8AirFrame11getLossRateEv @7766
    _ZNK8AirFrame12getBandwidthEv @7767
    _ZNK8AirFrame12getSenderPosEv @7768
    _ZNK8AirFrame16getChannelNumberEv @7769
    _ZNK8AirFrame17getModulationTypeEv @7770
    _ZNK8AirFrame19getCarrierFrequencyEv @7771
    _ZNK8AirFrame3dupEv @7772
    _ZNK8AirFrame6getSnrEv @7773
    _ZNK8AirFrame8getPSendEv @7774
    _ZNK8AirFrame9getPowRecEv @7775
    _ZNK8CellInfo13numInitStagesEv @7776
    _ZNK8UserInfo6toJsonB5cxx11Ev @7777
    _ZNK8nlohmann10basic_jsonINS_11ordered_mapESt6vectorNSt7__cxx1112basic_stringIcSt11char_traitsIcESaIcEEEbxydSaNS_14adl_serializerES2_IhSaIhEEE4dumpEicbNS_6detail15error_handler_tE @7778
    _ZNK8nlohmann10basic_jsonINS_11ordered_mapESt6vectorNSt7__cxx1112basic_stringIcSt11char_traitsIcESaIcEEEbxydSaNS_14adl_serializerES2_IhSaIhEEE8containsIRA10_KcLi0EEEbOT_ @7779
    _ZNK8nlohmann10basic_jsonINS_11ordered_mapESt6vectorNSt7__cxx1112basic_stringIcSt11char_traitsIcESaIcEEEbxydSaNS_14adl_serializerES2_IhSaIhEEE8containsIRA13_KcLi0EEEbOT_ @7780
    _ZNK8nlohmann10basic_jsonINS_11ordered_mapESt6vectorNSt7__cxx1112basic_stringIcSt11char_traitsIcESaIcEEEbxydSaNS_14adl_serializerES2_IhSaIhEEE8containsIRA15_KcLi0EEEbOT_ @7781
    _ZNK8nlohmann10basic_jsonINS_11ordered_mapESt6vectorNSt7__cxx1112basic_stringIcSt11char_traitsIcESaIcEEEbxydSaNS_14adl_serializerES2_IhSaIhEEE8containsIRA17_KcLi0EEEbOT_ @7782
    _ZNK8nlohmann10basic_jsonINS_11ordered_mapESt6vectorNSt7__cxx1112basic_stringIcSt11char_traitsIcESaIcEEEbxydSaNS_14adl_serializerES2_IhSaIhEEE8containsIRA18_KcLi0EEEbOT_ @7783
    _ZNK8nlohmann10basic_jsonINS_11ordered_mapESt6vectorNSt7__cxx1112basic_stringIcSt11char_traitsIcESaIcEEEbxydSaNS_14adl_serializerES2_IhSaIhEEE8containsIRA21_KcLi0EEEbOT_ @7784
    _ZNK8nlohmann10basic_jsonINS_11ordered_mapESt6vectorNSt7__cxx1112basic_stringIcSt11char_traitsIcESaIcEEEbxydSaNS_14adl_serializerES2_IhSaIhEEE8containsIRA24_KcLi0EEEbOT_ @7785
    _ZNK8nlohmann10basic_jsonINS_11ordered_mapESt6vectorNSt7__cxx1112basic_stringIcSt11char_traitsIcESaIcEEEbxydSaNS_14adl_serializerES2_IhSaIhEEE8containsIRA26_KcLi0EEEbOT_ @7786
    _ZNK8nlohmann10basic_jsonINS_11ordered_mapESt6vectorNSt7__cxx1112basic_stringIcSt11char_traitsIcESaIcEEEbxydSaNS_14adl_serializerES2_IhSaIhEEE8containsIRA31_KcLi0EEEbOT_ @7787
    _ZNK8nlohmann10basic_jsonINS_11ordered_mapESt6vectorNSt7__cxx1112basic_stringIcSt11char_traitsIcESaIcEEEbxydSaNS_14adl_serializerES2_IhSaIhEEE8containsIRA7_KcLi0EEEbOT_ @7788
    _ZNK8nlohmann10basic_jsonINS_11ordered_mapESt6vectorNSt7__cxx1112basic_stringIcSt11char_traitsIcESaIcEEEbxydSaNS_14adl_serializerES2_IhSaIhEEE8containsIRA8_KcLi0EEEbOT_ @7789
    _ZNK8nlohmann10basic_jsonINS_11ordered_mapESt6vectorNSt7__cxx1112basic_stringIcSt11char_traitsIcESaIcEEEbxydSaNS_14adl_serializerES2_IhSaIhEEE8containsIRA9_KcLi0EEEbOT_ @7790
    _ZNK8nlohmann10basic_jsonINS_11ordered_mapESt6vectorNSt7__cxx1112basic_stringIcSt11char_traitsIcESaIcEEEbxydSaNS_14adl_serializerES2_IhSaIhEEE9type_nameEv @7791
    _ZNK8nlohmann10basic_jsonINS_11ordered_mapESt6vectorNSt7__cxx1112basic_stringIcSt11char_traitsIcESaIcEEEbxydSaNS_14adl_serializerES2_IhSaIhEEEcvT_IS8_Li0EEEv @7792
    _ZNK8nlohmann10basic_jsonINS_11ordered_mapESt6vectorNSt7__cxx1112basic_stringIcSt11char_traitsIcESaIcEEEbxydSaNS_14adl_serializerES2_IhSaIhEEEixIKcEERKSC_PT_ @7793
    _ZNK8nlohmann10basic_jsonISt3mapSt6vectorNSt7__cxx1112basic_stringIcSt11char_traitsIcESaIcEEEbxydSaNS_14adl_serializerES2_IhSaIhEEE4dumpEicbNS_6detail15error_handler_tE @7794
    _ZNK8nlohmann10basic_jsonISt3mapSt6vectorNSt7__cxx1112basic_stringIcSt11char_traitsIcESaIcEEEbxydSaNS_14adl_serializerES2_IhSaIhEEE8containsIRA5_KcLi0EEEbOT_ @7795
    _ZNK8nlohmann10basic_jsonISt3mapSt6vectorNSt7__cxx1112basic_stringIcSt11char_traitsIcESaIcEEEbxydSaNS_14adl_serializerES2_IhSaIhEEE8containsIRA7_KcLi0EEEbOT_ @7796
    _ZNK8nlohmann10basic_jsonISt3mapSt6vectorNSt7__cxx1112basic_stringIcSt11char_traitsIcESaIcEEEbxydSaNS_14adl_serializerES2_IhSaIhEEE8containsIRA8_KcLi0EEEbOT_ @7797
    _ZNK8nlohmann10basic_jsonISt3mapSt6vectorNSt7__cxx1112basic_stringIcSt11char_traitsIcESaIcEEEbxydSaNS_14adl_serializerES2_IhSaIhEEE9type_nameEv @7798
    _ZNK8nlohmann10basic_jsonISt3mapSt6vectorNSt7__cxx1112basic_stringIcSt11char_traitsIcESaIcEEEbxydSaNS_14adl_serializerES2_IhSaIhEEEcvT_IS8_Li0EEEv @7799
    _ZNK8nlohmann10basic_jsonISt3mapSt6vectorNSt7__cxx1112basic_stringIcSt11char_traitsIcESaIcEEEbxydSaNS_14adl_serializerES2_IhSaIhEEEixIKcEERKSC_PT_ @7800
    _ZNK8nlohmann6detail5lexerINS_10basic_jsonISt3mapSt6vectorNSt7__cxx1112basic_stringIcSt11char_traitsIcESaIcEEEbxydSaNS_14adl_serializerES4_IhSaIhEEEENS0_20input_stream_adapterEE16get_token_stringEv @7801
    _ZNK8nlohmann6detail5lexerINS_10basic_jsonISt3mapSt6vectorNSt7__cxx1112basic_stringIcSt11char_traitsIcESaIcEEEbxydSaNS_14adl_serializerES4_IhSaIhEEEENS0_22iterator_input_adapterIN9__gnu_cxx17__normal_iteratorIPKcSA_EEEEE16get_token_stringEv @7802
    _ZNK8nlohmann6detail5lexerINS_10basic_jsonISt3mapSt6vectorNSt7__cxx1112basic_stringIcSt11char_traitsIcESaIcEEEbxydSaNS_14adl_serializerES4_IhSaIhEEEENS0_22iterator_input_adapterIPKcEEE16get_token_stringEv @7803
    _ZNK8nlohmann6detail9exception4whatEv @7804
    _ZNK8nlohmann6detail9iter_implINS_10basic_jsonISt3mapSt6vectorNSt7__cxx1112basic_stringIcSt11char_traitsIcESaIcEEEbxydSaNS_14adl_serializerES4_IhSaIhEEEEEeqERKSF_ @7805
    _ZNK8nlohmann6detail9iter_implINS_10basic_jsonISt3mapSt6vectorNSt7__cxx1112basic_stringIcSt11char_traitsIcESaIcEEEbxydSaNS_14adl_serializerES4_IhSaIhEEEEEptEv @7806
    _ZNK9AmRxQueue18computeWindowShiftEv @7807
    _ZNK9CbrPacket10getIDframeEv @7808
    _ZNK9CbrPacket10getNframesEv @7809
    _ZNK9CbrPacket10parsimPackEPN7omnetpp11cCommBufferE @7810
    _ZNK9CbrPacket14getArrivalTimeEv @7811
    _ZNK9CbrPacket14getPayloadSizeEv @7812
    _ZNK9CbrPacket19getPayloadTimestampEv @7813
    _ZNK9CbrPacket3dupEv @7814
    _ZNK9CbrSender13numInitStagesEv @7815
    _ZNK9DasFilter19getRemoteAntennaSetEv @7816
    _ZNK9DeviceApp13numInitStagesEv @7817
    _ZNK9GtpUserX213numInitStagesEv @7818
    _ZNK9LteMacPdu15getSduArraySizeEv @7819
    _ZNK9LteMacPdu3dupEv @7820
    _ZNK9LteMacPdu3strB5cxx11Ev @7821
    _ZNK9LteMacPdu5hasCeEv @7822
    _ZNK9LteMacPdu6getSduEy @7823
    _ZNK9LteMacPdu6hasSduEv @7824
    _ZNK9LteRlcPdu10parsimPackEPN7omnetpp11cCommBufferE @7825
    _ZNK9LteRlcPdu14getSnoFragmentEv @7826
    _ZNK9LteRlcPdu16getSnoMainPacketEv @7827
    _ZNK9LteRlcPdu17getTotalFragmentsEv @7828
    _ZNK9LteRlcPdu3dupEv @7829
    _ZNK9LteRlcSdu10parsimPackEPN7omnetpp11cCommBufferE @7830
    _ZNK9LteRlcSdu16getSnoMainPacketEv @7831
    _ZNK9LteRlcSdu19getLengthMainPacketEv @7832
    _ZNK9LteRlcSdu3dupEv @7833
    _ZNK9M1Message10parsimPackEPN7omnetpp11cCommBufferE @7834
    _ZNK9M1Message12getNumPkSentEv @7835
    _ZNK9M1Message13getClientAddrEv @7836
    _ZNK9M1Message13getClientPortEv @7837
    _ZNK9M1Message3dupEv @7838
    _ZNK9MECPacket10parsimPackEPN7omnetpp11cCommBufferE @7839
    _ZNK9MECPacket12getTimestampEv @7840
    _ZNK9MECPacket3dupEv @7841
    _ZNK9MECPacket6getSnoEv @7842
    _ZNK9MECPacket7getTypeEv @7843
    _ZNK9TTimerMsg10getTimerIdEv @7844
    _ZNK9TTimerMsg10parsimPackEPN7omnetpp11cCommBufferE @7845
    _ZNK9TTimerMsg3dupEv @7846
    _ZNK9TTimerMsg7getTypeEv @7847
    _ZNK9TimeStamp10getSecondsEv @7848
    _ZNK9TimeStamp14getNanoSecondsEv @7849
    _ZNK9TimeStamp6toJsonB5cxx11Ev @7850
    _ZNK9TimeStamp7isValidEv @7851
    _ZNK9VoDPacket10parsimPackEPN7omnetpp11cCommBufferE @7852
    _ZNK9VoDPacket14getFrameLengthEv @7853
    _ZNK9VoDPacket14getFrameSeqNumEv @7854
    _ZNK9VoDPacket19getPayloadTimestampEv @7855
    _ZNK9VoDPacket3dupEv @7856
    _ZNK9VoDPacket6getQidEv @7857
    _ZNK9VoDPacket6getTidEv @7858
    _ZNK9X2CompMsg3dupEv @7859
    _ZNKSt5dequeIPN4inet6PacketESaIS2_EE4sizeEv @7860
    _ZNKSt8_Rb_treeINSt7__cxx1112basic_stringIcSt11char_traitsIcESaIcEEESt4pairIKS5_S5_ESt10_Select1stIS8_ESt4lessIS5_ESaIS8_EE4findERS7_ @7861
    _ZNSt11_Deque_baseIP17EventNotificationSaIS1_EE17_M_initialize_mapEy @7862
    _ZNSt11_Deque_baseIPN4inet6PacketESaIS2_EE17_M_initialize_mapEy @7863
    _ZNSt11_Deque_baseISt4pairIN7omnetpp7SimTimeEN4inet5CoordEESaIS5_EE17_M_initialize_mapEy @7864
    _ZNSt11_Deque_baseIiSaIiEE17_M_initialize_mapEy @7865
    _ZNSt11__copy_moveILb0ELb0ESt26random_access_iterator_tagE8__copy_mIP16LteSummaryBufferS4_EET0_T_S6_S5_ @7866
    _ZNSt11__copy_moveILb0ELb0ESt26random_access_iterator_tagE8__copy_mIPK16LteSummaryBufferPS3_EET0_T_S8_S7_ @7867
    _ZNSt12_Destroy_auxILb0EE9__destroyIN9__gnu_cxx17__normal_iteratorIP16LteSummaryBufferSt6vectorIS4_SaIS4_EEEEEEvT_SA_ @7868
    _ZNSt12_Destroy_auxILb0EE9__destroyIN9__gnu_cxx17__normal_iteratorIPSt6vectorI11LteFeedbackSaIS5_EES4_IS7_SaIS7_EEEEEEvT_SC_ @7869
    _ZNSt12_Destroy_auxILb0EE9__destroyIP16LteSummaryBufferEEvT_S4_ @7870
    _ZNSt12_Destroy_auxILb0EE9__destroyIPSt6vectorI11LteFeedbackSaIS3_EEEEvT_S7_ @7871
    _ZNSt12_Vector_baseI16LteSummaryBufferSaIS0_EED2Ev @7872
    _ZNSt12_Vector_baseISt6vectorI11LteFeedbackSaIS1_EESaIS3_EED2Ev @7873
