EXPORTS
    _Z10aToRlcTypeNSt7__cxx1112basic_stringIcSt11char_traitsIcESaIcEEE @1
    _Z10d2dModeToAB5cxx1110LteD2DMode @2
    _Z10dBToLineard @3
    _Z10idToMacCidtt @4
    _Z10linearToDbd @5
    _Z10rlcTypeToAB5cxx1110LteRlcType @6
    _Z11aToNodeTypeNSt7__cxx1112basic_stringIcSt11char_traitsIcESaIcEEE @7
    _Z11dBmToLineard @8
    _Z11getCellInfot @9
    _Z11linearToDBmd @10
    _Z11nodeTypeToAB5cxx1111RanNodeType @11
    _Z12MacCidToLcidj @12
    _Z13isBaseStation12CoreNodeType @13
    _Z14MacCidToNodeIdj @14
    _Z14cStringToLowerPc @15
    _Z14ctrlInfoToUeIdN4inet12IntrusivePtrI14LteControlInfoEE @16
    _Z14periodicityToAB5cxx1113FbPeriodicity @17
    _Z15aToPhyFrameTypeNSt7__cxx1112basic_stringIcSt11char_traitsIcESaIcEEE @18
    _Z15doParsimPackingPN7omnetpp11cCommBufferERK10LteD2DMode @19
    _Z15doParsimPackingPN7omnetpp11cCommBufferERK11HttpMsgType @20
    _Z15doParsimPackingPN7omnetpp11cCommBufferERK16HttpRequestState @21
    _Z15getCqiFromTabled @22
    _Z15getFeedbackTypeNSt7__cxx1112basic_stringIcSt11char_traitsIcESaIcEEE @23
    _Z15getNodeTypeByIdt @24
    _Z15phyFrameTypeToAB5cxx1115LtePhyFrameType @25
    _Z16ctrlInfoToMacCidN4inet12IntrusivePtrI14LteControlInfoEE @26
    _Z17allocationTypeToAB5cxx1116RbAllocationType @27
    _Z17checkIfHeaderTypeI16LteRlcPduNewDataEbPKN4inet6PacketEb @28
    _Z17doParsimUnpackingPN7omnetpp11cCommBufferER10LteD2DMode @29
    _Z17doParsimUnpackingPN7omnetpp11cCommBufferER11HttpMsgType @30
    _Z17doParsimUnpackingPN7omnetpp11cCommBufferER16HttpRequestState @31
    _Z17getMacByMacNodeIdt @32
    _Z17getPhyByMacNodeIdt @33
    _Z17getRlcByMacNodeIdt10LteRlcType @34
    _Z18aToApplicationTypeNSt7__cxx1112basic_stringIcSt11char_traitsIcESaIcEEE @35
    _Z18aToLteTrafficClassNSt7__cxx1112basic_stringIcSt11char_traitsIcESaIcEEE @36
    _Z18aToSchedDisciplineNSt7__cxx1112basic_stringIcSt11char_traitsIcESaIcEEE @37
    _Z18applicationTypeToAB5cxx1115ApplicationType @38
    _Z18fbGeneratorTypeToAB5cxx1121FeedbackGeneratorType @39
    _Z18getPdcpByMacNodeIdt @40
    _Z18getTagsWithInheritI14LteControlInfoESt6vectorIT_SaIS2_EEPN4inet6PacketE @41
    _Z18lteTrafficClassToAB5cxx1115LteTrafficClass @42
    _Z18schedDisciplineToAB5cxx1115SchedDiscipline @43
    _Z19getRbAllocationTypeNSt7__cxx1112basic_stringIcSt11char_traitsIcESaIcEEE @44
    _Z19removeAllSimu5GTagsPN4inet6PacketE @45
    _Z20getParametersFromXMLPN7omnetpp11cXMLElementERSt3mapINSt7__cxx1112basic_stringIcSt11char_traitsIcESaIcEEENS_7cMsgParESt4lessIS8_ESaISt4pairIKS8_S9_EEE @46
    _Z21DeploymentScenarioToAB5cxx1118DeploymentScenario @47
    _Z21aToDeploymentScenarioNSt7__cxx1112basic_stringIcSt11char_traitsIcESaIcEEE @48
    _Z21initializeAllChannelsPN7omnetpp7cModuleE @49
    _Z21isMulticastConnectionP14LteControlInfo @50
    _Z21parseStringToIntArrayNSt7__cxx1112basic_stringIcSt11char_traitsIcESaIcEEEPiii @51
    _Z24getFeedbackGeneratorTypeNSt7__cxx1112basic_stringIcSt11char_traitsIcESaIcEEE @52
    _Z6aToDasNSt7__cxx1112basic_stringIcSt11char_traitsIcESaIcEEE @53
    _Z6dasToAB5cxx116Remote @54
    _Z6dirToAB5cxx119Direction @55
    _Z6isNrUet @56
    _Z6modToAB5cxx116LteMod @57
    _Z8getMacUet @58
    _Z8itbs2tbs6LteMod6TxModehh @59
    _Z8planeToAB5cxx115Plane @60
    _Z9aToTxModeNSt7__cxx1112basic_stringIcSt11char_traitsIcESaIcEEE @61
    _Z9cwMappingRK6TxModeRKtj @62
    _Z9getBinderv @63
    _Z9txModeToAB5cxx116TxMode @64
    _ZN10CellUEInfoC1EP16UeStatsCollectorRK4Ecgi @65
    _ZN10CellUEInfoC1EP16UeStatsCollectorRKN3mec4EcgiE @66
    _ZN10CellUEInfoC1Ev @67
    _ZN10CellUEInfoC2EP16UeStatsCollectorRK4Ecgi @68
    _ZN10CellUEInfoC2EP16UeStatsCollectorRKN3mec4EcgiE @69
    _ZN10CellUEInfoC2Ev @70
    _ZN10CellUEInfoD0Ev @71
    _ZN10CellUEInfoD1Ev @72
    _ZN10CellUEInfoD2Ev @73
    _ZN10DataVolumeC2Ev @74
    _ZN10GtpUserMsg12parsimUnpackEPN7omnetpp11cCommBufferE @75
    _ZN10GtpUserMsg4copyERKS_ @76
    _ZN10GtpUserMsg7setTeidEj @77
    _ZN10GtpUserMsgC1ERKS_ @78
    _ZN10GtpUserMsgC1Ev @79
    _ZN10GtpUserMsgC2ERKS_ @80
    _ZN10GtpUserMsgC2Ev @81
    _ZN10GtpUserMsgD0Ev @82
    _ZN10GtpUserMsgD1Ev @83
    _ZN10GtpUserMsgD2Ev @84
    _ZN10GtpUserMsgaSERKS_ @85
    _ZN10L2MeasBase11computeMeanEv @86
    _ZN10L2MeasBase12getLastValueEv @87
    _ZN10L2MeasBase4initENSt7__cxx1112basic_stringIcSt11char_traitsIcESaIcEEEib @88
    _ZN10L2MeasBase5resetEv @89
    _ZN10L2MeasBase7getMeanEv @90
    _ZN10L2MeasBase8addValueEd @91
    _ZN10L2MeasBaseC1Ev @92
    _ZN10L2MeasBaseC2Ev @93
    _ZN10L2MeasBaseD0Ev @94
    _ZN10L2MeasBaseD1Ev @95
    _ZN10L2MeasBaseD2Ev @96
    _ZN10LteMacBase10initializeEi @97
    _ZN10LteMacBase11getConnDescEv @98
    _ZN10LteMacBase11getNodeTypeEv @99
    _ZN10LteMacBase11isHarqResetEt @100
    _ZN10LteMacBase12deleteModuleEv @101
    _ZN10LteMacBase12deleteQueuesEt @102
    _ZN10LteMacBase12getMacCellIdEv @103
    _ZN10LteMacBase12getMacNodeIdEv @104
    _ZN10LteMacBase12getTtiPeriodEv @105
    _ZN10LteMacBase12insertMacPduEPKN4inet6PacketE @106
    _ZN10LteMacBase12isD2DCapableEv @107
    _ZN10LteMacBase12macHandleRacEPN7omnetpp7cPacketE @108
    _ZN10LteMacBase13discardMacPduEPKN4inet6PacketE @109
    _ZN10LteMacBase13discardRlcPduEN4inet12IntrusivePtrIK15UserControlInfoEEj @110
    _ZN10LteMacBase13getMacBuffersEv @111
    _ZN10LteMacBase13handleMessageEPN7omnetpp8cMessageE @112
    _ZN10LteMacBase14macHandleGrantEPN7omnetpp7cPacketE @113
    _ZN10LteMacBase15bufferizePacketEPN7omnetpp7cPacketE @114
    _ZN10LteMacBase16getHarqErrorRateE9Direction @115
    _ZN10LteMacBase16getHarqRxBuffersEd @116
    _ZN10LteMacBase16getHarqRxBuffersEv @117
    _ZN10LteMacBase16getHarqTxBuffersEd @118
    _ZN10LteMacBase16getHarqTxBuffersEv @119
    _ZN10LteMacBase16sendLowerPacketsEPN7omnetpp7cPacketE @120
    _ZN10LteMacBase16sendUpperPacketsEPN7omnetpp7cPacketE @121
    _ZN10LteMacBase18handleUpperMessageEPN7omnetpp7cPacketE @122
    _ZN10LteMacBase19recordHarqErrorRateEj9Direction @123
    _ZN10LteMacBase20harqAckToFlowManagerEN4inet12IntrusivePtrIK15UserControlInfoEENS1_IK9LteMacPduEE @124
    _ZN10LteMacBase20macHandleFeedbackPktEPN7omnetpp7cPacketE @125
    _ZN10LteMacBase22unregisterHarqBufferRxEt @126
    _ZN10LteMacBase26getNumerologyPeriodCounterEt @127
    _ZN10LteMacBase31decreaseNumerologyPeriodCounterEv @128
    _ZN10LteMacBase6finishEv @129
    _ZN10LteMacBase6getPhyEv @130
    _ZN10LteMacBase7dropObjEPN7omnetpp12cOwnedObjectE @131
    _ZN10LteMacBase7fromPhyEPN7omnetpp7cPacketE @132
    _ZN10LteMacBase7fromRlcEPN7omnetpp7cPacketE @133
    _ZN10LteMacBase7takeObjEPN7omnetpp12cOwnedObjectE @134
    _ZN10LteMacBase8emitItbsEj @135
    _ZN10LteMacBase9getLcgMapEv @136
    _ZN10LteMacBaseC2Ev @137
    _ZN10LteMacBaseD0Ev @138
    _ZN10LteMacBaseD1Ev @139
    _ZN10LteMacBaseD2Ev @140
    _ZN10LtePdcpPdu12parsimUnpackEPN7omnetpp11cCommBufferE @141
    _ZN10LtePdcpPdu4copyERKS_ @142
    _ZN10LtePdcpPduC1ERKS_ @143
    _ZN10LtePdcpPduC1Ev @144
    _ZN10LtePdcpPduC2ERKS_ @145
    _ZN10LtePdcpPduC2Ev @146
    _ZN10LtePdcpPduD0Ev @147
    _ZN10LtePdcpPduD1Ev @148
    _ZN10LtePdcpPduD2Ev @149
    _ZN10LtePdcpPduaSERKS_ @150
    _ZN10LtePhyBase10getTxAngleEv @151
    _ZN10LtePhyBase10initializeEi @152
    _ZN10LtePhyBase11sendUnicastEP11LteAirFrame @153
    _ZN10LtePhyBase12getAmcModuleEt @154
    _ZN10LtePhyBase12getMacNodeIdEv @155
    _ZN10LtePhyBase13handleMessageEPN7omnetpp8cMessageE @156
    _ZN10LtePhyBase13sendBroadcastEP11LteAirFrame @157
    _ZN10LtePhyBase13sendMulticastEP11LteAirFrame @158
    _ZN10LtePhyBase14getTxDirectionEv @159
    _ZN10LtePhyBase15getChannelModelEd @160
    _ZN10LtePhyBase16getChannelModelsEv @161
    _ZN10LtePhyBase16handleControlMsgEP11LteAirFrameP15UserControlInfo @162
    _ZN10LtePhyBase17airFramePriority_E @163 DATA
    _ZN10LtePhyBase18handleUpperMessageEPN7omnetpp8cMessageE @164
    _ZN10LtePhyBase19updateDisplayStringEv @165
    _ZN10LtePhyBase21createHandoverMessageEv @166
    _ZN10LtePhyBase22getPrimaryChannelModelEv @167
    _ZN10LtePhyBase22initializeChannelModelEv @168
    _ZN10LtePhyBase8getCoordEv @169
    _ZN10LtePhyBase8getTxPwrE9Direction @170
    _ZN10LtePhyBaseC2Ev @171
    _ZN10LtePhyBaseD0Ev @172
    _ZN10LtePhyBaseD1Ev @173
    _ZN10LtePhyBaseD2Ev @174
    _ZN10LteRohcPdu12parsimUnpackEPN7omnetpp11cCommBufferE @175
    _ZN10LteRohcPdu19setOrigSizeIpHeaderEN4inet5units5valueIxNS1_8intscaleINS1_5units1bELi1ELi8EEEEE @176
    _ZN10LteRohcPdu26setOrigSizeTransportHeaderEN4inet5units5valueIxNS1_8intscaleINS1_5units1bELi1ELi8EEEEE @177
    _ZN10LteRohcPdu4copyERKS_ @178
    _ZN10LteRohcPduC1ERKS_ @179
    _ZN10LteRohcPduC1Ev @180
    _ZN10LteRohcPduC2ERKS_ @181
    _ZN10LteRohcPduC2Ev @182
    _ZN10LteRohcPduD0Ev @183
    _ZN10LteRohcPduD1Ev @184
    _ZN10LteRohcPduD2Ev @185
    _ZN10LteRohcPduaSERKS_ @186
    _ZN10MecAppBase10initializeEi @187
    _ZN10MecAppBase12addNewSocketEv @188
    _ZN10MecAppBase12removeSocketEPN4inet9TcpSocketE @189
    _ZN10MecAppBase12socketClosedEPN4inet9TcpSocketE @190
    _ZN10MecAppBase13handleMessageEPN7omnetpp8cMessageE @191
    _ZN10MecAppBase13socketDeletedEPN4inet9TcpSocketE @192
    _ZN10MecAppBase13socketFailureEPN4inet9TcpSocketEi @193
    _ZN10MecAppBase15scheduleNextMsgEPN7omnetpp8cMessageE @194
    _ZN10MecAppBase15socketAvailableEPN4inet9TcpSocketEPNS0_16TcpAvailableInfoE @195
    _ZN10MecAppBase16socketPeerClosedEPN4inet9TcpSocketE @196
    _ZN10MecAppBase17socketDataArrivedEPN4inet9TcpSocketEPNS0_6PacketEb @197
    _ZN10MecAppBase17socketEstablishedEPN4inet9TcpSocketE @198
    _ZN10MecAppBase19socketStatusArrivedEPN4inet9TcpSocketEPNS0_13TcpStatusInfoE @199
    _ZN10MecAppBase22handleProcessedMessageEPN7omnetpp8cMessageE @200
    _ZN10MecAppBase6finishEv @201
    _ZN10MecAppBase7connectEPN4inet9TcpSocketERKNS0_9L3AddressEi @202
    _ZN10MecAppBaseC2Ev @203
    _ZN10MecAppBaseD0Ev @204
    _ZN10MecAppBaseD1Ev @205
    _ZN10MecAppBaseD2Ev @206
    _ZN10NRMcsTable10getCqiElemEi @207
    _ZN10NRMcsTable11getMaxIndexE6LteMod @208
    _ZN10NRMcsTable11getMinIndexE6LteMod @209
    _ZN10NRMcsTable2atEt @210
    _ZN10NRMcsTableC1Eb @211
    _ZN10NRMcsTableC2Eb @212
    _ZN10NRMcsTableD2Ev @213
    _ZN10RNIService10initializeEi @214
    _ZN10RNIService16handleGETRequestEPK18HttpRequestMessagePN4inet9TcpSocketE @215
    _ZN10RNIService16handlePUTRequestEPK18HttpRequestMessagePN4inet9TcpSocketE @216
    _ZN10RNIService17handlePOSTRequestEPK18HttpRequestMessagePN4inet9TcpSocketE @217
    _ZN10RNIService19handleDELETERequestEPK18HttpRequestMessagePN4inet9TcpSocketE @218
    _ZN10RNIService6finishEv @219
    _ZN10RNIServiceC1Ev @220
    _ZN10RNIServiceC2Ev @221
    _ZN10RNIServiceD0Ev @222
    _ZN10RNIServiceD1Ev @223
    _ZN10RNIServiceD2Ev @224
    _ZN10SortedDescIjdEC2Ejd @225
    _ZN10SortedDescIjjEC2Ejj @226
    _ZN10ThroughputC2EOS_ @227
    _ZN10ThroughputC2ERKS_ @228
    _ZN10ThroughputC2Ev @229
    _ZN10UmRxEntity10initializeEv @230
    _ZN10UmRxEntity10reassembleEj @231
    _ZN10UmRxEntity11handleBurstENS_10BurstCheckE @232
    _ZN10UmRxEntity12moveRxWindowEi @233
    _ZN10UmRxEntity13handleMessageEPN7omnetpp8cMessageE @234
    _ZN10UmRxEntity16clearBufferedSduEv @235
    _ZN10UmRxEntity18setFlowControlInfoEP15FlowControlInfo @236
    _ZN10UmRxEntity19totalCellRcvdBytes_E @237 DATA
    _ZN10UmRxEntity20isD2DMultiConnectionEv @238
    _ZN10UmRxEntity22rlcHandleD2DModeSwitchEbbb @239
    _ZN10UmRxEntity22totalCellPduRcvdBytes_E @240 DATA
    _ZN10UmRxEntity5enqueEPN7omnetpp7cPacketE @241
    _ZN10UmRxEntity6toPdcpEPN4inet6PacketE @242
    _ZN10UmRxEntity8BufferedC2Ev @243
    _ZN10UmRxEntityC1Ev @244
    _ZN10UmRxEntityC2Ev @245
    _ZN10UmRxEntityD0Ev @246
    _ZN10UmRxEntityD1Ev @247
    _ZN10UmRxEntityD2Ev @248
    _ZN10UmTxEntity10clearQueueEv @249
    _ZN10UmTxEntity10initializeEv @250
    _ZN10UmTxEntity10rlcPduMakeEi @251
    _ZN10UmTxEntity12FragmentInfoC2Ev @252
    _ZN10UmTxEntity16isEmptyingBufferEv @253
    _ZN10UmTxEntity18setFlowControlInfoEP15FlowControlInfo @254
    _ZN10UmTxEntity19enqueHoldingPacketsEPN7omnetpp7cPacketE @255
    _ZN10UmTxEntity19removeDataFromQueueEv @256
    _ZN10UmTxEntity20isD2DMultiConnectionEv @257
    _ZN10UmTxEntity22rlcHandleD2DModeSwitchEbb @258
    _ZN10UmTxEntity25resumeDownstreamInPacketsEv @259
    _ZN10UmTxEntity28isHoldingDownstreamInPacketsEv @260
    _ZN10UmTxEntity31startHoldingDownstreamInPacketsEv @261
    _ZN10UmTxEntity5enqueEPN7omnetpp7cPacketE @262
    _ZN10UmTxEntityC2Ev @263
    _ZN10UmTxEntityD0Ev @264
    _ZN10UmTxEntityD2Ev @265
    _ZN10VoIPSender10initializeEi @266
    _ZN10VoIPSender11initTrafficEv @267
    _ZN10VoIPSender13handleMessageEPN7omnetpp8cMessageE @268
    _ZN10VoIPSender14sendVoIPPacketEv @269
    _ZN10VoIPSender16selectPeriodTimeEv @270
    _ZN10VoIPSender9talkspurtEN7omnetpp7SimTimeE @271
    _ZN10VoIPSenderC1Ev @272
    _ZN10VoIPSenderC2Ev @273
    _ZN10VoIPSenderD0Ev @274
    _ZN10VoIPSenderD1Ev @275
    _ZN10VoIPSenderD2Ev @276
    _ZN10VoipPacket10setIDframeEj @277
    _ZN10VoipPacket10setNframesEj @278
    _ZN10VoipPacket12parsimUnpackEPN7omnetpp11cCommBufferE @279
    _ZN10VoipPacket14setArrivalTimeEN7omnetpp7SimTimeE @280
    _ZN10VoipPacket14setPayloadSizeEj @281
    _ZN10VoipPacket14setPlayoutTimeEN7omnetpp7SimTimeE @282
    _ZN10VoipPacket19setPayloadTimestampEN7omnetpp7SimTimeE @283
    _ZN10VoipPacket4copyERKS_ @284
    _ZN10VoipPacket9setIDtalkEj @285
    _ZN10VoipPacketC1ERKS_ @286
    _ZN10VoipPacketC1Ev @287
    _ZN10VoipPacketC2ERKS_ @288
    _ZN10VoipPacketC2Ev @289
    _ZN10VoipPacketD0Ev @290
    _ZN10VoipPacketD1Ev @291
    _ZN10VoipPacketD2Ev @292
    _ZN10VoipPacketaSERKS_ @293
    _ZN11AlertPacket12parsimUnpackEPN7omnetpp11cCommBufferE @294
    _ZN11AlertPacket19setPayloadTimestampEN7omnetpp7SimTimeE @295
    _ZN11AlertPacket4copyERKS_ @296
    _ZN11AlertPacket6setSnoEj @297
    _ZN11AlertPacketC1ERKS_ @298
    _ZN11AlertPacketC1Ev @299
    _ZN11AlertPacketC2ERKS_ @300
    _ZN11AlertPacketC2Ev @301
    _ZN11AlertPacketD0Ev @302
    _ZN11AlertPacketD1Ev @303
    _ZN11AlertPacketD2Ev @304
    _ZN11AlertPacketaSERKS_ @305
    _ZN11AlertSender10initializeEi @306
    _ZN11AlertSender13handleMessageEPN7omnetpp8cMessageE @307
    _ZN11AlertSender15sendAlertPacketEv @308
    _ZN11AlertSenderC1Ev @309
    _ZN11AlertSenderC2Ev @310
    _ZN11AlertSenderD0Ev @311
    _ZN11AlertSenderD1Ev @312
    _ZN11AlertSenderD2Ev @313
    _ZN11AmcPilotD2D14getUsableBandsEtRPSt6vectorItSaItEE @314
    _ZN11AmcPilotD2D14setUsableBandsEtSt6vectorItSaItEE @315
    _ZN11AmcPilotD2D15computeTxParamsEt9Directiond @316
    _ZN11AmcPilotD2D15getMultiBandCqiEt9Directiond @317
    _ZN11AmcPilotD2D24setPreconfiguredTxParamsEt @318
    _ZN11AmcPilotD2DC2EP6LteAmc @319
    _ZN11AmcPilotD2DD0Ev @320
    _ZN11AmcPilotD2DD2Ev @321
    _ZN11AssociateId14setAssociateIdERKN3mec11AssociateIdE @322
    _ZN11AssociateId7setTypeENSt7__cxx1112basic_stringIcSt11char_traitsIcESaIcEEE @323
    _ZN11AssociateId8setValueENSt7__cxx1112basic_stringIcSt11char_traitsIcESaIcEEE @324
    _ZN11AssociateId9getNodeIdEv @325
    _ZN11AssociateIdC1ERN3mec11AssociateIdE @326
    _ZN11AssociateIdC1ERNSt7__cxx1112basic_stringIcSt11char_traitsIcESaIcEEES6_ @327
    _ZN11AssociateIdC1Ev @328
    _ZN11AssociateIdC2ERN3mec11AssociateIdE @329
    _ZN11AssociateIdC2ERNSt7__cxx1112basic_stringIcSt11char_traitsIcESaIcEEES6_ @330
    _ZN11AssociateIdC2Ev @331
    _ZN11AssociateIdD0Ev @332
    _ZN11AssociateIdD1Ev @333
    _ZN11AssociateIdD2Ev @334
    _ZN11BurstPacket12parsimUnpackEPN7omnetpp11cCommBufferE @335
    _ZN11BurstPacket14setArrivalTimeEN7omnetpp7SimTimeE @336
    _ZN11BurstPacket14setPayloadSizeEj @337
    _ZN11BurstPacket19setPayloadTimestampEN7omnetpp7SimTimeE @338
    _ZN11BurstPacket4copyERKS_ @339
    _ZN11BurstPacket8setMsgIdEj @340
    _ZN11BurstPacketC1ERKS_ @341
    _ZN11BurstPacketC1Ev @342
    _ZN11BurstPacketC2ERKS_ @343
    _ZN11BurstPacketC2Ev @344
    _ZN11BurstPacketD0Ev @345
    _ZN11BurstPacketD1Ev @346
    _ZN11BurstPacketD2Ev @347
    _ZN11BurstPacketaSERKS_ @348
    _ZN11BurstSender10initializeEi @349
    _ZN11BurstSender10sendPacketEv @350
    _ZN11BurstSender11initTrafficEv @351
    _ZN11BurstSender13handleMessageEPN7omnetpp8cMessageE @352
    _ZN11BurstSender9sendBurstEv @353
    _ZN11BurstSenderC1Ev @354
    _ZN11BurstSenderC2Ev @355
    _ZN11BurstSenderD0Ev @356
    _ZN11BurstSenderD1Ev @357
    _ZN11BurstSenderD2Ev @358
    _ZN11CarrierInfoC2Ev @359
    _ZN11CarrierInfoD2Ev @360
    _ZN11CarrierInfoaSERKS_ @361
    _ZN11CategoryRefC1ERKNSt7__cxx1112basic_stringIcSt11char_traitsIcESaIcEEES7_S7_S7_ @362
    _ZN11CategoryRefC2ERKNSt7__cxx1112basic_stringIcSt11char_traitsIcESaIcEEES7_S7_S7_ @363
    _ZN11CategoryRefC2ERKS_ @364
    _ZN11CategoryRefD0Ev @365
    _ZN11CategoryRefD2Ev @366
    _ZN11CategoryRefaSERKS_ @367
    _ZN11CbrReceiver10initializeEi @368
    _ZN11CbrReceiver13handleMessageEPN7omnetpp8cMessageE @369
    _ZN11CbrReceiver16cbrJitterSignal_E @370 DATA
    _ZN11CbrReceiver19cbrFrameLossSignal_E @371 DATA
    _ZN11CbrReceiver20cbrFrameDelaySignal_E @372 DATA
    _ZN11CbrReceiver23cbrReceivedBytesSignal_E @373 DATA
    _ZN11CbrReceiver23cbrReceivedThroughtput_E @374 DATA
    _ZN11CbrReceiver6finishEv @375
    _ZN11CbrReceiverC2Ev @376
    _ZN11CbrReceiverD0Ev @377
    _ZN11CbrReceiverD2Ev @378
    _ZN11LteAirFrame26addRemoteUnitPhyDataVectorE17RemoteUnitPhyData @379
    _ZN11LteAirFrame26getRemoteUnitPhyDataVectorEv @380
    _ZN11LteAirFrameC2EPKci @381
    _ZN11LteAirFrameC2ERKS_ @382
    _ZN11LteAirFrameD0Ev @383
    _ZN11LteAirFrameD2Ev @384
    _ZN11LteAirFrameaSERKS_ @385
    _ZN11LteFeedback10setAntennaE6Remote @386
    _ZN11LteFeedback13setPerBandCqiESt6vectorItSaItEEt @387
    _ZN11LteFeedback14setWideBandCqiESt6vectorItSaItEE @388
    _ZN11LteFeedback14setWideBandPmiEt @389
    _ZN11LteFeedback16setRankIndicatorEt @390
    _ZN11LteFeedback5resetEv @391
    _ZN11LteFeedback9setTxModeE6TxMode @392
    _ZN11LteFeedbackC1Ev @393
    _ZN11LteFeedbackC2EOS_ @394
    _ZN11LteFeedbackC2ERKS_ @395
    _ZN11LteFeedbackC2Ev @396
    _ZN11LteFeedbackD2Ev @397
    _ZN11LteFeedbackaSEOS_ @398
    _ZN11LteFeedbackaSERKS_ @399
    _ZN11LteMacQueue19isEnqueueablePacketEPN4inet6PacketE @400
    _ZN11LteMacQueue7popBackEv @401
    _ZN11LteMacQueue8popFrontEv @402
    _ZN11LteMacQueue8pushBackEPN7omnetpp7cPacketE @403
    _ZN11LteMacQueue9pushFrontEPN7omnetpp7cPacketE @404
    _ZN11LteMacQueueC1ERKS_ @405
    _ZN11LteMacQueueC1Ei @406
    _ZN11LteMacQueueC2ERKS_ @407
    _ZN11LteMacQueueC2Ei @408
    _ZN11LteMacQueueD0Ev @409
    _ZN11LteMacQueueD2Ev @410
    _ZN11LteMacQueueaSERKS_ @411
    _ZN11LteMacUeD2D10doHandoverEt @412
    _ZN11LteMacUeD2D10initializeEi @413
    _ZN11LteMacUeD2D10macPduMakeEj @414
    _ZN11LteMacUeD2D10triggerBsrEj @415
    _ZN11LteMacUeD2D12isD2DCapableEv @416
    _ZN11LteMacUeD2D12macHandleRacEPN7omnetpp7cPacketE @417
    _ZN11LteMacUeD2D13handleMessageEPN7omnetpp8cMessageE @418
    _ZN11LteMacUeD2D14macHandleGrantEPN7omnetpp7cPacketE @419
    _ZN11LteMacUeD2D17handleSelfMessageEv @420
    _ZN11LteMacUeD2D22macHandleD2DModeSwitchEPN7omnetpp7cPacketE @421
    _ZN11LteMacUeD2D24getPreconfiguredTxParamsEv @422
    _ZN11LteMacUeD2D7makeBsrEi @423
    _ZN11LteMacUeD2D8checkRACEv @424
    _ZN11LteMacUeD2DC1Ev @425
    _ZN11LteMacUeD2DC2Ev @426
    _ZN11LteMacUeD2DD0Ev @427
    _ZN11LteMacUeD2DD1Ev @428
    _ZN11LteMacUeD2DD2Ev @429
    _ZN11LtePhyUeD2D10doHandoverEv @430
    _ZN11LtePhyUeD2D10initializeEi @431
    _ZN11LtePhyUeD2D12sendFeedbackESt6vectorIS0_I11LteFeedbackSaIS1_EESaIS3_EES5_15FeedbackRequest @432
    _ZN11LtePhyUeD2D13storeAirFrameEP11LteAirFrame @433
    _ZN11LtePhyUeD2D14decodeAirFrameEP11LteAirFrameP15UserControlInfo @434
    _ZN11LtePhyUeD2D14handleAirFrameEPN7omnetpp8cMessageE @435
    _ZN11LtePhyUeD2D15extractAirFrameEv @436
    _ZN11LtePhyUeD2D15triggerHandoverEv @437
    _ZN11LtePhyUeD2D17handleSelfMessageEPN7omnetpp8cMessageE @438
    _ZN11LtePhyUeD2D18handleUpperMessageEPN7omnetpp8cMessageE @439
    _ZN11LtePhyUeD2D6finishEv @440
    _ZN11LtePhyUeD2D8getTxPwrE9Direction @441
    _ZN11LtePhyUeD2DC1Ev @442
    _ZN11LtePhyUeD2DC2Ev @443
    _ZN11LtePhyUeD2DD0Ev @444
    _ZN11LtePhyUeD2DD1Ev @445
    _ZN11LtePhyUeD2DD2Ev @446
    _ZN11LteProtocol3gtpE @447 DATA
    _ZN11LteProtocol3rlcE @448 DATA
    _ZN11LteProtocol4pdcpE @449 DATA
    _ZN11LteProtocol4x2apE @450 DATA
    _ZN11LteProtocol6ipv4uuE @451 DATA
    _ZN11LteProtocol6ltemacE @452 DATA
    _ZN11LteRlcAmPdu11eraseBitmapEy @453
    _ZN11LteRlcAmPdu12appendBitmapEb @454
    _ZN11LteRlcAmPdu12getBitmapVecEv @455
    _ZN11LteRlcAmPdu12insertBitmapEyb @456
    _ZN11LteRlcAmPdu12setBitmapVecESt6vectorIbSaIbEE @457
    _ZN11LteRlcAmPdu18setBitmapArraySizeEy @458
    _ZN11LteRlcAmPdu9setBitmapEyb @459
    _ZN11LteRlcAmPduC2ERKS_ @460
    _ZN11LteRlcAmPduC2Ev @461
    _ZN11LteRlcAmPduD0Ev @462
    _ZN11LteRlcAmPduD2Ev @463
    _ZN11LteRlcAmPduaSERKS_ @464
    _ZN11LteRlcAmSdu12parsimUnpackEPN7omnetpp11cCommBufferE @465
    _ZN11LteRlcAmSdu4copyERKS_ @466
    _ZN11LteRlcAmSduC1ERKS_ @467
    _ZN11LteRlcAmSduC1Ev @468
    _ZN11LteRlcAmSduC2ERKS_ @469
    _ZN11LteRlcAmSduC2Ev @470
    _ZN11LteRlcAmSduD0Ev @471
    _ZN11LteRlcAmSduD1Ev @472
    _ZN11LteRlcAmSduD2Ev @473
    _ZN11LteRlcAmSduaSERKS_ @474
    _ZN11LteRlcUmD2D11getTxBufferEN4inet12IntrusivePtrI15FlowControlInfoEE @475
    _ZN11LteRlcUmD2D12deleteQueuesEt @476
    _ZN11LteRlcUmD2D18handleLowerMessageEPN7omnetpp7cPacketE @477
    _ZN11LteRlcUmD2D18isEmptyingTxBufferEt @478
    _ZN11LteRlcUmD2D25resumeDownstreamInPacketsEt @479
    _ZN11LteRlcUmD2DC2Ev @480
    _ZN11LteRlcUmD2DD0Ev @481
    _ZN11LteRlcUmD2DD2Ev @482
    _ZN11MEAppPacket10setUeAppIDEi @483
    _ZN11MEAppPacket12parsimUnpackEPN7omnetpp11cCommBufferE @484
    _ZN11MEAppPacket12setTimestampEN7omnetpp7SimTimeE @485
    _ZN11MEAppPacket13setSourcePortEi @486
    _ZN11MEAppPacket14setRequiredCpuEd @487
    _ZN11MEAppPacket14setRequiredRamEd @488
    _ZN11MEAppPacket15setMEModuleNameEPKc @489
    _ZN11MEAppPacket15setMEModuleTypeEPKc @490
    _ZN11MEAppPacket15setRequiredDiskEd @491
    _ZN11MEAppPacket16setSourceAddressEPKc @492
    _ZN11MEAppPacket18setDestinationPortEi @493
    _ZN11MEAppPacket18setRequiredServiceEPKc @494
    _ZN11MEAppPacket21setDestinationAddressEPKc @495
    _ZN11MEAppPacket24setDestinationMecAppPortEi @496
    _ZN11MEAppPacket27setDestinationMecAppAddressEPKc @497
    _ZN11MEAppPacket4copyERKS_ @498
    _ZN11MEAppPacket6setSnoEj @499
    _ZN11MEAppPacket7setTypeEPKc @500
    _ZN11MEAppPacketC1ERKS_ @501
    _ZN11MEAppPacketC1Ev @502
    _ZN11MEAppPacketC2ERKS_ @503
    _ZN11MEAppPacketC2Ev @504
    _ZN11MEAppPacketD0Ev @505
    _ZN11MEAppPacketD1Ev @506
    _ZN11MEAppPacketD2Ev @507
    _ZN11MEAppPacketaSERKS_ @508
    _ZN11MultihopD2D10initializeEi @509
    _ZN11MultihopD2D10sendPacketEv @510
    _ZN11MultihopD2D11handleEventEj @511
    _ZN11MultihopD2D11relayPacketEPN7omnetpp8cMessageE @512
    _ZN11MultihopD2D13handleMessageEPN7omnetpp8cMessageE @513
    _ZN11MultihopD2D13markAsRelayedEj @514
    _ZN11MultihopD2D14markAsReceivedEj @515
    _ZN11MultihopD2D16handleRcvdPacketEPN7omnetpp8cMessageE @516
    _ZN11MultihopD2D16isAlreadyRelayedEj @517
    _ZN11MultihopD2D17isAlreadyReceivedEj @518
    _ZN11MultihopD2D18handleTrickleTimerEPN7omnetpp8cMessageE @519
    _ZN11MultihopD2D18numMultihopD2DAppsE @520 DATA
    _ZN11MultihopD2D21isWithinBroadcastAreaEN4inet5CoordEd @521
    _ZN11MultihopD2D6finishEv @522
    _ZN11MultihopD2DC1Ev @523
    _ZN11MultihopD2DC2Ev @524
    _ZN11MultihopD2DD0Ev @525
    _ZN11MultihopD2DD1Ev @526
    _ZN11MultihopD2DD2Ev @527
    _ZN11NRPdcpRrcUe10initializeEi @528
    _ZN11NRPdcpRrcUe11getNrNodeIdEv @529
    _ZN11NRPdcpRrcUe11getRxEntityEj @530
    _ZN11NRPdcpRrcUe11getTxEntityEj @531
    _ZN11NRPdcpRrcUe12fromDataPortEPN7omnetpp7cPacketE @532
    _ZN11NRPdcpRrcUe12getDirectionEtt @533
    _ZN11NRPdcpRrcUe14deleteEntitiesEt @534
    _ZN11NRPdcpRrcUe16sendToLowerLayerEPN4inet6PacketE @535
    _ZN11NRPdcpRrcUe25isDualConnectivityEnabledEv @536
    _ZN11NRPdcpRrcUe9getDestIdEN4inet12IntrusivePtrI15FlowControlInfoEE @537
    _ZN11NRPdcpRrcUeC2Ev @538
    _ZN11NRPdcpRrcUeD0Ev @539
    _ZN11NRPdcpRrcUeD2Ev @540
    _ZN11PhyPisaData10getChannelEj @541
    _ZN11PhyPisaData10maxChannelEv @542
    _ZN11PhyPisaData11maxChannel2Ev @543
    _ZN11PhyPisaData12setBlerShiftEi @544
    _ZN11PhyPisaData4nMcsEv @545
    _ZN11PhyPisaData6maxSnrEv @546
    _ZN11PhyPisaData6minSnrEv @547
    _ZN11PhyPisaData7getBlerEiii @548
    _ZN11PhyPisaData9getLambdaEii @549
    _ZN11PhyPisaDataC1Ev @550
    _ZN11PhyPisaDataC2Ev @551
    _ZN11PhyPisaDataD0Ev @552
    _ZN11PhyPisaDataD1Ev @553
    _ZN11PhyPisaDataD2Ev @554
    _ZN11RNICellInfoC1EP25BaseStationStatsCollector @555
    _ZN11RNICellInfoC1Ev @556
    _ZN11RNICellInfoC2EP25BaseStationStatsCollector @557
    _ZN11RNICellInfoC2Ev @558
    _ZN11RNICellInfoD0Ev @559
    _ZN11RNICellInfoD1Ev @560
    _ZN11RNICellInfoD2Ev @561
    _ZN11RemoteTableD2Ev @562
    _ZN11RlcFragDesc11addFragmentEv @563
    _ZN11RlcFragDesc18resetFragmentationEv @564
    _ZN11RlcFragDesc18startFragmentationEjj @565
    _ZN11RlcFragDescC2Ev @566
    _ZN11ServiceInfoC1ERKNSt7__cxx1112basic_stringIcSt11char_traitsIcESaIcEEES7_RK11CategoryRefS7_S7_RK13TransportInfoS7_S7_S7_bb @567
    _ZN11ServiceInfoC2ERKNSt7__cxx1112basic_stringIcSt11char_traitsIcESaIcEEES7_RK11CategoryRefS7_S7_RK13TransportInfoS7_S7_S7_bb @568
    _ZN11ServiceInfoC2ERKS_ @569
    _ZN11ServiceInfoD0Ev @570
    _ZN11ServiceInfoD2Ev @571
    _ZN11TMultiTimer10setTimerIdEj @572
    _ZN11TMultiTimer3addEN7omnetpp7SimTimeEj @573
    _ZN11TMultiTimer6handleEj @574
    _ZN11TMultiTimer6removeEj @575
    _ZN11TMultiTimerC2EPN7omnetpp13cSimpleModuleE @576
    _ZN11TMultiTimerD0Ev @577
    _ZN11TMultiTimerD2Ev @578
    _ZN11X2AppClient10initializeEi @579
    _ZN11X2AppClient17socketDataArrivedEPN4inet10SctpSocketEPNS0_6PacketEb @580
    _ZN11X2AppClient17socketEstablishedEPN4inet10SctpSocketEm @581
    _ZN11X2AppClientC2Ev @582
    _ZN11X2AppClientD0Ev @583
    _ZN11X2AppClientD2Ev @584
    _ZN11X2AppServer10initializeEi @585
    _ZN11X2AppServer11handleTimerEPN7omnetpp8cMessageE @586
    _ZN11X2AppServer13handleMessageEPN7omnetpp8cMessageE @587
    _ZN11X2AppServer15generateAndSendEPN4inet6PacketE @588
    _ZN11X2AppServerC2Ev @589
    _ZN11X2AppServerD0Ev @590
    _ZN11X2AppServerD2Ev @591
    _ZN11mecAppEntryC2EOS_ @592
    _ZN11mecAppEntryC2ERKS_ @593
    _ZN11mecAppEntryC2Ev @594
    _ZN12AmcPilotAuto14getUsableBandsEtRPSt6vectorItSaItEE @595
    _ZN12AmcPilotAuto14setUsableBandsEtSt6vectorItSaItEE @596
    _ZN12AmcPilotAuto15computeTxParamsEt9Directiond @597
    _ZN12AmcPilotAuto15getMultiBandCqiEt9Directiond @598
    _ZN12AmcPilotAutoC2EP6LteAmc @599
    _ZN12AmcPilotAutoD0Ev @600
    _ZN12AmcPilotAutoD2Ev @601
    _ZN12CircularListIjE4findERjRb @602
    _ZN12CircularListIjE4moveEv @603
    _ZN12CircularListIjE4sizeEv @604
    _ZN12CircularListIjE5emptyEv @605
    _ZN12CircularListIjE5eraseEv @606
    _ZN12CircularListIjE6insertERKj @607
    _ZN12CircularListIjE7currentEv @608
    _ZN12CircularListIjEC2Ev @609
    _ZN12CircularListIjED2Ev @610
    _ZN12CircularListIjEaSERKS0_ @611
    _ZN12EndPointInfoC1ERKNSt7__cxx1112basic_stringIcSt11char_traitsIcESaIcEEEi @612
    _ZN12EndPointInfoC2ERKNSt7__cxx1112basic_stringIcSt11char_traitsIcESaIcEEEi @613
    _ZN12EndPointInfoC2ERKS_ @614
    _ZN12EndPointInfoD0Ev @615
    _ZN12EndPointInfoD2Ev @616
    _ZN12LcgScheduler16setUeUlSchedulerEP16LteSchedulerUeUl @617
    _ZN12LcgScheduler21getScheduledBytesListEv @618
    _ZN12LcgScheduler8scheduleEj9Direction @619
    _ZN12LcgSchedulerC1EP8LteMacUe @620
    _ZN12LcgSchedulerC2EP8LteMacUe @621
    _ZN12LcgSchedulerC2ERKS_ @622
    _ZN12LcgSchedulerD0Ev @623
    _ZN12LcgSchedulerD1Ev @624
    _ZN12LcgSchedulerD2Ev @625
    _ZN12LcgScheduleraSERKS_ @626
    _ZN12LocationInfoC1ERKN4inet5CoordE @627
    _ZN12LocationInfoC1ERKN4inet5CoordES3_ @628
    _ZN12LocationInfoC1Ev @629
    _ZN12LocationInfoC2ERKN4inet5CoordE @630
    _ZN12LocationInfoC2ERKN4inet5CoordES3_ @631
    _ZN12LocationInfoC2ERKS_ @632
    _ZN12LocationInfoC2Ev @633
    _ZN12LocationInfoD0Ev @634
    _ZN12LocationInfoD1Ev @635
    _ZN12LocationInfoD2Ev @636
    _ZN12LteMacBuffer12setProcessedEj @637
    _ZN12LteMacBuffer5frontEv @638
    _ZN12LteMacBuffer7popBackEv @639
    _ZN12LteMacBuffer8popFrontEv @640
    _ZN12LteMacBuffer8pushBackESt4pairIiN7omnetpp7SimTimeEE @641
    _ZN12LteMacBuffer9pushFrontESt4pairIiN7omnetpp7SimTimeEE @642
    _ZN12LteMacBufferC1ERK11LteMacQueue @643
    _ZN12LteMacBufferC1Ev @644
    _ZN12LteMacBufferC2ERK11LteMacQueue @645
    _ZN12LteMacBufferC2ERKS_ @646
    _ZN12LteMacBufferC2Ev @647
    _ZN12LteMacBufferD1Ev @648
    _ZN12LteMacBufferD2Ev @649
    _ZN12LteMacBufferaSERKS_ @650
    _ZN12LteMacEnbD2D10initializeEi @651
    _ZN12LteMacEnbD2D10sendGrantsEPSt3mapIdS0_ISt4pairIjtEjSt4lessIS2_ESaIS1_IKS2_jEEES3_IdESaIS1_IKdS8_EEE @652
    _ZN12LteMacEnbD2D12deleteQueuesEt @653
    _ZN12LteMacEnbD2D12isD2DCapableEv @654
    _ZN12LteMacEnbD2D12macPduUnmakeEPN7omnetpp7cPacketE @655
    _ZN12LteMacEnbD2D13handleMessageEPN7omnetpp8cMessageE @656
    _ZN12LteMacEnbD2D15clearBsrBuffersEt @657
    _ZN12LteMacEnbD2D16flushHarqBuffersEv @658
    _ZN12LteMacEnbD2D16getConflictGraphEv @659
    _ZN12LteMacEnbD2D17handleSelfMessageEv @660
    _ZN12LteMacEnbD2D17isReuseD2DEnabledEv @661
    _ZN12LteMacEnbD2D20macHandleFeedbackPktEPN7omnetpp7cPacketE @662
    _ZN12LteMacEnbD2D22isReuseD2DMultiEnabledEv @663
    _ZN12LteMacEnbD2D22macHandleD2DModeSwitchEPN7omnetpp7cPacketE @664
    _ZN12LteMacEnbD2D23getHarqBuffersMirrorD2DEd @665
    _ZN12LteMacEnbD2D26deleteHarqBuffersMirrorD2DEt @666
    _ZN12LteMacEnbD2D26deleteHarqBuffersMirrorD2DEtt @667
    _ZN12LteMacEnbD2D26sendModeSwitchNotificationEtt10LteD2DModeS0_ @668
    _ZN12LteMacEnbD2D7fromPhyEPN7omnetpp7cPacketE @669
    _ZN12LteMacEnbD2DC1Ev @670
    _ZN12LteMacEnbD2DC2Ev @671
    _ZN12LteMacEnbD2DD0Ev @672
    _ZN12LteMacEnbD2DD1Ev @673
    _ZN12LteMacEnbD2DD2Ev @674
    _ZN12LteMaxCiComp12getBandLimitEPSt6vectorI9BandLimitSaIS1_EEt @675
    _ZN12LteMaxCiComp14commitScheduleEv @676
    _ZN12LteMaxCiComp15prepareScheduleEv @677
    _ZN12LteMaxCiCompC1Ev @678
    _ZN12LteMaxCiCompD0Ev @679
    _ZN12LteMaxCiCompD1Ev @680
    _ZN12LteMaxCiCompD2Ev @681
    _ZN12LtePdcpRrcUe10initializeEi @682
    _ZN12LtePdcpRrcUe12getDirectionEv @683
    _ZN12LtePdcpRrcUe14deleteEntitiesEt @684
    _ZN12LtePdcpRrcUe9getDestIdEN4inet12IntrusivePtrI15FlowControlInfoEE @685
    _ZN12LtePdcpRrcUeC2Ev @686
    _ZN12LtePdcpRrcUeD0Ev @687
    _ZN12LtePdcpRrcUeD2Ev @688
    _ZN12LtePhyEnbD2D10initializeEi @689
    _ZN12LtePhyEnbD2D14handleAirFrameEPN7omnetpp8cMessageE @690
    _ZN12LtePhyEnbD2D15requestFeedbackEP15UserControlInfoP11LteAirFramePN4inet6PacketE @691
    _ZN12LtePhyEnbD2DC2Ev @692
    _ZN12LtePhyEnbD2DD0Ev @693
    _ZN12LtePhyEnbD2DD1Ev @694
    _ZN12LtePhyEnbD2DD2Ev @695
    _ZN12LteScheduler12requestGrantEjjRbS0_S0_PSt6vectorI9BandLimitSaIS2_EE @696
    _ZN12LteScheduler14commitScheduleEv @697
    _ZN12LteScheduler15prepareScheduleEv @698
    _ZN12LteScheduler15setEnbSchedulerEP15LteSchedulerEnb @699
    _ZN12LteScheduler18setNumerologyIndexEj @700
    _ZN12LteScheduler19getCarrierFrequencyEv @701
    _ZN12LteScheduler19initializeBandLimitEv @702
    _ZN12LteScheduler19scheduleRacRequestsEv @703
    _ZN12LteScheduler19setCarrierFrequencyEd @704
    _ZN12LteScheduler20updateSchedulingInfoEv @705
    _ZN12LteScheduler22notifyActiveConnectionEj @706
    _ZN12LteScheduler22requestGrantBackgroundEjjRbS0_S0_PSt6vectorI9BandLimitSaIS2_EE @707
    _ZN12LteScheduler23scheduleRetransmissionsEv @708
    _ZN12LteScheduler30decreaseSchedulerPeriodCounterEv @709
    _ZN12LteScheduler31buildCarrierActiveConnectionSetEv @710
    _ZN12LteScheduler32initializeSchedulerPeriodCounterEt @711
    _ZN12LteScheduler8scheduleEv @712
    _ZN12LteSchedulerC2Ev @713
    _ZN12LteSchedulerD0Ev @714
    _ZN12LteSchedulerD2Ev @715
    _ZN12LteX2Manager10initializeEi @716
    _ZN12LteX2Manager13handleMessageEPN7omnetpp8cMessageE @717
    _ZN12LteX2Manager6fromX2EPN4inet6PacketE @718
    _ZN12LteX2Manager9fromStackEPN4inet6PacketE @719
    _ZN12LteX2ManagerC2Ev @720
    _ZN12LteX2ManagerD0Ev @721
    _ZN12LteX2ManagerD2Ev @722
    _ZN12LteX2Message5popIeEv @723
    _ZN12LteX2Message6pushIeEP20X2InformationElement @724
    _ZN12LteX2MessageC2ERKS_ @725
    _ZN12LteX2MessageC2Ev @726
    _ZN12LteX2MessageD0Ev @727
    _ZN12LteX2MessageD2Ev @728
    _ZN12LteX2MessageaSERKS_ @729
    _ZN12NRPdcpRrcEnb10activeUeULEPSt3setItSt4lessItESaItEE @730
    _ZN12NRPdcpRrcEnb10initializeEi @731
    _ZN12NRPdcpRrcEnb11getRxEntityEj @732
    _ZN12NRPdcpRrcEnb11getTxEntityEj @733
    _ZN12NRPdcpRrcEnb12fromDataPortEPN7omnetpp7cPacketE @734
    _ZN12NRPdcpRrcEnb14fromLowerLayerEPN7omnetpp7cPacketE @735
    _ZN12NRPdcpRrcEnb23forwardDataToTargetNodeEPN4inet6PacketEt @736
    _ZN12NRPdcpRrcEnb25isDualConnectivityEnabledEv @737
    _ZN12NRPdcpRrcEnb25receiveDataFromSourceNodeEPN4inet6PacketEt @738
    _ZN12NRPdcpRrcEnb9getDestIdEN4inet12IntrusivePtrI15FlowControlInfoEE @739
    _ZN12NRPdcpRrcEnbC2Ev @740
    _ZN12NRPdcpRrcEnbD0Ev @741
    _ZN12NRPdcpRrcEnbD2Ev @742
    _ZN12RanNodeTableD2Ev @743
    _ZN12UERequestApp10initializeEi @744
    _ZN12UERequestApp11sendRequestEv @745
    _ZN12UERequestApp11sendStopAppEv @746
    _ZN12UERequestApp12recvResponseEPN7omnetpp8cMessageE @747
    _ZN12UERequestApp13handleMessageEPN7omnetpp8cMessageE @748
    _ZN12UERequestApp13handleStopAppEPN7omnetpp8cMessageE @749
    _ZN12UERequestApp21sendStopMECRequestAppEv @750
    _ZN12UERequestApp22sendStartMECRequestAppEv @751
    _ZN12UERequestApp26handleAckStopMECRequestAppEPN7omnetpp8cMessageE @752
    _ZN12UERequestApp27handleAckStartMECRequestAppEPN7omnetpp8cMessageE @753
    _ZN12UERequestApp6finishEv @754
    _ZN12UERequestAppC1Ev @755
    _ZN12UERequestAppC2Ev @756
    _ZN12UERequestAppD0Ev @757
    _ZN12UERequestAppD1Ev @758
    _ZN12UERequestAppD2Ev @759
    _ZN12UserTxParams10writeBandsERKSt3setItSt4lessItESaItEE @760
    _ZN12UserTxParams11writeTxModeERK6TxMode @761
    _ZN12UserTxParams13writeAntennasERKSt3setI6RemoteSt4lessIS1_ESaIS1_EE @762
    _ZN12UserTxParams20restoreDefaultValuesEv @763
    _ZN12UserTxParams5isSetEv @764
    _ZN12UserTxParams8writeCqiERKSt6vectorItSaItEE @765
    _ZN12UserTxParams8writePmiERKt @766
    _ZN12UserTxParams9writeRankERKt @767
    _ZN12UserTxParamsC2ERKS_ @768
    _ZN12UserTxParamsC2Ev @769
    _ZN12UserTxParamsD0Ev @770
    _ZN12UserTxParamsD2Ev @771
    _ZN12UserTxParamsaSERKS_ @772
    _ZN12VoDUDPClient10initializeEi @773
    _ZN12VoDUDPClient13handleMessageEPN7omnetpp8cMessageE @774
    _ZN12VoDUDPClient13receiveStreamEP9VoDPacket @775
    _ZN12VoDUDPClient6finishEv @776
    _ZN12VoDUDPClientC2Ev @777
    _ZN12VoDUDPClientD0Ev @778
    _ZN12VoDUDPClientD2Ev @779
    _ZN12VoDUDPServer10initializeEi @780
    _ZN12VoDUDPServer13handleMessageEPN7omnetpp8cMessageE @781
    _ZN12VoDUDPServer16handleSVCMessageEPN7omnetpp8cMessageE @782
    _ZN12VoDUDPServer6finishEv @783
    _ZN12VoDUDPServer9svcPacketC2EOS0_ @784
    _ZN12VoDUDPServer9svcPacketC2ERKS0_ @785
    _ZN12VoDUDPServer9svcPacketC2Ev @786
    _ZN12VoDUDPServer9svcPacketD2Ev @787
    _ZN12VoDUDPServerC1Ev @788
    _ZN12VoDUDPServerC2Ev @789
    _ZN12VoDUDPServerD0Ev @790
    _ZN12VoDUDPServerD1Ev @791
    _ZN12VoDUDPServerD2Ev @792
    _ZN12VoIPReceiver10initializeEi @793
    _ZN12VoIPReceiver13handleMessageEPN7omnetpp8cMessageE @794
    _ZN12VoIPReceiver6eModelEN7omnetpp7SimTimeEd @795
    _ZN12VoIPReceiver6finishEv @796
    _ZN12VoIPReceiver7playoutEb @797
    _ZN12VoIPReceiverC2Ev @798
    _ZN12VoIPReceiverD0Ev @799
    _ZN12VoIPReceiverD1Ev @800
    _ZN12VoIPReceiverD2Ev @801
    _ZN13AlertReceiver10initializeEi @802
    _ZN13AlertReceiver13handleMessageEPN7omnetpp8cMessageE @803
    _ZN13AlertReceiverC2Ev @804
    _ZN13AlertReceiverD0Ev @805
    _ZN13AlertReceiverD2Ev @806
    _ZN13AttributeBase6toJsonB5cxx11ERKx @807
    _ZN13AttributeBase6toJsonB5cxx11ERS_ @808
    _ZN13AttributeBase6toJsonERKNSt7__cxx1112basic_stringIcSt11char_traitsIcESaIcEEE @809
    _ZN13AttributeBase6toJsonEb @810
    _ZN13AttributeBase6toJsonEd @811
    _ZN13AttributeBase6toJsonEi @812
    _ZN13AttributeBase6toJsonEx @813
    _ZN13AttributeBaseC2ERKS_ @814
    _ZN13AttributeBaseC2Ev @815
    _ZN13AttributeBaseD0Ev @816
    _ZN13AttributeBaseD1Ev @817
    _ZN13AttributeBaseD2Ev @818
    _ZN13AttributeBaseaSERKS_ @819
    _ZN13BurstReceiver10initializeEi @820
    _ZN13BurstReceiver13handleMessageEPN7omnetpp8cMessageE @821
    _ZN13BurstReceiverC2Ev @822
    _ZN13BurstReceiverD0Ev @823
    _ZN13BurstReceiverD2Ev @824
    _ZN13ChannelAccess10initializeEi @825
    _ZN13ChannelAccess13receiveSignalEPN7omnetpp10cComponentEiPNS0_7cObjectES4_ @826
    _ZN13ChannelAccess13sendToChannelEP8AirFrame @827
    _ZN13ChannelAccess17getChannelControlEv @828
    _ZN13ChannelAccess20getChannelControlParEPKc @829
    _ZN13ChannelAccessC2Ev @830
    _ZN13ChannelAccessD0Ev @831
    _ZN13ChannelAccessD1Ev @832
    _ZN13ChannelAccessD2Ev @833
    _ZN13ConflictGraph16getConflictGraphEv @834
    _ZN13ConflictGraph18clearConflictGraphEv @835
    _ZN13ConflictGraph18printConflictGraphEv @836
    _ZN13ConflictGraph20computeConflictGraphEv @837
    _ZN13ConflictGraphC2EP12LteMacEnbD2Dbb @838
    _ZN13ConflictGraphD0Ev @839
    _ZN13ConflictGraphD1Ev @840
    _ZN13ConflictGraphD2Ev @841
    _ZN13DiscardedPktsC2Ev @842
    _ZN13LocationUtils14getCoordinatesEt @843
    _ZN13LocationUtils8getSpeedEt @844
    _ZN13LteHarqUnitTx10extractPduEv @845
    _ZN13LteHarqUnitTx11getCodewordEv @846
    _ZN13LteHarqUnitTx11getMacPduIdEv @847
    _ZN13LteHarqUnitTx11pduFeedbackE18HarqAcknowledgment @848
    _ZN13LteHarqUnitTx12getPduLengthEv @849
    _ZN13LteHarqUnitTx12markSelectedEv @850
    _ZN13LteHarqUnitTx13forceDropUnitEv @851
    _ZN13LteHarqUnitTx16getTransmissionsEv @852
    _ZN13LteHarqUnitTx6getPduEv @853
    _ZN13LteHarqUnitTx7dropPduEv @854
    _ZN13LteHarqUnitTx7getAcidEv @855
    _ZN13LteHarqUnitTx7isEmptyEv @856
    _ZN13LteHarqUnitTx7isReadyEv @857
    _ZN13LteHarqUnitTx8isMarkedEv @858
    _ZN13LteHarqUnitTx8selfNackEv @859
    _ZN13LteHarqUnitTx9getStatusEv @860
    _ZN13LteHarqUnitTx9getTxTimeEv @861
    _ZN13LteHarqUnitTx9insertPduEPN4inet6PacketE @862
    _ZN13LteHarqUnitTx9resetUnitEv @863
    _ZN13LteHarqUnitTxC1EhtP10LteMacBaseS1_ @864
    _ZN13LteHarqUnitTxC2ERKS_ @865
    _ZN13LteHarqUnitTxC2EhtP10LteMacBaseS1_ @866
    _ZN13LteHarqUnitTxD0Ev @867
    _ZN13LteHarqUnitTxD1Ev @868
    _ZN13LteHarqUnitTxD2Ev @869
    _ZN13LteHarqUnitTxaSERKS_ @870
    _ZN13LteMaxCiOptMB12readSolutionEv @871
    _ZN13LteMaxCiOptMB13launchProblemEv @872
    _ZN13LteMaxCiOptMB14commitScheduleEv @873
    _ZN13LteMaxCiOptMB15applySchedulingEv @874
    _ZN13LteMaxCiOptMB15generateProblemEv @875
    _ZN13LteMaxCiOptMB15prepareScheduleEv @876
    _ZN13LteMaxCiOptMBC1Ev @877
    _ZN13LteMaxCiOptMBC2Ev @878
    _ZN13LteMaxCiOptMBD0Ev @879
    _ZN13LteMaxCiOptMBD1Ev @880
    _ZN13LteMaxCiOptMBD2Ev @881
    _ZN13LtePdcpRrcEnb10initializeEi @882
    _ZN13LtePdcpRrcEnb12getDirectionEv @883
    _ZN13LtePdcpRrcEnb14deleteEntitiesEt @884
    _ZN13LtePdcpRrcEnb9getDestIdEN4inet12IntrusivePtrI15FlowControlInfoEE @885
    _ZN13LtePdcpRrcEnbC2Ev @886
    _ZN13LtePdcpRrcEnbD0Ev @887
    _ZN13LtePdcpRrcEnbD2Ev @888
    _ZN13LteRlcDataPdu13getRlcSduListB5cxx11Ev @889
    _ZN13LteRlcDataPdu14getRlcSduSizesB5cxx11Ev @890
    _ZN13LteRlcDataPdu14setFramingInfoEt @891
    _ZN13LteRlcDataPdu20setPduSequenceNumberEj @892
    _ZN13LteRlcDataPdu4copyERKS_ @893
    _ZN13LteRlcDataPdu6popSduERy @894
    _ZN13LteRlcDataPdu7pushSduEPN4inet6PacketE @895
    _ZN13LteRlcDataPdu7pushSduEPN4inet6PacketEi @896
    _ZN13LteRlcDataPduC2ERKS_ @897
    _ZN13LteRlcDataPduC2Ev @898
    _ZN13LteRlcDataPduD0Ev @899
    _ZN13LteRlcDataPduD2Ev @900
    _ZN13MecRequestApp10initializeEi @901
    _ZN13MecRequestApp11requestRTT_E @902 DATA
    _ZN13MecRequestApp11sendRequestEv @903
    _ZN13MecRequestApp12recvResponseEPN7omnetpp8cMessageE @904
    _ZN13MecRequestApp12requestSize_E @905 DATA
    _ZN13MecRequestApp13handleMessageEPN7omnetpp8cMessageE @906
    _ZN13MecRequestApp16recvResponseSno_E @907 DATA
    _ZN13MecRequestApp6finishEv @908
    _ZN13MecRequestAppC1Ev @909
    _ZN13MecRequestAppC2Ev @910
    _ZN13MecRequestAppD0Ev @911
    _ZN13MecRequestAppD1Ev @912
    _ZN13MecRequestAppD2Ev @913
    _ZN13RlcWindowDescC2Ev @914
    _ZN13SocketManager10peerClosedEv @915
    _ZN13SocketManager11dataArrivedEPN4inet6PacketEb @916
    _ZN13SocketManager11establishedEv @917
    _ZN13SocketManager12socketClosedEPN4inet9TcpSocketE @918
    _ZN13SocketManager13getHostModuleEv @919
    _ZN13SocketManager13socketDeletedEPN4inet9TcpSocketE @920
    _ZN13SocketManager13socketFailureEPN4inet9TcpSocketEi @921
    _ZN13SocketManager13statusArrivedEPN4inet13TcpStatusInfoE @922
    _ZN13SocketManager15socketAvailableEPN4inet9TcpSocketEPNS0_16TcpAvailableInfoE @923
    _ZN13SocketManager16socketPeerClosedEPN4inet9TcpSocketE @924
    _ZN13SocketManager17socketDataArrivedEPN4inet9TcpSocketEPNS0_6PacketEb @925
    _ZN13SocketManager17socketEstablishedEPN4inet9TcpSocketE @926
    _ZN13SocketManager19socketStatusArrivedEPN4inet9TcpSocketEPNS0_13TcpStatusInfoE @927
    _ZN13SocketManager4initEP14MecServiceBasePN4inet9TcpSocketE @928
    _ZN13SocketManager6closedEv @929
    _ZN13SocketManager7failureEi @930
    _ZN13SocketManager9getSocketEv @931
    _ZN13SocketManagerC2Ev @932
    _ZN13SocketManagerD0Ev @933
    _ZN13SocketManagerD2Ev @934
    _ZN13TransportInfoC1ERKNSt7__cxx1112basic_stringIcSt11char_traitsIcESaIcEEES7_S7_S7_RK12EndPointInfo @935
    _ZN13TransportInfoC2ERKNSt7__cxx1112basic_stringIcSt11char_traitsIcESaIcEEES7_S7_S7_RK12EndPointInfo @936
    _ZN13TransportInfoC2ERKS_ @937
    _ZN13TransportInfoD0Ev @938
    _ZN13TransportInfoD2Ev @939
    _ZN13UALCMPMessage12parsimUnpackEPN7omnetpp11cCommBufferE @940
    _ZN13UALCMPMessage12setRequestIdEi @941
    _ZN13UALCMPMessage15setConnectionIdEi @942
    _ZN13UALCMPMessage4copyERKS_ @943
    _ZN13UALCMPMessage7setTypeEPKc @944
    _ZN13UALCMPMessageC1EPKcs @945
    _ZN13UALCMPMessageC1ERKS_ @946
    _ZN13UALCMPMessageC2EPKcs @947
    _ZN13UALCMPMessageC2ERKS_ @948
    _ZN13UALCMPMessageD0Ev @949
    _ZN13UALCMPMessageD1Ev @950
    _ZN13UALCMPMessageD2Ev @951
    _ZN13UALCMPMessageaSERKS_ @952
    _ZN13X2CompReplyIEC2ERKS_ @953
    _ZN13X2CompReplyIEC2Ev @954
    _ZN13X2CompReplyIED0Ev @955
    _ZN13X2CompReplyIED2Ev @956
    _ZN13X2CompReplyIEaSERKS_ @957
    _ZN14ChannelControl10initializeEv @958
    _ZN14ChannelControl11lookupRadioEPN7omnetpp7cModuleE @959
    _ZN14ChannelControl12checkChannelEi @960
    _ZN14ChannelControl12getNeighborsEPN15IChannelControl10RadioEntryE @961
    _ZN14ChannelControl13registerRadioEPN7omnetpp7cModuleEPNS0_5cGateE @962
    _ZN14ChannelControl13sendToChannelEPN15IChannelControl10RadioEntryEP8AirFrame @963
    _ZN14ChannelControl14calcInterfDistEv @964
    _ZN14ChannelControl14getNumChannelsEv @965
    _ZN14ChannelControl15enableReceptionEPN15IChannelControl10RadioEntryE @966
    _ZN14ChannelControl15setRadioChannelEPN15IChannelControl10RadioEntryEi @967
    _ZN14ChannelControl15unregisterRadioEPN15IChannelControl10RadioEntryE @968
    _ZN14ChannelControl16disableReceptionEPN15IChannelControl10RadioEntryE @969
    _ZN14ChannelControl16setRadioPositionEPN15IChannelControl10RadioEntryERKN4inet5CoordE @970
    _ZN14ChannelControl17updateConnectionsEPN15IChannelControl10RadioEntryE @971
    _ZN14ChannelControl19getPropagationSpeedEv @972
    _ZN14ChannelControl20getInterferenceRangeEPN15IChannelControl10RadioEntryE @973
    _ZN14ChannelControl22addOngoingTransmissionEPN15IChannelControl10RadioEntryEP8AirFrame @974
    _ZN14ChannelControl23getOngoingTransmissionsB5cxx11Ei @975
    _ZN14ChannelControl25purgeOngoingTransmissionsEv @976
    _ZN14ChannelControlC1Ev @977
    _ZN14ChannelControlC2Ev @978
    _ZN14ChannelControlD0Ev @979
    _ZN14ChannelControlD1Ev @980
    _ZN14ChannelControlD2Ev @981
    _ZN14EventGenerator10initializeEv @982
    _ZN14EventGenerator11notifyEventEv @983
    _ZN14EventGenerator12registerNodeEP11MultihopD2Dt @984
    _ZN14EventGenerator13handleMessageEPN7omnetpp8cMessageE @985
    _ZN14EventGenerator14unregisterNodeEP11MultihopD2Dt @986
    _ZN14EventGenerator20computeTargetNodeSetERSt3setItSt4lessItESaItEEtd @987
    _ZN14EventGeneratorC1Ev @988
    _ZN14EventGeneratorC2Ev @989
    _ZN14EventGeneratorD0Ev @990
    _ZN14EventGeneratorD1Ev @991
    _ZN14EventGeneratorD2Ev @992
    _ZN14FeedbackTester10initializeEv @993
    _ZN14FeedbackTester13handleMessageEPN7omnetpp8cMessageE @994
    _ZN14FeedbackTesterC2Ev @995
    _ZN14FeedbackTesterD0Ev @996
    _ZN14FeedbackTesterD2Ev @997
    _ZN14LteControlInfo10setRlcTypeEt @998
    _ZN14LteControlInfo10setTrafficEt @999
    _ZN14LteControlInfo11setSourceIdEt @1000
    _ZN14LteControlInfo12parsimUnpackEPN7omnetpp11cCommBufferE @1001
    _ZN14LteControlInfo12setDirectionEt @1002
    _ZN14LteControlInfo14setApplicationEt @1003
    _ZN14LteControlInfo14setD2dRxPeerIdEt @1004
    _ZN14LteControlInfo14setD2dTxPeerIdEt @1005
    _ZN14LteControlInfo19setMulticastGroupIdEi @1006
    _ZN14LteControlInfo4copyERKS_ @1007
    _ZN14LteControlInfo7setLcidEt @1008
    _ZN14LteControlInfo9setDestIdEt @1009
    _ZN14LteControlInfoC1ERKS_ @1010
    _ZN14LteControlInfoC1Ev @1011
    _ZN14LteControlInfoC2ERKS_ @1012
    _ZN14LteControlInfoC2Ev @1013
    _ZN14LteControlInfoD0Ev @1014
    _ZN14LteControlInfoD1Ev @1015
    _ZN14LteControlInfoD2Ev @1016
    _ZN14LteControlInfoaSERKS_ @1017
    _ZN14LteFeedbackPkt15setSourceNodeIdEt @1018
    _ZN14LteFeedbackPkt28setLteFeedbackDoubleVectorDlESt6vectorIS0_I11LteFeedbackSaIS1_EESaIS3_EE @1019
    _ZN14LteFeedbackPkt28setLteFeedbackDoubleVectorUlESt6vectorIS0_I11LteFeedbackSaIS1_EESaIS3_EE @1020
    _ZN14LteFeedbackPkt29setLteFeedbackDoubleVectorD2DEtSt6vectorIS0_I11LteFeedbackSaIS1_EESaIS3_EE @1021
    _ZN14LteFeedbackPkt4copyERKS_ @1022
    _ZN14LteFeedbackPktC2ERKS_ @1023
    _ZN14LteFeedbackPktC2Ev @1024
    _ZN14LteFeedbackPktD0Ev @1025
    _ZN14LteFeedbackPktD2Ev @1026
    _ZN14LteMacPdu_Base11setMacPduIdEl @1027
    _ZN14LteMacPdu_Base12parsimUnpackEPN7omnetpp11cCommBufferE @1028
    _ZN14LteMacPdu_Base15getSduForUpdateEy @1029
    _ZN14LteMacPdu_Base15setHeaderLengthEj @1030
    _ZN14LteMacPdu_Base4copyERKS_ @1031
    _ZN14LteMacPdu_BaseC2ERKS_ @1032
    _ZN14LteMacPdu_BaseC2Ev @1033
    _ZN14LteMacPdu_BaseD0Ev @1034
    _ZN14LteMacPdu_BaseD1Ev @1035
    _ZN14LteMacPdu_BaseD2Ev @1036
    _ZN14LteMacPdu_BaseaSERKS_ @1037
    _ZN14LtePdcpRrcBase10initializeEi @1038
    _ZN14LtePdcpRrcBase10toDataPortEPN7omnetpp7cPacketE @1039
    _ZN14LtePdcpRrcBase11getNrNodeIdEv @1040
    _ZN14LtePdcpRrcBase11getRxEntityEj @1041
    _ZN14LtePdcpRrcBase11getTxEntityEj @1042
    _ZN14LtePdcpRrcBase12fromDataPortEPN7omnetpp7cPacketE @1043
    _ZN14LtePdcpRrcBase13handleMessageEPN7omnetpp8cMessageE @1044
    _ZN14LtePdcpRrcBase14deleteEntitiesEt @1045
    _ZN14LtePdcpRrcBase14fromLowerLayerEPN7omnetpp7cPacketE @1046
    _ZN14LtePdcpRrcBase14headerCompressEPN4inet6PacketE @1047
    _ZN14LtePdcpRrcBase14toEutranRrcSapEPN7omnetpp7cPacketE @1048
    _ZN14LtePdcpRrcBase16fromEutranRrcSapEPN7omnetpp7cPacketE @1049
    _ZN14LtePdcpRrcBase16headerDecompressEPN4inet6PacketE @1050
    _ZN14LtePdcpRrcBase16sendToLowerLayerEPN4inet6PacketE @1051
    _ZN14LtePdcpRrcBase16sendToUpperLayerEPN7omnetpp7cPacketE @1052
    _ZN14LtePdcpRrcBase20getPacketFlowManagerEv @1053
    _ZN14LtePdcpRrcBase20isCompressionEnabledEv @1054
    _ZN14LtePdcpRrcBase21setTrafficInformationEPN7omnetpp7cPacketEN4inet12IntrusivePtrI15FlowControlInfoEE @1055
    _ZN14LtePdcpRrcBase23forwardDataToTargetNodeEPN4inet6PacketEt @1056
    _ZN14LtePdcpRrcBase25isDualConnectivityEnabledEv @1057
    _ZN14LtePdcpRrcBase25receiveDataFromSourceNodeEPN4inet6PacketEt @1058
    _ZN14LtePdcpRrcBase6finishEv @1059
    _ZN14LtePdcpRrcBase9getNodeIdEv @1060
    _ZN14LtePdcpRrcBaseC2Ev @1061
    _ZN14LtePdcpRrcBaseD0Ev @1062
    _ZN14LtePdcpRrcBaseD1Ev @1063
    _ZN14LtePdcpRrcBaseD2Ev @1064
    _ZN14MECResponseApp10initializeEi @1065
    _ZN14MECResponseApp11establishedEi @1066
    _ZN14MECResponseApp11sendStopAckEv @1067
    _ZN14MECResponseApp12sendResponseEv @1068
    _ZN14MECResponseApp12socketClosedEPN4inet9TcpSocketE @1069
    _ZN14MECResponseApp13doComputationEv @1070
    _ZN14MECResponseApp13handleRequestEPN7omnetpp8cMessageE @1071
    _ZN14MECResponseApp14sendGetRequestEv @1072
    _ZN14MECResponseApp15handleUeMessageEPN7omnetpp8cMessageE @1073
    _ZN14MECResponseApp15scheduleNextMsgEPN7omnetpp8cMessageE @1074
    _ZN14MECResponseApp16handleMp1MessageEi @1075
    _ZN14MECResponseApp17handleHttpMessageEi @1076
    _ZN14MECResponseApp17handleSelfMessageEPN7omnetpp8cMessageE @1077
    _ZN14MECResponseApp17handleStopRequestEPN7omnetpp8cMessageE @1078
    _ZN14MECResponseApp20handleServiceMessageEi @1079
    _ZN14MECResponseApp22handleProcessedMessageEPN7omnetpp8cMessageE @1080
    _ZN14MECResponseApp6finishEv @1081
    _ZN14MECResponseAppC1Ev @1082
    _ZN14MECResponseAppC2Ev @1083
    _ZN14MECResponseAppD0Ev @1084
    _ZN14MECResponseAppD1Ev @1085
    _ZN14MECResponseAppD2Ev @1086
    _ZN14MecResponseApp10initializeEi @1087
    _ZN14MecResponseApp12sendResponseEPN7omnetpp8cMessageE @1088
    _ZN14MecResponseApp13handleMessageEPN7omnetpp8cMessageE @1089
    _ZN14MecResponseApp13handleRequestEPN7omnetpp8cMessageE @1090
    _ZN14MecResponseApp15recvRequestSno_E @1091 DATA
    _ZN14MecResponseAppC2Ev @1092
    _ZN14MecResponseAppD0Ev @1093
    _ZN14MecResponseAppD2Ev @1094
    _ZN14MecServiceBase10initializeEi @1095
    _ZN14MecServiceBase10newRequestEP18HttpRequestMessage @1096
    _ZN14MecServiceBase12socketClosedEPN4inet9TcpSocketE @1097
    _ZN14MecServiceBase13handleRequestEPN4inet9TcpSocketE @1098
    _ZN14MecServiceBase13manageRequestEv @1099
    _ZN14MecServiceBase13socketDeletedEPN4inet9TcpSocketE @1100
    _ZN14MecServiceBase13socketFailureEPN4inet9TcpSocketEi @1101
    _ZN14MecServiceBase14triggeredEventEP17EventNotification @1102
    _ZN14MecServiceBase15closeConnectionEP13SocketManager @1103
    _ZN14MecServiceBase15socketAvailableEPN4inet9TcpSocketEPNS0_16TcpAvailableInfoE @1104
    _ZN14MecServiceBase16removeConnectionEP13SocketManager @1105
    _ZN14MecServiceBase16socketPeerClosedEPN4inet9TcpSocketE @1106
    _ZN14MecServiceBase17scheduleNextEventEb @1107
    _ZN14MecServiceBase17socketDataArrivedEPN4inet9TcpSocketEPNS0_6PacketEb @1108
    _ZN14MecServiceBase17socketEstablishedEPN4inet9TcpSocketE @1109
    _ZN14MecServiceBase18manageSubscriptionEv @1110
    _ZN14MecServiceBase18removeSubscritionsEi @1111
    _ZN14MecServiceBase19handleMessageWhenUpEPN7omnetpp8cMessageE @1112
    _ZN14MecServiceBase19handleStopOperationEPN4inet18LifecycleOperationE @1113
    _ZN14MecServiceBase19socketStatusArrivedEPN4inet9TcpSocketEPNS0_13TcpStatusInfoE @1114
    _ZN14MecServiceBase20handleCrashOperationEPN4inet18LifecycleOperationE @1115
    _ZN14MecServiceBase20handleCurrentRequestEPN4inet9TcpSocketE @1116
    _ZN14MecServiceBase20handleStartOperationEPN4inet18LifecycleOperationE @1117
    _ZN14MecServiceBase20newSubscriptionEventEP17EventNotification @1118
    _ZN14MecServiceBase22emitRequestQueueLengthEv @1119
    _ZN14MecServiceBase22handleRequestQueueFullEP18HttpRequestMessage @1120
    _ZN14MecServiceBase24getConnectedBaseStationsEv @1121
    _ZN14MecServiceBase27calculateRequestServiceTimeEv @1122
    _ZN14MecServiceBase32calculateSubscriptionServiceTimeEv @1123
    _ZN14MecServiceBase6finishEv @1124
    _ZN14MecServiceBaseC2Ev @1125
    _ZN14MecServiceBaseD0Ev @1126
    _ZN14MecServiceBaseD1Ev @1127
    _ZN14MecServiceBaseD2Ev @1128
    _ZN14MigrationTimer11setNewAppIdEj @1129
    _ZN14MigrationTimer11setOldAppIdEj @1130
    _ZN14MigrationTimer12parsimUnpackEPN7omnetpp11cCommBufferE @1131
    _ZN14MigrationTimer4copyERKS_ @1132
    _ZN14MigrationTimerC1EPKcs @1133
    _ZN14MigrationTimerC1ERKS_ @1134
    _ZN14MigrationTimerC2EPKcs @1135
    _ZN14MigrationTimerC2ERKS_ @1136
    _ZN14MigrationTimerD0Ev @1137
    _ZN14MigrationTimerD1Ev @1138
    _ZN14MigrationTimerD2Ev @1139
    _ZN14MigrationTimeraSERKS_ @1140
    _ZN14ModulationTypeC2Ev @1141
    _ZN14NRChannelModel10initializeEi @1142
    _ZN14NRChannelModel13computeIndoorEddb @1143
    _ZN14NRChannelModel14getAttenuationEt9DirectionN4inet5CoordEb @1144
    _ZN14NRChannelModel15computePathLossEddb @1145
    _ZN14NRChannelModel17computeRuralMacroEddb @1146
    _ZN14NRChannelModel17computeUrbanMacroEddb @1147
    _ZN14NRChannelModel17computeUrbanMicroEddb @1148
    _ZN14NRChannelModel21computeLosProbabilityEdt @1149
    _ZN14NRChannelModel22computeExtCellPathLossEddt @1150
    _ZN14NRChannelModel25computeAngolarAttenuationEdd @1151
    _ZN14NRChannelModel26computeExtCellInterferenceEttN4inet5CoordEbdPSt6vectorIdSaIdEE @1152
    _ZN14NRChannelModelC2Ev @1153
    _ZN14NRChannelModelD0Ev @1154
    _ZN14NRChannelModelD2Ev @1155
    _ZN14NRRxPdcpEntity10initializeEv @1156
    _ZN14NRRxPdcpEntity13handleMessageEPN7omnetpp8cMessageE @1157
    _ZN14NRRxPdcpEntity13handlePdcpSduEPN4inet6PacketE @1158
    _ZN14NRRxPdcpEntityC1Ev @1159
    _ZN14NRRxPdcpEntityC2Ev @1160
    _ZN14NRRxPdcpEntityD0Ev @1161
    _ZN14NRRxPdcpEntityD1Ev @1162
    _ZN14NRRxPdcpEntityD2Ev @1163
    _ZN14NRTxPdcpEntity10initializeEv @1164
    _ZN14NRTxPdcpEntity14deliverPdcpPduEPN4inet6PacketE @1165
    _ZN14NRTxPdcpEntity6setIdsEN4inet12IntrusivePtrI15FlowControlInfoEE @1166
    _ZN14NRTxPdcpEntityC1Ev @1167
    _ZN14NRTxPdcpEntityC2Ev @1168
    _ZN14NRTxPdcpEntityD0Ev @1169
    _ZN14NRTxPdcpEntityD1Ev @1170
    _ZN14NRTxPdcpEntityD2Ev @1171
    _ZN14TMultiTimerMsg12parsimUnpackEPN7omnetpp11cCommBufferE @1172
    _ZN14TMultiTimerMsg4copyERKS_ @1173
    _ZN14TMultiTimerMsg8setEventEj @1174
    _ZN14TMultiTimerMsgC1EPKcs @1175
    _ZN14TMultiTimerMsgC1ERKS_ @1176
    _ZN14TMultiTimerMsgC2EPKcs @1177
    _ZN14TMultiTimerMsgC2ERKS_ @1178
    _ZN14TMultiTimerMsgD0Ev @1179
    _ZN14TMultiTimerMsgD1Ev @1180
    _ZN14TMultiTimerMsgD2Ev @1181
    _ZN14TMultiTimerMsgaSERKS_ @1182
    _ZN14TftControlInfo12parsimUnpackEPN7omnetpp11cCommBufferE @1183
    _ZN14TftControlInfo4copyERKS_ @1184
    _ZN14TftControlInfo6setTftEj @1185
    _ZN14TftControlInfoC1ERKS_ @1186
    _ZN14TftControlInfoC1Ev @1187
    _ZN14TftControlInfoC2ERKS_ @1188
    _ZN14TftControlInfoC2Ev @1189
    _ZN14TftControlInfoD0Ev @1190
    _ZN14TftControlInfoD1Ev @1191
    _ZN14TftControlInfoD2Ev @1192
    _ZN14TftControlInfoaSERKS_ @1193
    _ZN14mecAppMapEntryC2ERKS_ @1194
    _ZN14mecAppMapEntryC2Ev @1195
    _ZN14mecAppMapEntryD2Ev @1196
    _ZN14mecAppMapEntryaSERKS_ @1197
    _ZN15CurrentLocationC1EdRKN4inet5CoordE @1198
    _ZN15CurrentLocationC1EdRKN4inet5CoordERK9TimeStamp @1199
    _ZN15CurrentLocationC1Ev @1200
    _ZN15CurrentLocationC2ERKS_ @1201
    _ZN15CurrentLocationC2EdRKN4inet5CoordE @1202
    _ZN15CurrentLocationC2EdRKN4inet5CoordERK9TimeStamp @1203
    _ZN15CurrentLocationC2Ev @1204
    _ZN15CurrentLocationD0Ev @1205
    _ZN15CurrentLocationD1Ev @1206
    _ZN15CurrentLocationD2Ev @1207
    _ZN15DeviceAppPacket12parsimUnpackEPN7omnetpp11cCommBufferE @1208
    _ZN15DeviceAppPacket4copyERKS_ @1209
    _ZN15DeviceAppPacketC1ERKS_ @1210
    _ZN15DeviceAppPacketC1Ev @1211
    _ZN15DeviceAppPacketC2ERKS_ @1212
    _ZN15DeviceAppPacketC2Ev @1213
    _ZN15DeviceAppPacketD0Ev @1214
    _ZN15DeviceAppPacketD1Ev @1215
    _ZN15DeviceAppPacketD2Ev @1216
    _ZN15DeviceAppPacketaSERKS_ @1217
    _ZN15FlowControlInfo10setDstAddrEj @1218
    _ZN15FlowControlInfo10setSrcAddrEj @1219
    _ZN15FlowControlInfo12parsimUnpackEPN7omnetpp11cCommBufferE @1220
    _ZN15FlowControlInfo13setHeaderSizeEi @1221
    _ZN15FlowControlInfo16setTypeOfServiceEt @1222
    _ZN15FlowControlInfo17setSequenceNumberEj @1223
    _ZN15FlowControlInfo4copyERKS_ @1224
    _ZN15FlowControlInfo8setUseNREb @1225
    _ZN15FlowControlInfoC1ERKS_ @1226
    _ZN15FlowControlInfoC1Ev @1227
    _ZN15FlowControlInfoC2ERKS_ @1228
    _ZN15FlowControlInfoC2Ev @1229
    _ZN15FlowControlInfoD0Ev @1230
    _ZN15FlowControlInfoD1Ev @1231
    _ZN15FlowControlInfoD2Ev @1232
    _ZN15FlowControlInfoaSERKS_ @1233
    _ZN15HttpBaseMessage12parsimUnpackEPN7omnetpp11cCommBufferE @1234
    _ZN15HttpBaseMessage13setConnectionEPKc @1235
    _ZN15HttpBaseMessage14setArrivalTimeEN7omnetpp7SimTimeE @1236
    _ZN15HttpBaseMessage14setContentTypeEPKc @1237
    _ZN15HttpBaseMessage15setHttpProtocolEPKc @1238
    _ZN15HttpBaseMessage16setContentLengthEi @1239
    _ZN15HttpBaseMessage17setIsReceivingMsgEb @1240
    _ZN15HttpBaseMessage22setRemainingDataToRecvEi @1241
    _ZN15HttpBaseMessage4copyERKS_ @1242
    _ZN15HttpBaseMessage7setBodyEPKc @1243
    _ZN15HttpBaseMessage7setTypeE11HttpMsgType @1244
    _ZN15HttpBaseMessage8setStateE16HttpRequestState @1245
    _ZN15HttpBaseMessage9setSockIdEi @1246
    _ZN15HttpBaseMessageC1ERKS_ @1247
    _ZN15HttpBaseMessageC1Ev @1248
    _ZN15HttpBaseMessageC2ERKS_ @1249
    _ZN15HttpBaseMessageC2Ev @1250
    _ZN15HttpBaseMessageD0Ev @1251
    _ZN15HttpBaseMessageD1Ev @1252
    _ZN15HttpBaseMessageD2Ev @1253
    _ZN15HttpBaseMessageaSERKS_ @1254
    _ZN15IChannelControl10RadioEntryC2ERKS0_ @1255
    _ZN15IChannelControl10RadioEntryC2Ev @1256
    _ZN15IChannelControl10RadioEntryD2Ev @1257
    _ZN15IChannelControlC2Ev @1258
    _ZN15IChannelControlD0Ev @1259
    _ZN15IChannelControlD2Ev @1260
    _ZN15LocationService10initializeEi @1261
    _ZN15LocationService13handleMessageEPN7omnetpp8cMessageE @1262
    _ZN15LocationService16handleGETRequestEPK18HttpRequestMessagePN4inet9TcpSocketE @1263
    _ZN15LocationService16handlePUTRequestEPK18HttpRequestMessagePN4inet9TcpSocketE @1264
    _ZN15LocationService17handlePOSTRequestEPK18HttpRequestMessagePN4inet9TcpSocketE @1265
    _ZN15LocationService18manageSubscriptionEv @1266
    _ZN15LocationService19handleDELETERequestEPK18HttpRequestMessagePN4inet9TcpSocketE @1267
    _ZN15LocationService6finishEv @1268
    _ZN15LocationServiceC1Ev @1269
    _ZN15LocationServiceC2Ev @1270
    _ZN15LocationServiceD0Ev @1271
    _ZN15LocationServiceD1Ev @1272
    _ZN15LocationServiceD2Ev @1273
    _ZN15LteChannelModel10initializeEi @1274
    _ZN15LteChannelModel10isErrorDasEP11LteAirFrameP15UserControlInfo @1275
    _ZN15LteChannelModel11getRSRP_D2DEP11LteAirFrameP15UserControlInfotN4inet5CoordE @1276
    _ZN15LteChannelModel11getSINR_D2DEP11LteAirFrameP15UserControlInfotN4inet5CoordEt @1277
    _ZN15LteChannelModel11getSINR_D2DEP11LteAirFrameP15UserControlInfotN4inet5CoordEtRKSt6vectorIdSaIdEE @1278
    _ZN15LteChannelModel11isError_D2DEP11LteAirFrameP15UserControlInfoRKSt6vectorIdSaIdEE @1279
    _ZN15LteChannelModel24isD2DInterferenceEnabledEv @1280
    _ZN15LteChannelModel27isUplinkInterferenceEnabledEv @1281
    _ZN15LteChannelModel6getSIREP11LteAirFrameP15UserControlInfo @1282
    _ZN15LteChannelModel6setPhyEP10LtePhyBase @1283
    _ZN15LteChannelModel7getRSRPEP11LteAirFrameP15UserControlInfo @1284
    _ZN15LteChannelModel7getSINREP11LteAirFrameP15UserControlInfo @1285
    _ZN15LteChannelModel7isErrorEP11LteAirFrameP15UserControlInfo @1286
    _ZN15LteChannelModelC2Ev @1287
    _ZN15LteChannelModelD0Ev @1288
    _ZN15LteChannelModelD2Ev @1289
    _ZN15LteHarqBufferRx10getProcessEh @1290
    _ZN15LteHarqBufferRx10macUe_emitEid @1291
    _ZN15LteHarqBufferRx12getProcessesEv @1292
    _ZN15LteHarqBufferRx12sendFeedbackEv @1293
    _ZN15LteHarqBufferRx13getEmptyUnitsB5cxx11Eh @1294
    _ZN15LteHarqBufferRx14firstAvailableB5cxx11Ev @1295
    _ZN15LteHarqBufferRx15getBufferStatusEv @1296
    _ZN15LteHarqBufferRx16unregister_macUeEv @1297
    _ZN15LteHarqBufferRx18extractCorrectPdusB5cxx11Ev @1298
    _ZN15LteHarqBufferRx18purgeCorruptedPdusEv @1299
    _ZN15LteHarqBufferRx19totalCellRcvdBytes_E @1300 DATA
    _ZN15LteHarqBufferRx9initMacUeEv @1301
    _ZN15LteHarqBufferRx9insertPduEtPN4inet6PacketE @1302
    _ZN15LteHarqBufferRxC1EjP10LteMacBaset @1303
    _ZN15LteHarqBufferRxC2EjP10LteMacBaset @1304
    _ZN15LteHarqBufferRxC2Ev @1305
    _ZN15LteHarqBufferRxD0Ev @1306
    _ZN15LteHarqBufferRxD1Ev @1307
    _ZN15LteHarqBufferRxD2Ev @1308
    _ZN15LteHarqBufferTx10getProcessEh @1309
    _ZN15LteHarqBufferTx11dropProcessEh @1310
    _ZN15LteHarqBufferTx12isInUnitListEhtSt4pairIhNSt7__cxx114listItSaItEEEE @1311
    _ZN15LteHarqBufferTx12markSelectedESt4pairIhNSt7__cxx114listItSaItEEEEh @1312
    _ZN15LteHarqBufferTx13forceDropUnitEht @1313
    _ZN15LteHarqBufferTx13getEmptyUnitsB5cxx11Eh @1314
    _ZN15LteHarqBufferTx14firstAvailableB5cxx11Ev @1315
    _ZN15LteHarqBufferTx15getBufferStatusEv @1316
    _ZN15LteHarqBufferTx15getNumProcessesEv @1317
    _ZN15LteHarqBufferTx16firstReadyForRtxB5cxx11Ev @1318
    _ZN15LteHarqBufferTx16forceDropProcessEh @1319
    _ZN15LteHarqBufferTx16getHarqProcessesEv @1320
    _ZN15LteHarqBufferTx16sendSelectedDownEv @1321
    _ZN15LteHarqBufferTx18getSelectedProcessEv @1322
    _ZN15LteHarqBufferTx19receiveHarqFeedbackEPN4inet6PacketE @1323
    _ZN15LteHarqBufferTx8selfNackEht @1324
    _ZN15LteHarqBufferTx9insertPduEhtPN4inet6PacketE @1325
    _ZN15LteHarqBufferTx9pduLengthEht @1326
    _ZN15LteHarqBufferTxC1EjP10LteMacBaseS1_ @1327
    _ZN15LteHarqBufferTxC2EjP10LteMacBaseS1_ @1328
    _ZN15LteHarqBufferTxC2Ev @1329
    _ZN15LteHarqBufferTxD0Ev @1330
    _ZN15LteHarqBufferTxD1Ev @1331
    _ZN15LteHarqBufferTxD2Ev @1332
    _ZN15LteHarqBufferTxaSERKS_ @1333
    _ZN15LteHarqFeedback12parsimUnpackEPN7omnetpp11cCommBufferE @1334
    _ZN15LteHarqFeedback13setFbMacPduIdEl @1335
    _ZN15LteHarqFeedback14setD2dFeedbackEb @1336
    _ZN15LteHarqFeedback4copyERKS_ @1337
    _ZN15LteHarqFeedback5setCwEh @1338
    _ZN15LteHarqFeedback7setAcidEh @1339
    _ZN15LteHarqFeedback9setResultEb @1340
    _ZN15LteHarqFeedbackC1ERKS_ @1341
    _ZN15LteHarqFeedbackC1Ev @1342
    _ZN15LteHarqFeedbackC2ERKS_ @1343
    _ZN15LteHarqFeedbackC2Ev @1344
    _ZN15LteHarqFeedbackD0Ev @1345
    _ZN15LteHarqFeedbackD1Ev @1346
    _ZN15LteHarqFeedbackD2Ev @1347
    _ZN15LteHarqFeedbackaSERKS_ @1348
    _ZN15LteMuMimoMatrix10initializeEt @1349
    _ZN15LteMuMimoMatrix13getMuMimoPairEt @1350
    _ZN15LteMuMimoMatrix7toIndexEt @1351
    _ZN15LteMuMimoMatrixC2Ev @1352
    _ZN15LteMuMimoMatrixD2Ev @1353
    _ZN15LteMuMimoMatrixaSERKS_ @1354
    _ZN15LtePdcpRrcUeD2D12fromDataPortEPN7omnetpp7cPacketE @1355
    _ZN15LtePdcpRrcUeD2D12getDirectionEt @1356
    _ZN15LtePdcpRrcUeD2D13handleMessageEPN7omnetpp8cMessageE @1357
    _ZN15LtePdcpRrcUeD2D23pdcpHandleD2DModeSwitchEt10LteD2DMode @1358
    _ZN15LtePdcpRrcUeD2D9getDestIdEN4inet12IntrusivePtrI15FlowControlInfoEE @1359
    _ZN15LtePdcpRrcUeD2DC2Ev @1360
    _ZN15LtePdcpRrcUeD2DD0Ev @1361
    _ZN15LtePdcpRrcUeD2DD2Ev @1362
    _ZN15LteRlcAmDataPduC2Ev @1363
    _ZN15LteRlcAmDataPduD0Ev @1364
    _ZN15LteRlcAmDataPduD2Ev @1365
    _ZN15LteRlcUmDataPdu4copyERKS_ @1366
    _ZN15LteRlcUmDataPduC2ERKS_ @1367
    _ZN15LteRlcUmDataPduC2Ev @1368
    _ZN15LteRlcUmDataPduD0Ev @1369
    _ZN15LteRlcUmDataPduD2Ev @1370
    _ZN15LteRxPdcpEntity10initializeEv @1371
    _ZN15LteRxPdcpEntity13handlePdcpSduEPN4inet6PacketE @1372
    _ZN15LteRxPdcpEntity26handlePacketFromLowerLayerEPN4inet6PacketE @1373
    _ZN15LteRxPdcpEntityC1Ev @1374
    _ZN15LteRxPdcpEntityC2Ev @1375
    _ZN15LteRxPdcpEntityD0Ev @1376
    _ZN15LteRxPdcpEntityD1Ev @1377
    _ZN15LteRxPdcpEntityD2Ev @1378
    _ZN15LteSchedulerEnb10initializeE9DirectionP9LteMacEnb @1379
    _ZN15LteSchedulerEnb12allocatedCwsEt @1380
    _ZN15LteSchedulerEnb12getSchedulerE15SchedDiscipline @1381
    _ZN15LteSchedulerEnb13scheduleGrantEjjRbS0_S0_dPSt6vectorI9BandLimitSaIS2_EE6Remoteb @1382
    _ZN15LteSchedulerEnb13storeScListIdEdSt4pairIjtEj @1383
    _ZN15LteSchedulerEnb14availableBytesEt6Remotett9Directiondi @1384
    _ZN15LteSchedulerEnb14getUtilizationEv @1385
    _ZN15LteSchedulerEnb14resetAllocatorEv @1386
    _ZN15LteSchedulerEnb14resourceBlocksEv @1387
    _ZN15LteSchedulerEnb16getOccupiedBandsEv @1388
    _ZN15LteSchedulerEnb16readAvailableRbsEt6Remotet @1389
    _ZN15LteSchedulerEnb16readRbOccupationEtdRSt3mapI6RemoteS0_ItjSt4lessItESaISt4pairIKtjEEES2_IS1_ESaIS4_IKS1_S8_EEE @1390
    _ZN15LteSchedulerEnb17getResourceBlocksEv @1391
    _ZN15LteSchedulerEnb18storeAllocationEnbESt6vectorIS0_ISt3mapIt23AllocatedRbsPerBandInfoSt4lessItESaISt4pairIKtS2_EEESaIS9_EESaISB_EEPSt3setItS4_SaItEE @1392
    _ZN15LteSchedulerEnb19initializeAllocatorEv @1393
    _ZN15LteSchedulerEnb21getInterferringBlocksE5Plane6Remotet @1394
    _ZN15LteSchedulerEnb21readActiveConnectionsEv @1395
    _ZN15LteSchedulerEnb21readTotalAvailableRbsEv @1396
    _ZN15LteSchedulerEnb23removeActiveConnectionsEt @1397
    _ZN15LteSchedulerEnb23resourceBlockStatisticsEb @1398
    _ZN15LteSchedulerEnb23scheduleGrantBackgroundEjjRbS0_S0_dPSt6vectorI9BandLimitSaIS2_EE6Remoteb @1399
    _ZN15LteSchedulerEnb24readPerUeAllocatedBlocksEt6Remotet @1400
    _ZN15LteSchedulerEnb26availableBytesBackgroundUeEt6Remotet9Directiondi @1401
    _ZN15LteSchedulerEnb26readPerBandAllocatedBlocksE5Plane6Remotet @1402
    _ZN15LteSchedulerEnb32initializeSchedulerPeriodCounterEt @1403
    _ZN15LteSchedulerEnb7backlogEj @1404
    _ZN15LteSchedulerEnb8scheduleEv @1405
    _ZN15LteSchedulerEnbC2Ev @1406
    _ZN15LteSchedulerEnbD0Ev @1407
    _ZN15LteSchedulerEnbD1Ev @1408
    _ZN15LteSchedulerEnbD2Ev @1409
    _ZN15LteSchedulerEnbaSERKS_ @1410
    _ZN15LteTxPdcpEntity10initializeEv @1411
    _ZN15LteTxPdcpEntity14deliverPdcpPduEPN4inet6PacketE @1412
    _ZN15LteTxPdcpEntity26handlePacketFromUpperLayerEPN4inet6PacketE @1413
    _ZN15LteTxPdcpEntity6setIdsEN4inet12IntrusivePtrI15FlowControlInfoEE @1414
    _ZN15LteTxPdcpEntityC1Ev @1415
    _ZN15LteTxPdcpEntityC2Ev @1416
    _ZN15LteTxPdcpEntityD0Ev @1417
    _ZN15LteTxPdcpEntityD1Ev @1418
    _ZN15LteTxPdcpEntityD2Ev @1419
    _ZN15MecOrchestrator10initializeEi @1420
    _ZN15MecOrchestrator10stopMECAppEP13UALCMPMessage @1421
    _ZN15MecOrchestrator11startMECAppEP13UALCMPMessage @1422
    _ZN15MecOrchestrator13handleMessageEPN7omnetpp8cMessageE @1423
    _ZN15MecOrchestrator15findBestMecHostERK21ApplicationDescriptor @1424
    _ZN15MecOrchestrator19handleUALCMPMessageEPN7omnetpp8cMessageE @1425
    _ZN15MecOrchestrator20getConnectedMecHostsEv @1426
    _ZN15MecOrchestrator23sendCreateAppContextAckEbji @1427
    _ZN15MecOrchestrator23sendDeleteAppContextAckEbji @1428
    _ZN15MecOrchestrator25onboardApplicationPackageEPKc @1429
    _ZN15MecOrchestrator26onboardApplicationPackagesEv @1430
    _ZN15MecOrchestratorC1Ev @1431
    _ZN15MecOrchestratorC2Ev @1432
    _ZN15MecOrchestratorD0Ev @1433
    _ZN15MecOrchestratorD2Ev @1434
    _ZN15RtxNotification12parsimUnpackEPN7omnetpp11cCommBufferE @1435
    _ZN15RtxNotification12setDirectionEi @1436
    _ZN15RtxNotification4copyERKS_ @1437
    _ZN15RtxNotification8setBytesEi @1438
    _ZN15RtxNotificationC1EPKcs @1439
    _ZN15RtxNotificationC1ERKS_ @1440
    _ZN15RtxNotificationC2EPKcs @1441
    _ZN15RtxNotificationC2ERKS_ @1442
    _ZN15RtxNotificationD0Ev @1443
    _ZN15RtxNotificationD1Ev @1444
    _ZN15RtxNotificationD2Ev @1445
    _ZN15RtxNotificationaSERKS_ @1446
    _ZN15ServiceRegistry10initializeEi @1447
    _ZN15ServiceRegistry16handleGETRequestEPK18HttpRequestMessagePN4inet9TcpSocketE @1448
    _ZN15ServiceRegistry16handlePUTRequestEPK18HttpRequestMessagePN4inet9TcpSocketE @1449
    _ZN15ServiceRegistry17handlePOSTRequestEPK18HttpRequestMessagePN4inet9TcpSocketE @1450
    _ZN15ServiceRegistry18registerMecServiceERK17ServiceDescriptor @1451
    _ZN15ServiceRegistry19handleDELETERequestEPK18HttpRequestMessagePN4inet9TcpSocketE @1452
    _ZN15ServiceRegistry20handleStartOperationEPN4inet18LifecycleOperationE @1453
    _ZN15ServiceRegistryC1Ev @1454
    _ZN15ServiceRegistryC2Ev @1455
    _ZN15ServiceRegistryD0Ev @1456
    _ZN15ServiceRegistryD1Ev @1457
    _ZN15ServiceRegistryD2Ev @1458
    _ZN15TrickleTimerMsg12parsimUnpackEPN7omnetpp11cCommBufferE @1459
    _ZN15TrickleTimerMsg4copyERKS_ @1460
    _ZN15TrickleTimerMsg8setMsgidEj @1461
    _ZN15TrickleTimerMsgC1EPKcs @1462
    _ZN15TrickleTimerMsgC1ERKS_ @1463
    _ZN15TrickleTimerMsgC2EPKcs @1464
    _ZN15TrickleTimerMsgC2ERKS_ @1465
    _ZN15TrickleTimerMsgD0Ev @1466
    _ZN15TrickleTimerMsgD1Ev @1467
    _ZN15TrickleTimerMsgD2Ev @1468
    _ZN15TrickleTimerMsgaSERKS_ @1469
    _ZN15UserControlInfo15setUserTxParamsEPK12UserTxParams @1470
    _ZN15UserControlInfo16setGrantedBlocksERKSt3mapI6RemoteS0_ItjSt4lessItESaISt4pairIKtjEEES2_IS1_ESaIS4_IKS1_S8_EEE @1471
    _ZN15UserControlInfo8setCoordERKN4inet5CoordE @1472
    _ZN15UserControlInfoC1Ev @1473
    _ZN15UserControlInfoC2ERKS_ @1474
    _ZN15UserControlInfoC2Ev @1475
    _ZN15UserControlInfoD0Ev @1476
    _ZN15UserControlInfoD1Ev @1477
    _ZN15UserControlInfoD2Ev @1478
    _ZN15UserControlInfoaSERKS_ @1479
    _ZN15X2CompRequestIEC2ERKS_ @1480
    _ZN15X2CompRequestIEC2Ev @1481
    _ZN15X2CompRequestIED0Ev @1482
    _ZN15X2CompRequestIED2Ev @1483
    _ZN15X2CompRequestIEaSERKS_ @1484
    _ZN16ApplicationTableD2Ev @1485
    _ZN16ComponentCarrier10initializeEv @1486
    _ZN16ComponentCarrier11getNumBandsEv @1487
    _ZN16ComponentCarrier18getNumerologyIndexEv @1488
    _ZN16ComponentCarrier19getCarrierFrequencyEv @1489
    _ZN16ComponentCarrierC2Ev @1490
    _ZN16ComponentCarrierD0Ev @1491
    _ZN16ComponentCarrierD2Ev @1492
    _ZN16ConnectionsTable10find_entryEjjt @1493
    _ZN16ConnectionsTable10find_entryEjjtt @1494
    _ZN16ConnectionsTable12create_entryEjjtt @1495
    _ZN16ConnectionsTable12create_entryEjjttt @1496
    _ZN16ConnectionsTable9hash_funcEjjt @1497
    _ZN16ConnectionsTable9hash_funcEjjtt @1498
    _ZN16ConnectionsTableC1Ev @1499
    _ZN16ConnectionsTableC2Ev @1500
    _ZN16ConnectionsTableD0Ev @1501
    _ZN16ConnectionsTableD1Ev @1502
    _ZN16ConnectionsTableD2Ev @1503
    _ZN16CreateAppMessage10setUeAppIDEi @1504
    _ZN16CreateAppMessage12parsimUnpackEPN7omnetpp11cCommBufferE @1505
    _ZN16CreateAppMessage12setContextIdEi @1506
    _ZN16CreateAppMessage12setTimestampEN7omnetpp7SimTimeE @1507
    _ZN16CreateAppMessage13setSourcePortEi @1508
    _ZN16CreateAppMessage14setRequiredCpuEd @1509
    _ZN16CreateAppMessage14setRequiredRamEd @1510
    _ZN16CreateAppMessage15setMEModuleNameEPKc @1511
    _ZN16CreateAppMessage15setMEModuleTypeEPKc @1512
    _ZN16CreateAppMessage15setRequiredDiskEd @1513
    _ZN16CreateAppMessage16setSourceAddressEPKc @1514
    _ZN16CreateAppMessage18setDestinationPortEi @1515
    _ZN16CreateAppMessage18setProvidedServiceEPKc @1516
    _ZN16CreateAppMessage18setRequiredServiceEPKc @1517
    _ZN16CreateAppMessage21setDestinationAddressEPKc @1518
    _ZN16CreateAppMessage24setDestinationMecAppPortEi @1519
    _ZN16CreateAppMessage27setDestinationMecAppAddressEPKc @1520
    _ZN16CreateAppMessage4copyERKS_ @1521
    _ZN16CreateAppMessage6setSnoEj @1522
    _ZN16CreateAppMessage7setTypeEPKc @1523
    _ZN16CreateAppMessageC1ERKS_ @1524
    _ZN16CreateAppMessageC1Ev @1525
    _ZN16CreateAppMessageC2ERKS_ @1526
    _ZN16CreateAppMessageC2Ev @1527
    _ZN16CreateAppMessageD0Ev @1528
    _ZN16CreateAppMessageD1Ev @1529
    _ZN16CreateAppMessageD2Ev @1530
    _ZN16CreateAppMessageaSERKS_ @1531
    _ZN16CreateContextApp11setDevAppIdEPKc @1532
    _ZN16CreateContextApp12parsimUnpackEPN7omnetpp11cCommBufferE @1533
    _ZN16CreateContextApp12setOnboardedEb @1534
    _ZN16CreateContextApp14setUeIpAddressEPKc @1535
    _ZN16CreateContextApp17setAppPackagePathEPKc @1536
    _ZN16CreateContextApp4copyERKS_ @1537
    _ZN16CreateContextApp9setAppDIdEPKc @1538
    _ZN16CreateContextAppC1EPKcs @1539
    _ZN16CreateContextAppC1ERKS_ @1540
    _ZN16CreateContextAppC2EPKcs @1541
    _ZN16CreateContextAppC2ERKS_ @1542
    _ZN16CreateContextAppD0Ev @1543
    _ZN16CreateContextAppD1Ev @1544
    _ZN16CreateContextAppD2Ev @1545
    _ZN16CreateContextAppaSERKS_ @1546
    _ZN16DeleteAppMessage10setUeAppIDEi @1547
    _ZN16DeleteAppMessage12parsimUnpackEPN7omnetpp11cCommBufferE @1548
    _ZN16DeleteAppMessage12setTimestampEN7omnetpp7SimTimeE @1549
    _ZN16DeleteAppMessage13setSourcePortEi @1550
    _ZN16DeleteAppMessage14setRequiredCpuEd @1551
    _ZN16DeleteAppMessage14setRequiredRamEj @1552
    _ZN16DeleteAppMessage15setMEModuleNameEPKc @1553
    _ZN16DeleteAppMessage15setMEModuleTypeEPKc @1554
    _ZN16DeleteAppMessage15setRequiredDiskEj @1555
    _ZN16DeleteAppMessage16setSourceAddressEPKc @1556
    _ZN16DeleteAppMessage18setDestinationPortEi @1557
    _ZN16DeleteAppMessage18setRequiredServiceEPKc @1558
    _ZN16DeleteAppMessage21setDestinationAddressEPKc @1559
    _ZN16DeleteAppMessage24setDestinationMecAppPortEi @1560
    _ZN16DeleteAppMessage27setDestinationMecAppAddressEPKc @1561
    _ZN16DeleteAppMessage4copyERKS_ @1562
    _ZN16DeleteAppMessage6setSnoEj @1563
    _ZN16DeleteAppMessage7setTypeEPKc @1564
    _ZN16DeleteAppMessageC1ERKS_ @1565
    _ZN16DeleteAppMessageC1Ev @1566
    _ZN16DeleteAppMessageC2ERKS_ @1567
    _ZN16DeleteAppMessageC2Ev @1568
    _ZN16DeleteAppMessageD0Ev @1569
    _ZN16DeleteAppMessageD1Ev @1570
    _ZN16DeleteAppMessageD2Ev @1571
    _ZN16DeleteAppMessageaSERKS_ @1572
    _ZN16LocationResource10setBaseUriERKNSt7__cxx1112basic_stringIcSt11char_traitsIcESaIcEEE @1573
    _ZN16LocationResource9addBinderEP6Binder @1574
    _ZN16LocationResource9addEnodeBEPN7omnetpp7cModuleE @1575
    _ZN16LocationResource9addEnodeBERSt3setIPN7omnetpp7cModuleESt4lessIS3_ESaIS3_EE @1576
    _ZN16LocationResourceC1ERNSt7__cxx1112basic_stringIcSt11char_traitsIcESaIcEEERSt3setIPN7omnetpp7cModuleESt4lessISA_ESaISA_EEP6Binder @1577
    _ZN16LocationResourceC1Ev @1578
    _ZN16LocationResourceC2ERNSt7__cxx1112basic_stringIcSt11char_traitsIcESaIcEEERSt3setIPN7omnetpp7cModuleESt4lessISA_ESaISA_EEP6Binder @1579
    _ZN16LocationResourceC2Ev @1580
    _ZN16LocationResourceD0Ev @1581
    _ZN16LocationResourceD1Ev @1582
    _ZN16LocationResourceD2Ev @1583
    _ZN16LteAirFrame_Base12parsimUnpackEPN7omnetpp11cCommBufferE @1584
    _ZN16LteAirFrame_Base4copyERKS_ @1585
    _ZN16LteAirFrame_BaseC1EPKcs @1586
    _ZN16LteAirFrame_BaseC1ERKS_ @1587
    _ZN16LteAirFrame_BaseC2EPKcs @1588
    _ZN16LteAirFrame_BaseC2ERKS_ @1589
    _ZN16LteAirFrame_BaseD0Ev @1590
    _ZN16LteAirFrame_BaseD1Ev @1591
    _ZN16LteAirFrame_BaseD2Ev @1592
    _ZN16LteAirFrame_BaseaSERKS_ @1593
    _ZN16LteHarqProcessRx10extractPduEt @1594
    _ZN16LteHarqProcessRx11isEvaluatedEt @1595
    _ZN16LteHarqProcessRx13emptyUnitsIdsB5cxx11Ev @1596
    _ZN16LteHarqProcessRx13getByteLengthEt @1597
    _ZN16LteHarqProcessRx13getUnitStatusEt @1598
    _ZN16LteHarqProcessRx13resetCodewordEt @1599
    _ZN16LteHarqProcessRx14createFeedbackEt @1600
    _ZN16LteHarqProcessRx15getNumHarqUnitsEv @1601
    _ZN16LteHarqProcessRx16getProcessStatusEv @1602
    _ZN16LteHarqProcessRx17purgeCorruptedPduEt @1603
    _ZN16LteHarqProcessRx19isHarqProcessActiveEv @1604
    _ZN16LteHarqProcessRx7isEmptyEv @1605
    _ZN16LteHarqProcessRx9insertPduEtPN4inet6PacketE @1606
    _ZN16LteHarqProcessRx9isCorrectEt @1607
    _ZN16LteHarqProcessRxC1EhP10LteMacBase @1608
    _ZN16LteHarqProcessRxC2EhP10LteMacBase @1609
    _ZN16LteHarqProcessRxD0Ev @1610
    _ZN16LteHarqProcessRxD1Ev @1611
    _ZN16LteHarqProcessRxD2Ev @1612
    _ZN16LteHarqProcessTx10extractPduEt @1613
    _ZN16LteHarqProcessTx11isUnitEmptyEt @1614
    _ZN16LteHarqProcessTx11isUnitReadyEt @1615
    _ZN16LteHarqProcessTx11pduFeedbackE18HarqAcknowledgmentt @1616
    _ZN16LteHarqProcessTx12getPduLengthEt @1617
    _ZN16LteHarqProcessTx12isUnitMarkedEt @1618
    _ZN16LteHarqProcessTx12markSelectedEt @1619
    _ZN16LteHarqProcessTx13emptyUnitsIdsB5cxx11Ev @1620
    _ZN16LteHarqProcessTx13forceDropUnitEt @1621
    _ZN16LteHarqProcessTx13getUnitStatusEt @1622
    _ZN16LteHarqProcessTx13hasReadyUnitsEv @1623
    _ZN16LteHarqProcessTx13readyUnitsIdsB5cxx11Ev @1624
    _ZN16LteHarqProcessTx15getNumHarqUnitsEv @1625
    _ZN16LteHarqProcessTx16forceDropProcessEv @1626
    _ZN16LteHarqProcessTx16getProcessStatusEv @1627
    _ZN16LteHarqProcessTx16getTransmissionsEt @1628
    _ZN16LteHarqProcessTx16selectedUnitsIdsB5cxx11Ev @1629
    _ZN16LteHarqProcessTx19getOldestUnitTxTimeEv @1630
    _ZN16LteHarqProcessTx19isHarqProcessActiveEv @1631
    _ZN16LteHarqProcessTx6getPduEt @1632
    _ZN16LteHarqProcessTx7dropPduEt @1633
    _ZN16LteHarqProcessTx7isEmptyEv @1634
    _ZN16LteHarqProcessTx8getPduIdEt @1635
    _ZN16LteHarqProcessTx8selfNackEt @1636
    _ZN16LteHarqProcessTx9getTxTimeEt @1637
    _ZN16LteHarqProcessTx9insertPduEPN4inet6PacketEt @1638
    _ZN16LteHarqProcessTx9isDroppedEv @1639
    _ZN16LteHarqProcessTxC1EhjjP10LteMacBaseS1_ @1640
    _ZN16LteHarqProcessTxC2ERKS_ @1641
    _ZN16LteHarqProcessTxC2EhjjP10LteMacBaseS1_ @1642
    _ZN16LteHarqProcessTxC2Ev @1643
    _ZN16LteHarqProcessTxD0Ev @1644
    _ZN16LteHarqProcessTxD1Ev @1645
    _ZN16LteHarqProcessTxD2Ev @1646
    _ZN16LteHarqProcessTxaSERKS_ @1647
    _ZN16LteHarqUnitTxD2D10extractPduEv @1648
    _ZN16LteHarqUnitTxD2D11pduFeedbackE18HarqAcknowledgment @1649
    _ZN16LteHarqUnitTxD2DC1EhtP10LteMacBaseS1_ @1650
    _ZN16LteHarqUnitTxD2DC2EhtP10LteMacBaseS1_ @1651
    _ZN16LteHarqUnitTxD2DD0Ev @1652
    _ZN16LteHarqUnitTxD2DD1Ev @1653
    _ZN16LteHarqUnitTxD2DD2Ev @1654
    _ZN16LteMacSduRequest4copyERKS_ @1655
    _ZN16LteMacSduRequest7setLcidEt @1656
    _ZN16LteMacSduRequest7setUeIdEt @1657
    _ZN16LteMacSduRequestC2ERKS_ @1658
    _ZN16LteMacSduRequestC2Ev @1659
    _ZN16LteMacSduRequestD0Ev @1660
    _ZN16LteMacSduRequestD2Ev @1661
    _ZN16LtePdcpRrcEnbD2D10initializeEi @1662
    _ZN16LtePdcpRrcEnbD2D12fromDataPortEPN7omnetpp7cPacketE @1663
    _ZN16LtePdcpRrcEnbD2D13handleMessageEPN7omnetpp8cMessageE @1664
    _ZN16LtePdcpRrcEnbD2D23pdcpHandleD2DModeSwitchEt10LteD2DMode @1665
    _ZN16LtePdcpRrcEnbD2DC2Ev @1666
    _ZN16LtePdcpRrcEnbD2DD0Ev @1667
    _ZN16LtePdcpRrcEnbD2DD2Ev @1668
    _ZN16LtePhyFrameTableD2Ev @1669
    _ZN16LteRacDescriptorC1Ev @1670
    _ZN16LteRacDescriptorC2Ev @1671
    _ZN16LteRacDescriptorD0Ev @1672
    _ZN16LteRacDescriptorD1Ev @1673
    _ZN16LteRacDescriptorD2Ev @1674
    _ZN16LteRlcAmPdu_Base10setFirstSnEi @1675
    _ZN16LteRlcAmPdu_Base11setTxNumberEt @1676
    _ZN16LteRlcAmPdu_Base12parsimUnpackEPN7omnetpp11cCommBufferE @1677
    _ZN16LteRlcAmPdu_Base4copyERKS_ @1678
    _ZN16LteRlcAmPdu_Base9setAmTypeEt @1679
    _ZN16LteRlcAmPdu_Base9setLastSnEi @1680
    _ZN16LteRlcAmPdu_BaseC2ERKS_ @1681
    _ZN16LteRlcAmPdu_BaseC2Ev @1682
    _ZN16LteRlcAmPdu_BaseD0Ev @1683
    _ZN16LteRlcAmPdu_BaseD1Ev @1684
    _ZN16LteRlcAmPdu_BaseD2Ev @1685
    _ZN16LteRlcAmPdu_BaseaSERKS_ @1686
    _ZN16LteRlcPduNewData12parsimUnpackEPN7omnetpp11cCommBufferE @1687
    _ZN16LteRlcPduNewData4copyERKS_ @1688
    _ZN16LteRlcPduNewDataC1ERKS_ @1689
    _ZN16LteRlcPduNewDataC1Ev @1690
    _ZN16LteRlcPduNewDataC2ERKS_ @1691
    _ZN16LteRlcPduNewDataC2Ev @1692
    _ZN16LteRlcPduNewDataD0Ev @1693
    _ZN16LteRlcPduNewDataD1Ev @1694
    _ZN16LteRlcPduNewDataD2Ev @1695
    _ZN16LteRlcPduNewDataaSERKS_ @1696
    _ZN16LteSchedulerUeUl21getScheduledBytesListEv @1697
    _ZN16LteSchedulerUeUl8scheduleEv @1698
    _ZN16LteSchedulerUeUlC1EP8LteMacUed @1699
    _ZN16LteSchedulerUeUlC2EP8LteMacUed @1700
    _ZN16LteSchedulerUeUlD1Ev @1701
    _ZN16LteSchedulerUeUlD2Ev @1702
    _ZN16LteSchedulerUeUlaSERKS_ @1703
    _ZN16LteSummaryBuffer13createSummaryE11LteFeedback @1704
    _ZN16LteSummaryBuffer3putE11LteFeedback @1705
    _ZN16LteSummaryBufferC2ERKS_ @1706
    _ZN16LteSummaryBufferC2EhhjN7omnetpp7SimTimeES1_ @1707
    _ZN16LteSummaryBufferD2Ev @1708
    _ZN16LteSummaryBufferaSERKS_ @1709
    _ZN16MacBsrDescriptorC1Ev @1710
    _ZN16MacBsrDescriptorC2Ev @1711
    _ZN16MacBsrDescriptorD0Ev @1712
    _ZN16MacBsrDescriptorD1Ev @1713
    _ZN16MacBsrDescriptorD2Ev @1714
    _ZN16NRSchedulerGnbUl11rtxscheduleEdPSt6vectorI9BandLimitSaIS1_EE @1715
    _ZN16NRSchedulerGnbUl15updateHarqDescsEv @1716
    _ZN16NRSchedulerGnbUl16checkEligibilityEtRtd @1717
    _ZN16NRSchedulerGnbUlC2Ev @1718
    _ZN16NRSchedulerGnbUlD0Ev @1719
    _ZN16NRSchedulerGnbUlD2Ev @1720
    _ZN16PdcpRxWindowDesc5clearEj @1721
    _ZN16PdcpRxWindowDescC2Ev @1722
    _ZN16RemoteAntennaSet13RemoteAntennaC2ERKS0_ @1723
    _ZN16RemoteAntennaSet13RemoteAntennaC2Ev @1724
    _ZN16RemoteAntennaSet15getAntennaCoordEj @1725
    _ZN16RemoteAntennaSet16addRemoteAntennaEddd @1726
    _ZN16RemoteAntennaSet17getAntennaSetSizeEv @1727
    _ZN16RemoteAntennaSet17getAntennaTxPowerEj @1728
    _ZN16RemoteAntennaSetC2Ev @1729
    _ZN16RemoteAntennaSetD2Ev @1730
    _ZN16SubscriptionBase8fromJsonERKN8nlohmann10basic_jsonINS0_11ordered_mapESt6vectorNSt7__cxx1112basic_stringIcSt11char_traitsIcESaIcEEEbxydSaNS0_14adl_serializerES3_IhSaIhEEEE @1731
    _ZN16SubscriptionBase9addEnodeBEPN7omnetpp7cModuleE @1732
    _ZN16SubscriptionBase9addEnodeBERSt3setIPN7omnetpp7cModuleESt4lessIS3_ESaIS3_EE @1733
    _ZN16SubscriptionBase9set_linksERNSt7__cxx1112basic_stringIcSt11char_traitsIcESaIcEEE @1734
    _ZN16SubscriptionBaseC2EjPN4inet9TcpSocketERKNSt7__cxx1112basic_stringIcSt11char_traitsIcESaIcEEERSt3setIPN7omnetpp7cModuleESt4lessISE_ESaISE_EE @1735
    _ZN16SubscriptionBaseC2Ev @1736
    _ZN16SubscriptionBaseD0Ev @1737
    _ZN16SubscriptionBaseD1Ev @1738
    _ZN16SubscriptionBaseD2Ev @1739
    _ZN16TerminalLocationC1ERKNSt7__cxx1112basic_stringIcSt11char_traitsIcESaIcEEES7_RK15CurrentLocation @1740
    _ZN16TerminalLocationC1Ev @1741
    _ZN16TerminalLocationC2ERKNSt7__cxx1112basic_stringIcSt11char_traitsIcESaIcEEES7_RK15CurrentLocation @1742
    _ZN16TerminalLocationC2ERKS_ @1743
    _ZN16TerminalLocationC2Ev @1744
    _ZN16TerminalLocationD0Ev @1745
    _ZN16TerminalLocationD1Ev @1746
    _ZN16TerminalLocationD2Ev @1747
    _ZN16TxDirectionTableD2Ev @1748
    _ZN16UeStatsCollector10initializeEi @1749
    _ZN16UeStatsCollector10resetStatsEv @1750
    _ZN16UeStatsCollector13handleMessageEPN7omnetpp8cMessageE @1751
    _ZN16UeStatsCollector17getULDiscardedPktEv @1752
    _ZN16UeStatsCollector17get_dl_gbr_pdr_ueEv @1753
    _ZN16UeStatsCollector17get_ul_gbr_pdr_ueEv @1754
    _ZN16UeStatsCollector17resetDelayCounterEv @1755
    _ZN16UeStatsCollector19get_dl_gbr_delay_ueEv @1756
    _ZN16UeStatsCollector19get_ul_gbr_delay_ueEv @1757
    _ZN16UeStatsCollector20add_dl_nongbr_pdr_ueEd @1758
    _ZN16UeStatsCollector20add_ul_nongbr_pdr_ueEv @1759
    _ZN16UeStatsCollector20get_dl_nongbr_pdr_ueEv @1760
    _ZN16UeStatsCollector20get_ul_nongbr_pdr_ueEv @1761
    _ZN16UeStatsCollector22add_dl_nongbr_delay_ueEd @1762
    _ZN16UeStatsCollector22add_ul_nongbr_delay_ueEv @1763
    _ZN16UeStatsCollector22get_dl_nongbr_delay_ueEv @1764
    _ZN16UeStatsCollector22get_ul_nongbr_delay_ueEv @1765
    _ZN16UeStatsCollector24get_dl_gbr_throughput_ueEv @1766
    _ZN16UeStatsCollector24get_ul_gbr_throughput_ueEv @1767
    _ZN16UeStatsCollector25get_dl_gbr_data_volume_ueEv @1768
    _ZN16UeStatsCollector25get_ul_gbr_data_volume_ueEv @1769
    _ZN16UeStatsCollector27add_dl_nongbr_throughput_ueEd @1770
    _ZN16UeStatsCollector27add_ul_nongbr_throughput_ueEd @1771
    _ZN16UeStatsCollector27get_dl_nongbr_throughput_ueEv @1772
    _ZN16UeStatsCollector27get_ul_nongbr_throughput_ueEv @1773
    _ZN16UeStatsCollector28add_dl_nongbr_data_volume_ueEj @1774
    _ZN16UeStatsCollector28add_ul_nongbr_data_volume_ueEj @1775
    _ZN16UeStatsCollector28get_dl_nongbr_data_volume_ueEv @1776
    _ZN16UeStatsCollector28get_ul_nongbr_data_volume_ueEv @1777
    _ZN16UeStatsCollectorC1Ev @1778
    _ZN16UeStatsCollectorC2Ev @1779
    _ZN16UeStatsCollectorD0Ev @1780
    _ZN16UeStatsCollectorD2Ev @1781
    _ZN16WarningAppPacket12parsimUnpackEPN7omnetpp11cCommBufferE @1782
    _ZN16WarningAppPacket4copyERKS_ @1783
    _ZN16WarningAppPacketC1ERKS_ @1784
    _ZN16WarningAppPacketC1Ev @1785
    _ZN16WarningAppPacketC2ERKS_ @1786
    _ZN16WarningAppPacketC2Ev @1787
    _ZN16WarningAppPacketD0Ev @1788
    _ZN16WarningAppPacketD1Ev @1789
    _ZN16WarningAppPacketD2Ev @1790
    _ZN16WarningAppPacketaSERKS_ @1791
    _ZN16X2ControlInfoTag11setSourceIdEt @1792
    _ZN16X2ControlInfoTag12parsimUnpackEPN7omnetpp11cCommBufferE @1793
    _ZN16X2ControlInfoTag13setDestIdListERKNSt7__cxx114listItSaItEEE @1794
    _ZN16X2ControlInfoTag22getDestIdListForUpdateB5cxx11Ev @1795
    _ZN16X2ControlInfoTag4copyERKS_ @1796
    _ZN16X2ControlInfoTag7setInitEb @1797
    _ZN16X2ControlInfoTagC1ERKS_ @1798
    _ZN16X2ControlInfoTagC1Ev @1799
    _ZN16X2ControlInfoTagC2ERKS_ @1800
    _ZN16X2ControlInfoTagC2Ev @1801
    _ZN16X2ControlInfoTagD0Ev @1802
    _ZN16X2ControlInfoTagD1Ev @1803
    _ZN16X2ControlInfoTagD2Ev @1804
    _ZN16X2ControlInfoTagaSERKS_ @1805
    _ZN17BackgroundCellAmc13getItbsPerCqiEt9Direction @1806
    _ZN17BackgroundCellAmc17calculateMcsScaleEv @1807
    _ZN17BackgroundCellAmc26computeBitsPerRbBackgroundEt9Directiond @1808
    _ZN17BackgroundCellAmcC1Ev @1809
    _ZN17BackgroundCellAmcC2Ev @1810
    _ZN17BackgroundCellAmcD0Ev @1811
    _ZN17BackgroundCellAmcD1Ev @1812
    _ZN17BackgroundCellAmcD2Ev @1813
    _ZN17EventNotification7setTypeERKNSt7__cxx1112basic_stringIcSt11char_traitsIcESaIcEEE @1814
    _ZN17EventNotification8setSubIdEi @1815
    _ZN17EventNotificationC1ERKNSt7__cxx1112basic_stringIcSt11char_traitsIcESaIcEEERKi @1816
    _ZN17EventNotificationC1Ev @1817
    _ZN17EventNotificationC2ERKNSt7__cxx1112basic_stringIcSt11char_traitsIcESaIcEEERKi @1818
    _ZN17EventNotificationC2Ev @1819
    _ZN17EventNotificationD0Ev @1820
    _ZN17EventNotificationD1Ev @1821
    _ZN17EventNotificationD2Ev @1822
    _ZN17HttpMessageStatusC2Ev @1823
    _ZN17LteChannelControl10initializeEv @1824
    _ZN17LteChannelControl13sendToChannelEPN15IChannelControl10RadioEntryEP8AirFrame @1825
    _ZN17LteChannelControl14calcInterfDistEv @1826
    _ZN17LteChannelControlC2Ev @1827
    _ZN17LteChannelControlD0Ev @1828
    _ZN17LteChannelControlD1Ev @1829
    _ZN17LteChannelControlD2Ev @1830
    _ZN17LteMaxCiMultiband14commitScheduleEv @1831
    _ZN17LteMaxCiMultiband15prepareScheduleEv @1832
    _ZN17LteMaxCiMultibandC1Ev @1833
    _ZN17LteMaxCiMultibandD0Ev @1834
    _ZN17LteMaxCiMultibandD1Ev @1835
    _ZN17LteMaxCiMultibandD2Ev @1836
    _ZN17LteSchedulerEnbDl11racscheduleEdPSt6vectorI9BandLimitSaIS1_EE @1837
    _ZN17LteSchedulerEnbDl11rtxscheduleEdPSt6vectorI9BandLimitSaIS1_EE @1838
    _ZN17LteSchedulerEnbDl12getBandLimitEPSt6vectorI9BandLimitSaIS1_EEt @1839
    _ZN17LteSchedulerEnbDl13scheduleBgRtxEtdtPSt6vectorI9BandLimitSaIS1_EE6Remoteb @1840
    _ZN17LteSchedulerEnbDl16checkEligibilityEtRtd @1841
    _ZN17LteSchedulerEnbDl18schedulePerAcidRtxEtdthPSt6vectorI9BandLimitSaIS1_EE6Remoteb @1842
    _ZN17LteSchedulerEnbDl21rtxscheduleBackgroundEdPSt6vectorI9BandLimitSaIS1_EE @1843
    _ZN17LteSchedulerEnbDlC2Ev @1844
    _ZN17LteSchedulerEnbDlD0Ev @1845
    _ZN17LteSchedulerEnbDlD2Ev @1846
    _ZN17LteSchedulerEnbUl11racscheduleEdPSt6vectorI9BandLimitSaIS1_EE @1847
    _ZN17LteSchedulerEnbUl11rtxscheduleEdPSt6vectorI9BandLimitSaIS1_EE @1848
    _ZN17LteSchedulerEnbUl13scheduleBgRtxEtdtPSt6vectorI9BandLimitSaIS1_EE6Remoteb @1849
    _ZN17LteSchedulerEnbUl15updateHarqDescsEv @1850
    _ZN17LteSchedulerEnbUl16checkEligibilityEtRtd @1851
    _ZN17LteSchedulerEnbUl16removePendingRacEt @1852
    _ZN17LteSchedulerEnbUl18schedulePerAcidRtxEtdthPSt6vectorI9BandLimitSaIS1_EE6Remoteb @1853
    _ZN17LteSchedulerEnbUl21racscheduleBackgroundERjdPSt6vectorI9BandLimitSaIS2_EE @1854
    _ZN17LteSchedulerEnbUl21rtxscheduleBackgroundEdPSt6vectorI9BandLimitSaIS1_EE @1855
    _ZN17LteSchedulerEnbUl21schedulePerAcidRtxD2DEttdthPSt6vectorI9BandLimitSaIS1_EE6Remoteb @1856
    _ZN17LteSchedulerEnbUl9signalRacEtd @1857
    _ZN17LteSchedulerEnbUlC2Ev @1858
    _ZN17LteSchedulerEnbUlD0Ev @1859
    _ZN17LteSchedulerEnbUlD2Ev @1860
    _ZN17LteX2Message_Base11setSourceIdEj @1861
    _ZN17LteX2Message_Base12parsimUnpackEPN7omnetpp11cCommBufferE @1862
    _ZN17LteX2Message_Base16setDestinationIdEj @1863
    _ZN17LteX2Message_Base4copyERKS_ @1864
    _ZN17LteX2Message_BaseC1ERKS_ @1865
    _ZN17LteX2Message_BaseC1Ev @1866
    _ZN17LteX2Message_BaseC2ERKS_ @1867
    _ZN17LteX2Message_BaseC2Ev @1868
    _ZN17LteX2Message_BaseD0Ev @1869
    _ZN17LteX2Message_BaseD1Ev @1870
    _ZN17LteX2Message_BaseD2Ev @1871
    _ZN17LteX2Message_BaseaSERKS_ @1872
    _ZN17MacControlElement12parsimUnpackEPN7omnetpp11cCommBufferE @1873
    _ZN17MacControlElement12setTimestampEd @1874
    _ZN17MacControlElement4copyERKS_ @1875
    _ZN17MacControlElementC1ERKS_ @1876
    _ZN17MacControlElementC1Ev @1877
    _ZN17MacControlElementC2ERKS_ @1878
    _ZN17MacControlElementC2Ev @1879
    _ZN17MacControlElementD0Ev @1880
    _ZN17MacControlElementD1Ev @1881
    _ZN17MacControlElementD2Ev @1882
    _ZN17MacControlElementaSERKS_ @1883
    _ZN17MrwDescDescriptorC1Ev @1884
    _ZN17MrwDescDescriptorC2Ev @1885
    _ZN17MrwDescDescriptorD0Ev @1886
    _ZN17MrwDescDescriptorD1Ev @1887
    _ZN17MrwDescDescriptorD2Ev @1888
    _ZN17MultihopD2DPacket11setSrcCoordERKN4inet5CoordE @1889
    _ZN17MultihopD2DPacket12parsimUnpackEPN7omnetpp11cCommBufferE @1890
    _ZN17MultihopD2DPacket12setMaxRadiusEd @1891
    _ZN17MultihopD2DPacket14setPayloadSizeEj @1892
    _ZN17MultihopD2DPacket18setLastHopSenderIdEj @1893
    _ZN17MultihopD2DPacket19setPayloadTimestampEN7omnetpp7SimTimeE @1894
    _ZN17MultihopD2DPacket20getSrcCoordForUpdateEv @1895
    _ZN17MultihopD2DPacket4copyERKS_ @1896
    _ZN17MultihopD2DPacket6setTtlEi @1897
    _ZN17MultihopD2DPacket7setHopsEj @1898
    _ZN17MultihopD2DPacket8setMsgidEj @1899
    _ZN17MultihopD2DPacket8setSrcIdEj @1900
    _ZN17MultihopD2DPacketC1ERKS_ @1901
    _ZN17MultihopD2DPacketC1Ev @1902
    _ZN17MultihopD2DPacketC2ERKS_ @1903
    _ZN17MultihopD2DPacketC2Ev @1904
    _ZN17MultihopD2DPacketD0Ev @1905
    _ZN17MultihopD2DPacketD1Ev @1906
    _ZN17MultihopD2DPacketD2Ev @1907
    _ZN17MultihopD2DPacketaSERKS_ @1908
    _ZN17RemoteUnitPhyDataC2ERKS_ @1909
    _ZN17RemoteUnitPhyDataC2Ev @1910
    _ZN17RemoteUnitPhyDataaSERKS_ @1911
    _ZN17RlcUmRxWindowDesc5clearEj @1912
    _ZN17RlcUmRxWindowDescC2Ev @1913
    _ZN17ServiceDescriptorC2Ev @1914
    _ZN17ServiceDescriptorD2Ev @1915
    _ZN17SplitBearersTable10find_entryEjjt @1916
    _ZN17SplitBearersTable12create_entryEjjt @1917
    _ZN17SplitBearersTable9hash_funcEjjt @1918
    _ZN17SplitBearersTableC1Ev @1919
    _ZN17SplitBearersTableC2Ev @1920
    _ZN17SplitBearersTableD0Ev @1921
    _ZN17SplitBearersTableD1Ev @1922
    _ZN17SplitBearersTableD2Ev @1923
    _ZN17TrafficFlowFilter10initializeEi @1924
    _ZN17TrafficFlowFilter13handleMessageEPN7omnetpp8cMessageE @1925
    _ZN17TrafficFlowFilter15findTrafficFlowEN4inet9L3AddressES1_ @1926
    _ZN17TrafficFlowFilter15selectOwnerTypeEPKc @1927
    _ZN17TrafficFlowFilter6finishEv @1928
    _ZN17TrafficFlowFilterC2Ev @1929
    _ZN17TrafficFlowFilterD0Ev @1930
    _ZN17TrafficFlowFilterD2Ev @1931
    _ZN17UEWarningAlertApp10initializeEi @1932
    _ZN17UEWarningAlertApp13handleMessageEPN7omnetpp8cMessageE @1933
    _ZN17UEWarningAlertApp19sendMessageToMECAppEv @1934
    _ZN17UEWarningAlertApp25sendStopMEWarningAlertAppEv @1935
    _ZN17UEWarningAlertApp26sendStartMEWarningAlertAppEv @1936
    _ZN17UEWarningAlertApp27handleInfoMEWarningAlertAppEPN7omnetpp8cMessageE @1937
    _ZN17UEWarningAlertApp30handleAckStopMEWarningAlertAppEPN7omnetpp8cMessageE @1938
    _ZN17UEWarningAlertApp31handleAckStartMEWarningAlertAppEPN7omnetpp8cMessageE @1939
    _ZN17UEWarningAlertApp6finishEv @1940
    _ZN17UEWarningAlertAppC1Ev @1941
    _ZN17UEWarningAlertAppC2Ev @1942
    _ZN17UEWarningAlertAppD0Ev @1943
    _ZN17UEWarningAlertAppD1Ev @1944
    _ZN17UEWarningAlertAppD2Ev @1945
    _ZN17WarningStopPacket12parsimUnpackEPN7omnetpp11cCommBufferE @1946
    _ZN17WarningStopPacket4copyERKS_ @1947
    _ZN17WarningStopPacketC1ERKS_ @1948
    _ZN17WarningStopPacketC1Ev @1949
    _ZN17WarningStopPacketC2ERKS_ @1950
    _ZN17WarningStopPacketC2Ev @1951
    _ZN17WarningStopPacketD0Ev @1952
    _ZN17WarningStopPacketD1Ev @1953
    _ZN17WarningStopPacketD2Ev @1954
    _ZN17WarningStopPacketaSERKS_ @1955
    _ZN17X2HandoverDataMsgC2ERKS_ @1956
    _ZN17X2HandoverDataMsgC2Ev @1957
    _ZN17X2HandoverDataMsgD0Ev @1958
    _ZN17X2HandoverDataMsgD2Ev @1959
    _ZN17X2HandoverDataMsgaSERKS_ @1960
    _ZN18AirFrameDescriptorC1Ev @1961
    _ZN18AirFrameDescriptorC2Ev @1962
    _ZN18AirFrameDescriptorD0Ev @1963
    _ZN18AirFrameDescriptorD1Ev @1964
    _ZN18AirFrameDescriptorD2Ev @1965
    _ZN18HttpRequestMessage12addBodyChunkERKNSt7__cxx1112basic_stringIcSt11char_traitsIcESaIcEEE @1966
    _ZN18HttpRequestMessage14setHeaderFieldERKNSt7__cxx1112basic_stringIcSt11char_traitsIcESaIcEEES7_ @1967
    _ZN18HttpRequestMessage20setBackGroundRequestEb @1968
    _ZN18HttpRequestMessage24setLastBackGroundRequestEb @1969
    _ZN18HttpRequestMessage4copyERKS_ @1970
    _ZN18HttpRequestMessageC1ENSt7__cxx1112basic_stringIcSt11char_traitsIcESaIcEEEPKcs @1971
    _ZN18HttpRequestMessageC1EPKcS1_s @1972
    _ZN18HttpRequestMessageC1EPKcs @1973
    _ZN18HttpRequestMessageC2ENSt7__cxx1112basic_stringIcSt11char_traitsIcESaIcEEEPKcs @1974
    _ZN18HttpRequestMessageC2EPKcS1_s @1975
    _ZN18HttpRequestMessageC2EPKcs @1976
    _ZN18HttpRequestMessageC2ERKS_ @1977
    _ZN18HttpRequestMessageD0Ev @1978
    _ZN18HttpRequestMessageD2Ev @1979
    _ZN18L2MeasSubscription16sendNotificationEP17EventNotification @1980
    _ZN18L2MeasSubscription18handleSubscriptionEv @1981
    _ZN18L2MeasSubscription20FilterCriteriaL2MeasC2Ev @1982
    _ZN18L2MeasSubscription20FilterCriteriaL2MeasD2Ev @1983
    _ZN18L2MeasSubscription24sendSubscriptionResponseEv @1984
    _ZN18L2MeasSubscription8fromJsonERKN8nlohmann10basic_jsonINS0_11ordered_mapESt6vectorNSt7__cxx1112basic_stringIcSt11char_traitsIcESaIcEEEbxydSaNS0_14adl_serializerES3_IhSaIhEEEE @1985
    _ZN18L2MeasSubscriptionC1EjPN4inet9TcpSocketERKNSt7__cxx1112basic_stringIcSt11char_traitsIcESaIcEEERSt3setIPN7omnetpp7cModuleESt4lessISE_ESaISE_EE @1986
    _ZN18L2MeasSubscriptionC1Ev @1987
    _ZN18L2MeasSubscriptionC2EjPN4inet9TcpSocketERKNSt7__cxx1112basic_stringIcSt11char_traitsIcESaIcEEERSt3setIPN7omnetpp7cModuleESt4lessISE_ESaISE_EE @1988
    _ZN18L2MeasSubscriptionC2Ev @1989
    _ZN18L2MeasSubscriptionD0Ev @1990
    _ZN18L2MeasSubscriptionD1Ev @1991
    _ZN18L2MeasSubscriptionD2Ev @1992
    _ZN18LteCompManagerBase10initializeEv @1993
    _ZN18LteCompManagerBase13handleMessageEPN7omnetpp8cMessageE @1994
    _ZN18LteCompManagerBase14setUsableBandsERSt6vectorItSaItEE @1995
    _ZN18LteCompManagerBase15handleX2MessageEPN4inet6PacketE @1996
    _ZN18LteCompManagerBase17sendClientRequestEP15X2CompRequestIE @1997
    _ZN18LteCompManagerBase19runClientOperationsEv @1998
    _ZN18LteCompManagerBase20sendCoordinatorReplyEtP13X2CompReplyIE @1999
    _ZN18LteCompManagerBase24runCoordinatorOperationsEv @2000
    _ZN18LteCompManagerBaseC2Ev @2001
    _ZN18LteCompManagerBaseD0Ev @2002
    _ZN18LteCompManagerBaseD2Ev @2003
    _ZN18LteHandoverManager10initializeEv @2004
    _ZN18LteHandoverManager13handleMessageEPN7omnetpp8cMessageE @2005
    _ZN18LteHandoverManager15handleX2MessageEPN7omnetpp7cPacketE @2006
    _ZN18LteHandoverManager19sendHandoverCommandEttb @2007
    _ZN18LteHandoverManager22forwardDataToTargetEnbEPN4inet6PacketEt @2008
    _ZN18LteHandoverManager22receiveHandoverCommandEttb @2009
    _ZN18LteHandoverManager24receiveDataFromSourceEnbEPN4inet6PacketEt @2010
    _ZN18LteHandoverManagerC2Ev @2011
    _ZN18LteHandoverManagerD0Ev @2012
    _ZN18LteHandoverManagerD2Ev @2013
    _ZN18LteHarqBufferRxD2D12sendFeedbackEv @2014
    _ZN18LteHarqBufferRxD2D18extractCorrectPdusB5cxx11Ev @2015
    _ZN18LteHarqBufferRxD2D9insertPduEtPN4inet6PacketE @2016
    _ZN18LteHarqBufferRxD2DC1EjP10LteMacBasetb @2017
    _ZN18LteHarqBufferRxD2DC2EjP10LteMacBasetb @2018
    _ZN18LteHarqBufferRxD2DD0Ev @2019
    _ZN18LteHarqBufferRxD2DD1Ev @2020
    _ZN18LteHarqBufferRxD2DD2Ev @2021
    _ZN18LteHarqBufferTxD2D19receiveHarqFeedbackEP15LteHarqFeedback @2022
    _ZN18LteHarqBufferTxD2DC1EjP10LteMacBaseS1_ @2023
    _ZN18LteHarqBufferTxD2DC2EjP10LteMacBaseS1_ @2024
    _ZN18LteHarqBufferTxD2DD0Ev @2025
    _ZN18LteHarqBufferTxD2DD1Ev @2026
    _ZN18LteHarqBufferTxD2DD2Ev @2027
    _ZN18LteRlcDataPdu_Base12parsimUnpackEPN7omnetpp11cCommBufferE @2028
    _ZN18LteRlcDataPdu_Base4copyERKS_ @2029
    _ZN18LteRlcDataPdu_BaseC1ERKS_ @2030
    _ZN18LteRlcDataPdu_BaseC1Ev @2031
    _ZN18LteRlcDataPdu_BaseC2ERKS_ @2032
    _ZN18LteRlcDataPdu_BaseC2Ev @2033
    _ZN18LteRlcDataPdu_BaseD0Ev @2034
    _ZN18LteRlcDataPdu_BaseD1Ev @2035
    _ZN18LteRlcDataPdu_BaseD2Ev @2036
    _ZN18LteRlcDataPdu_BaseaSERKS_ @2037
    _ZN18LteSchedulingGrant12setDirectionE9Direction @2038
    _ZN18LteSchedulingGrant15setUserTxParamsEPK12UserTxParams @2039
    _ZN18LteSchedulingGrant16setGrantedBlocksERKSt3mapI6RemoteS0_ItjSt4lessItESaISt4pairIKtjEEES2_IS1_ESaIS4_IKS1_S8_EEE @2040
    _ZN18LteSchedulingGrant17setGrantedCwBytesEyj @2041
    _ZN18LteSchedulingGrant19eraseGrantedCwBytesEy @2042
    _ZN18LteSchedulingGrant20appendGrantedCwBytesEj @2043
    _ZN18LteSchedulingGrant20insertGrantedCwBytesEyj @2044
    _ZN18LteSchedulingGrant26setGrantedCwBytesArraySizeEy @2045
    _ZN18LteSchedulingGrant4copyERKS_ @2046
    _ZN18LteSchedulingGrantC2ERKS_ @2047
    _ZN18LteSchedulingGrantC2Ev @2048
    _ZN18LteSchedulingGrantD0Ev @2049
    _ZN18LteSchedulingGrantD2Ev @2050
    _ZN18LteSummaryFeedback5resetEv @2051
    _ZN18LteSummaryFeedback5setRiEt @2052
    _ZN18LteSummaryFeedback6setCqiEttt @2053
    _ZN18LteSummaryFeedback6setPmiEtt @2054
    _ZN18LteSummaryFeedbackC2ERKS_ @2055
    _ZN18LteSummaryFeedbackC2EhjN7omnetpp7SimTimeES1_ @2056
    _ZN18LteSummaryFeedbackD2Ev @2057
    _ZN18LteSummaryFeedbackaSERKS_ @2058
    _ZN18LteX2MsgSerializerC2Ev @2059
    _ZN18LteX2MsgSerializerD0Ev @2060
    _ZN18LteX2MsgSerializerD2Ev @2061
    _ZN18MECWarningAlertApp10initializeEi @2062
    _ZN18MECWarningAlertApp11establishedEi @2063
    _ZN18MECWarningAlertApp15handleUeMessageEPN7omnetpp8cMessageE @2064
    _ZN18MECWarningAlertApp16handleMp1MessageEi @2065
    _ZN18MECWarningAlertApp16sendSubscriptionEv @2066
    _ZN18MECWarningAlertApp17handleHttpMessageEi @2067
    _ZN18MECWarningAlertApp17handleSelfMessageEPN7omnetpp8cMessageE @2068
    _ZN18MECWarningAlertApp18modifySubscriptionEv @2069
    _ZN18MECWarningAlertApp20handleServiceMessageEi @2070
    _ZN18MECWarningAlertApp22handleProcessedMessageEPN7omnetpp8cMessageE @2071
    _ZN18MECWarningAlertApp22sendDeleteSubscriptionEv @2072
    _ZN18MECWarningAlertApp6finishEv @2073
    _ZN18MECWarningAlertAppC1Ev @2074
    _ZN18MECWarningAlertAppC2Ev @2075
    _ZN18MECWarningAlertAppD0Ev @2076
    _ZN18MECWarningAlertAppD1Ev @2077
    _ZN18MECWarningAlertAppD2Ev @2078
    _ZN18MecAppInstanceInfoC2Ev @2079
    _ZN18MecAppInstanceInfoD2Ev @2080
    _ZN18MecPlatformManager10initializeEi @2081
    _ZN18MecPlatformManager13handleMessageEPN7omnetpp8cMessageE @2082
    _ZN18MecPlatformManager14terminateMEAppEP16DeleteAppMessage @2083
    _ZN18MecPlatformManager16instantiateMEAppEP16CreateAppMessage @2084
    _ZN18MecPlatformManager22terminateEmulatedMEAppEP16DeleteAppMessage @2085
    _ZN18MecPlatformManager24instantiateEmulatedMEAppEP16CreateAppMessage @2086
    _ZN18MecPlatformManager6finishEv @2087
    _ZN18MecPlatformManagerC1Ev @2088
    _ZN18MecPlatformManagerC2Ev @2089
    _ZN18MecPlatformManagerD0Ev @2090
    _ZN18MecPlatformManagerD2Ev @2091
    _ZN18WarningAlertPacket12parsimUnpackEPN7omnetpp11cCommBufferE @2092
    _ZN18WarningAlertPacket12setPositionXEd @2093
    _ZN18WarningAlertPacket12setPositionYEd @2094
    _ZN18WarningAlertPacket12setPositionZEd @2095
    _ZN18WarningAlertPacket12setUeOmnetIDEi @2096
    _ZN18WarningAlertPacket19setPayloadTimestampEN7omnetpp7SimTimeE @2097
    _ZN18WarningAlertPacket4copyERKS_ @2098
    _ZN18WarningAlertPacket9setDangerEb @2099
    _ZN18WarningAlertPacketC1ERKS_ @2100
    _ZN18WarningAlertPacketC1Ev @2101
    _ZN18WarningAlertPacketC2ERKS_ @2102
    _ZN18WarningAlertPacketC2Ev @2103
    _ZN18WarningAlertPacketD0Ev @2104
    _ZN18WarningAlertPacketD1Ev @2105
    _ZN18WarningAlertPacketD2Ev @2106
    _ZN18WarningAlertPacketaSERKS_ @2107
    _ZN18WarningStartPacket12parsimUnpackEPN7omnetpp11cCommBufferE @2108
    _ZN18WarningStartPacket18setCenterPositionXEd @2109
    _ZN18WarningStartPacket18setCenterPositionYEd @2110
    _ZN18WarningStartPacket18setCenterPositionZEd @2111
    _ZN18WarningStartPacket19setPayloadTimestampEN7omnetpp7SimTimeE @2112
    _ZN18WarningStartPacket4copyERKS_ @2113
    _ZN18WarningStartPacket9setRadiusEd @2114
    _ZN18WarningStartPacketC1ERKS_ @2115
    _ZN18WarningStartPacketC1Ev @2116
    _ZN18WarningStartPacketC2ERKS_ @2117
    _ZN18WarningStartPacketC2Ev @2118
    _ZN18WarningStartPacketD0Ev @2119
    _ZN18WarningStartPacketD1Ev @2120
    _ZN18WarningStartPacketD2Ev @2121
    _ZN18WarningStartPacketaSERKS_ @2122
    _ZN19BackgroundCellAmcNr16getMcsElemPerCqiEt9Direction @2123
    _ZN19BackgroundCellAmcNr17getSymbolsPerSlotEd9Direction @2124
    _ZN19BackgroundCellAmcNr19computeTbsFromNinfoEdd @2125
    _ZN19BackgroundCellAmcNr19getResourceElementsEjj @2126
    _ZN19BackgroundCellAmcNr26computeBitsPerRbBackgroundEt9Directiond @2127
    _ZN19BackgroundCellAmcNr27getResourceElementsPerBlockEj @2128
    _ZN19BackgroundCellAmcNrC1Ev @2129
    _ZN19BackgroundCellAmcNrC2Ev @2130
    _ZN19BackgroundCellAmcNrD0Ev @2131
    _ZN19BackgroundCellAmcNrD1Ev @2132
    _ZN19BackgroundCellAmcNrD2Ev @2133
    _ZN19BackgroundScheduler10initializeEi @2134
    _ZN19BackgroundScheduler13getBandStatusEi9Direction @2135
    _ZN19BackgroundScheduler13handleMessageEPN7omnetpp8cMessageE @2136
    _ZN19BackgroundScheduler13receiveSignalEPN7omnetpp10cComponentEiPNS0_7cObjectES4_ @2137
    _ZN19BackgroundScheduler15getChannelModelEv @2138
    _ZN19BackgroundScheduler15resetAllocationE9Direction @2139
    _ZN19BackgroundScheduler16updateAllocationE9Direction @2140
    _ZN19BackgroundScheduler17getPrevBandStatusEi9Direction @2141
    _ZN19BackgroundScheduler20getBandInterferingUeEi @2142
    _ZN19BackgroundScheduler24getPrevBandInterferingUeEi @2143
    _ZN19BackgroundSchedulerC2Ev @2144
    _ZN19BackgroundSchedulerD0Ev @2145
    _ZN19BackgroundSchedulerD2Ev @2146
    _ZN19CbrPacketDescriptorC1Ev @2147
    _ZN19CbrPacketDescriptorC2Ev @2148
    _ZN19CbrPacketDescriptorD0Ev @2149
    _ZN19CbrPacketDescriptorD1Ev @2150
    _ZN19CbrPacketDescriptorD2Ev @2151
    _ZN19CreateContextAppAck10setSuccessEb @2152
    _ZN19CreateContextAppAck12parsimUnpackEPN7omnetpp11cCommBufferE @2153
    _ZN19CreateContextAppAck12setContextIdEi @2154
    _ZN19CreateContextAppAck16setAppInstanceIdEPKc @2155
    _ZN19CreateContextAppAck17setAppInstanceUriEPKc @2156
    _ZN19CreateContextAppAck4copyERKS_ @2157
    _ZN19CreateContextAppAckC1EPKcs @2158
    _ZN19CreateContextAppAckC1ERKS_ @2159
    _ZN19CreateContextAppAckC2EPKcs @2160
    _ZN19CreateContextAppAckC2ERKS_ @2161
    _ZN19CreateContextAppAckD0Ev @2162
    _ZN19CreateContextAppAckD1Ev @2163
    _ZN19CreateContextAppAckD2Ev @2164
    _ZN19CreateContextAppAckaSERKS_ @2165
    _ZN19DeviceAppStopPacket12parsimUnpackEPN7omnetpp11cCommBufferE @2166
    _ZN19DeviceAppStopPacket12setContextIdEPKc @2167
    _ZN19DeviceAppStopPacket4copyERKS_ @2168
    _ZN19DeviceAppStopPacketC1ERKS_ @2169
    _ZN19DeviceAppStopPacketC1Ev @2170
    _ZN19DeviceAppStopPacketC2ERKS_ @2171
    _ZN19DeviceAppStopPacketC2Ev @2172
    _ZN19DeviceAppStopPacketD0Ev @2173
    _ZN19DeviceAppStopPacketD1Ev @2174
    _ZN19DeviceAppStopPacketD2Ev @2175
    _ZN19DeviceAppStopPacketaSERKS_ @2176
    _ZN19HttpResponseMessage12addBodyChunkERKNSt7__cxx1112basic_stringIcSt11char_traitsIcESaIcEEE @2177
    _ZN19HttpResponseMessage14setHeaderFieldERKNSt7__cxx1112basic_stringIcSt11char_traitsIcESaIcEEES7_ @2178
    _ZN19HttpResponseMessage4copyERKS_ @2179
    _ZN19HttpResponseMessage9setStatusE18HttpResponseStatus @2180
    _ZN19HttpResponseMessage9setStatusEPKc @2181
    _ZN19HttpResponseMessageC1E18HttpResponseStatusPKcs @2182
    _ZN19HttpResponseMessageC1EPKcs @2183
    _ZN19HttpResponseMessageC2E18HttpResponseStatusPKcs @2184
    _ZN19HttpResponseMessageC2EPKcs @2185
    _ZN19HttpResponseMessageC2ERKS_ @2186
    _ZN19HttpResponseMessageD0Ev @2187
    _ZN19HttpResponseMessageD2Ev @2188
    _ZN19LteAllocationModule12getOFDMPlaneEt @2189
    _ZN19LteAllocationModule12rbOccupationEtRSt3mapI6RemoteS0_ItjSt4lessItESaISt4pairIKtjEEES2_IS1_ESaIS4_IKS1_S8_EEE @2190
    _ZN19LteAllocationModule12removeBlocksE6Remotett @2191
    _ZN19LteAllocationModule15availableBlocksEt5Planet @2192
    _ZN19LteAllocationModule15availableBlocksEt6Remotet @2193
    _ZN19LteAllocationModule15computeTotalRbsEv @2194
    _ZN19LteAllocationModule15storeAllocationESt6vectorIS0_ISt3mapIt23AllocatedRbsPerBandInfoSt4lessItESaISt4pairIKtS2_EEESaIS9_EESaISB_EEPSt3setItS4_SaItEE @2195
    _ZN19LteAllocationModule16setRemoteAntennaE5Plane6Remote @2196
    _ZN19LteAllocationModule18configureOFDMplaneE5Plane @2197
    _ZN19LteAllocationModule18getAllocatedBlocksE5Plane6Remotet @2198
    _ZN19LteAllocationModule21AllocatedRbsPerUeInfoC2Ev @2199
    _ZN19LteAllocationModule21AllocatedRbsPerUeInfoD2Ev @2200
    _ZN19LteAllocationModule21getInterferringBlocksE5Plane6Remotet @2201
    _ZN19LteAllocationModule22configureMuMimoPeeringEtt @2202
    _ZN19LteAllocationModule23AllocatedRbsPerBandInfoC2ERKS0_ @2203
    _ZN19LteAllocationModule23AllocatedRbsPerBandInfoC2Ev @2204
    _ZN19LteAllocationModule23AllocatedRbsPerBandInfoD2Ev @2205
    _ZN19LteAllocationModule23getAllocatedBlocksBeginEv @2206
    _ZN19LteAllocationModule25getAllocatorOccupiedBandsEv @2207
    _ZN19LteAllocationModule4initEjj @2208
    _ZN19LteAllocationModule5resetEjj @2209
    _ZN19LteAllocationModule8getBytesE6Remotett @2210
    _ZN19LteAllocationModule9addBlocksE6Remotettjj @2211
    _ZN19LteAllocationModule9addBlocksEttjj @2212
    _ZN19LteAllocationModule9getBlocksE6Remotett @2213
    _ZN19LteAllocationModuleC1EP9LteMacEnb9Direction @2214
    _ZN19LteAllocationModuleC2EP9LteMacEnb9Direction @2215
    _ZN19LteAllocationModuleD0Ev @2216
    _ZN19LteAllocationModuleD2Ev @2217
    _ZN19LteAllocatorBestFit12initAndResetEv @2218
    _ZN19LteAllocatorBestFit13checkConflictEPKSt3mapI8CGVertexS0_IS1_bSt4lessIS1_ESaISt4pairIKS1_bEEES3_SaIS4_IS5_S8_EEEtt @2219
    _ZN19LteAllocatorBestFit14commitScheduleEv @2220
    _ZN19LteAllocatorBestFit15prepareScheduleEv @2221
    _ZN19LteAllocatorBestFit17setAllocationTypeESt6vectorItSaItEE16AllocationUeTypet @2222
    _ZN19LteAllocatorBestFit9checkHoleER9Candidatetjj @2223
    _ZN19LteAllocatorBestFitC1Ev @2224
    _ZN19LteAllocatorBestFitC2Ev @2225
    _ZN19LteAllocatorBestFitD0Ev @2226
    _ZN19LteAllocatorBestFitD1Ev @2227
    _ZN19LteAllocatorBestFitD2Ev @2228
    _ZN19LteFeedbackPkt_Base12parsimUnpackEPN7omnetpp11cCommBufferE @2229
    _ZN19LteFeedbackPkt_Base4copyERKS_ @2230
    _ZN19LteFeedbackPkt_BaseC1ERKS_ @2231
    _ZN19LteFeedbackPkt_BaseC1Ev @2232
    _ZN19LteFeedbackPkt_BaseC2ERKS_ @2233
    _ZN19LteFeedbackPkt_BaseC2Ev @2234
    _ZN19LteFeedbackPkt_BaseD0Ev @2235
    _ZN19LteFeedbackPkt_BaseD1Ev @2236
    _ZN19LteFeedbackPkt_BaseD2Ev @2237
    _ZN19LteFeedbackPkt_BaseaSERKS_ @2238
    _ZN19LteHarqProcessRxD2D14createFeedbackEt @2239
    _ZN19LteHarqProcessRxD2D20createFeedbackMirrorEt @2240
    _ZN19LteHarqProcessRxD2DC1EhP10LteMacBase @2241
    _ZN19LteHarqProcessRxD2DC2EhP10LteMacBase @2242
    _ZN19LteHarqProcessRxD2DD0Ev @2243
    _ZN19LteHarqProcessRxD2DD1Ev @2244
    _ZN19LteHarqProcessRxD2DD2Ev @2245
    _ZN19LteHarqProcessTxD2D10extractPduEt @2246
    _ZN19LteHarqProcessTxD2DC1EhjjP10LteMacBaseS1_ @2247
    _ZN19LteHarqProcessTxD2DC2EhjjP10LteMacBaseS1_ @2248
    _ZN19LteHarqProcessTxD2DD0Ev @2249
    _ZN19LteHarqProcessTxD2DD1Ev @2250
    _ZN19LteHarqProcessTxD2DD2Ev @2251
    _ZN19LteMacPduDescriptorC1Ev @2252
    _ZN19LteMacPduDescriptorC2Ev @2253
    _ZN19LteMacPduDescriptorD0Ev @2254
    _ZN19LteMacPduDescriptorD1Ev @2255
    _ZN19LteMacPduDescriptorD2Ev @2256
    _ZN19LteRlcPduDescriptorC1Ev @2257
    _ZN19LteRlcPduDescriptorC2Ev @2258
    _ZN19LteRlcPduDescriptorD0Ev @2259
    _ZN19LteRlcPduDescriptorD1Ev @2260
    _ZN19LteRlcPduDescriptorD2Ev @2261
    _ZN19LteRlcSduDescriptorC1Ev @2262
    _ZN19LteRlcSduDescriptorC2Ev @2263
    _ZN19LteRlcSduDescriptorD0Ev @2264
    _ZN19LteRlcSduDescriptorD1Ev @2265
    _ZN19LteRlcSduDescriptorD2Ev @2266
    _ZN19M1MessageDescriptorC1Ev @2267
    _ZN19M1MessageDescriptorC2Ev @2268
    _ZN19M1MessageDescriptorD0Ev @2269
    _ZN19M1MessageDescriptorD1Ev @2270
    _ZN19M1MessageDescriptorD2Ev @2271
    _ZN19MECPacketDescriptorC1Ev @2272
    _ZN19MECPacketDescriptorC2Ev @2273
    _ZN19MECPacketDescriptorD0Ev @2274
    _ZN19MECPacketDescriptorD1Ev @2275
    _ZN19MECPacketDescriptorD2Ev @2276
    _ZN19PacketFlowManagerUe10clearStatsEv @2277
    _ZN19PacketFlowManagerUe10initializeEi @2278
    _ZN19PacketFlowManagerUe12clearAllLcidEv @2279
    _ZN19PacketFlowManagerUe12insertMacPduEN4inet12IntrusivePtrIK9LteMacPduEE @2280
    _ZN19PacketFlowManagerUe12insertRlcPduEtN4inet12IntrusivePtrI15LteRlcUmDataPduEE14RlcBurstStatus @2281
    _ZN19PacketFlowManagerUe13discardMacPduEN4inet12IntrusivePtrIK9LteMacPduEE @2282
    _ZN19PacketFlowManagerUe13discardRlcPduEtjb @2283
    _ZN19PacketFlowManagerUe13getDelayStatsEv @2284
    _ZN19PacketFlowManagerUe13insertPdcpSduEPN4inet6PacketE @2285
    _ZN19PacketFlowManagerUe13macPduArrivedEN4inet12IntrusivePtrIK9LteMacPduEE @2286
    _ZN19PacketFlowManagerUe14initPdcpStatusEPNS_16StatusDescriptorEjjRN7omnetpp7SimTimeE @2287
    _ZN19PacketFlowManagerUe15getDiscardedPktEv @2288
    _ZN19PacketFlowManagerUe16StatusDescriptorC2Ev @2289
    _ZN19PacketFlowManagerUe16StatusDescriptorD2Ev @2290
    _ZN19PacketFlowManagerUe16StatusDescriptoraSERKS0_ @2291
    _ZN19PacketFlowManagerUe17insertHarqProcessEtjj @2292
    _ZN19PacketFlowManagerUe17resetDelayCounterEv @2293
    _ZN19PacketFlowManagerUe6finishEv @2294
    _ZN19PacketFlowManagerUe8initLcidEtt @2295
    _ZN19PacketFlowManagerUe9checkLcidEt @2296
    _ZN19PacketFlowManagerUe9clearLcidEt @2297
    _ZN19PacketFlowManagerUeC1Ev @2298
    _ZN19PacketFlowManagerUeC2Ev @2299
    _ZN19PacketFlowManagerUeD0Ev @2300
    _ZN19PacketFlowManagerUeD1Ev @2301
    _ZN19PacketFlowManagerUeD2Ev @2302
    _ZN19SelectionPolicyBaseC2EP15MecOrchestrator @2303
    _ZN19SelectionPolicyBaseD0Ev @2304
    _ZN19SelectionPolicyBaseD2Ev @2305
    _ZN19TTimerMsgDescriptorC1Ev @2306
    _ZN19TTimerMsgDescriptorC2Ev @2307
    _ZN19TTimerMsgDescriptorD0Ev @2308
    _ZN19TTimerMsgDescriptorD1Ev @2309
    _ZN19TTimerMsgDescriptorD2Ev @2310
    _ZN19TrafficGeneratorCbr10getAvgLoadE9Direction @2311
    _ZN19TrafficGeneratorCbr10initializeEi @2312
    _ZN19TrafficGeneratorCbr15generateTrafficE9Direction @2313
    _ZN19TrafficGeneratorCbr21getNextGenerationTimeE9Direction @2314
    _ZN19TrafficGeneratorCbrC2Ev @2315
    _ZN19TrafficGeneratorCbrD0Ev @2316
    _ZN19TrafficGeneratorCbrD2Ev @2317
    _ZN19VoDPacketDescriptorC1Ev @2318
    _ZN19VoDPacketDescriptorC2Ev @2319
    _ZN19VoDPacketDescriptorD0Ev @2320
    _ZN19VoDPacketDescriptorD1Ev @2321
    _ZN19VoDPacketDescriptorD2Ev @2322
    _ZN19X2HandoverCommandIE15isStartHandoverEv @2323
    _ZN19X2HandoverCommandIE16setStartHandoverEv @2324
    _ZN19X2HandoverCommandIE7getUeIdEv @2325
    _ZN19X2HandoverCommandIE7setUeIdEt @2326
    _ZN19X2HandoverCommandIEC2ERKS_ @2327
    _ZN19X2HandoverCommandIEC2Ev @2328
    _ZN19X2HandoverCommandIED0Ev @2329
    _ZN19X2HandoverCommandIED2Ev @2330
    _ZN19X2HandoverCommandIEaSERKS_ @2331
    _ZN20ActiveUeNotification12parsimUnpackEPN7omnetpp11cCommBufferE @2332
    _ZN20ActiveUeNotification4copyERKS_ @2333
    _ZN20ActiveUeNotification8setIndexEi @2334
    _ZN20ActiveUeNotificationC1EPKcs @2335
    _ZN20ActiveUeNotificationC1ERKS_ @2336
    _ZN20ActiveUeNotificationC2EPKcs @2337
    _ZN20ActiveUeNotificationC2ERKS_ @2338
    _ZN20ActiveUeNotificationD0Ev @2339
    _ZN20ActiveUeNotificationD1Ev @2340
    _ZN20ActiveUeNotificationD2Ev @2341
    _ZN20ActiveUeNotificationaSERKS_ @2342
    _ZN20BgTrafficManagerInfoC2Ev @2343
    _ZN20BgTrafficManagerInfoD2Ev @2344
    _ZN20D2DModeSelectionBase10initializeEi @2345
    _ZN20D2DModeSelectionBase12FlowModeInfoC2Ev @2346
    _ZN20D2DModeSelectionBase13handleMessageEPN7omnetpp8cMessageE @2347
    _ZN20D2DModeSelectionBase15doModeSelectionEv @2348
    _ZN20D2DModeSelectionBase22doModeSwitchAtHandoverEtb @2349
    _ZN20D2DModeSelectionBase27sendModeSwitchNotificationsEv @2350
    _ZN20D2DModeSelectionBaseC2Ev @2351
    _ZN20D2DModeSelectionBaseD0Ev @2352
    _ZN20D2DModeSelectionBaseD2Ev @2353
    _ZN20DeviceAppStartPacket12parsimUnpackEPN7omnetpp11cCommBufferE @2354
    _ZN20DeviceAppStartPacket12setMecAppDIdEPKc @2355
    _ZN20DeviceAppStartPacket13setMecAppNameEPKc @2356
    _ZN20DeviceAppStartPacket17setMecAppProviderEPKc @2357
    _ZN20DeviceAppStartPacket19setAppPackageSourceEPKc @2358
    _ZN20DeviceAppStartPacket4copyERKS_ @2359
    _ZN20DeviceAppStartPacketC1ERKS_ @2360
    _ZN20DeviceAppStartPacketC1Ev @2361
    _ZN20DeviceAppStartPacketC2ERKS_ @2362
    _ZN20DeviceAppStartPacketC2Ev @2363
    _ZN20DeviceAppStartPacketD0Ev @2364
    _ZN20DeviceAppStartPacketD1Ev @2365
    _ZN20DeviceAppStartPacketD2Ev @2366
    _ZN20DeviceAppStartPacketaSERKS_ @2367
    _ZN20GtpUserMsgDescriptorC1Ev @2368
    _ZN20GtpUserMsgDescriptorC2Ev @2369
    _ZN20GtpUserMsgDescriptorD0Ev @2370
    _ZN20GtpUserMsgDescriptorD1Ev @2371
    _ZN20GtpUserMsgDescriptorD2Ev @2372
    _ZN20GtpUserMsgSerializerC2Ev @2373
    _ZN20GtpUserMsgSerializerD0Ev @2374
    _ZN20GtpUserMsgSerializerD2Ev @2375
    _ZN20HttpRequestMessage_m12parsimUnpackEPN7omnetpp11cCommBufferE @2376
    _ZN20HttpRequestMessage_m13setParametersEPKc @2377
    _ZN20HttpRequestMessage_m15setResponseTimeEd @2378
    _ZN20HttpRequestMessage_m4copyERKS_ @2379
    _ZN20HttpRequestMessage_m6setUriEPKc @2380
    _ZN20HttpRequestMessage_m7setHostEPKc @2381
    _ZN20HttpRequestMessage_m9setMethodEPKc @2382
    _ZN20HttpRequestMessage_mC1ERKS_ @2383
    _ZN20HttpRequestMessage_mC1Ev @2384
    _ZN20HttpRequestMessage_mC2ERKS_ @2385
    _ZN20HttpRequestMessage_mC2Ev @2386
    _ZN20HttpRequestMessage_mD0Ev @2387
    _ZN20HttpRequestMessage_mD1Ev @2388
    _ZN20HttpRequestMessage_mD2Ev @2389
    _ZN20HttpRequestMessage_maSERKS_ @2390
    _ZN20LteDummyChannelModel10initializeEi @2391
    _ZN20LteDummyChannelModel10isErrorDasEP11LteAirFrameP15UserControlInfo @2392
    _ZN20LteDummyChannelModel11getRSRP_D2DEP11LteAirFrameP15UserControlInfotN4inet5CoordE @2393
    _ZN20LteDummyChannelModel11getSINR_D2DEP11LteAirFrameP15UserControlInfotN4inet5CoordEt @2394
    _ZN20LteDummyChannelModel11getSINR_D2DEP11LteAirFrameP15UserControlInfotN4inet5CoordEtRKSt6vectorIdSaIdEE @2395
    _ZN20LteDummyChannelModel11isError_D2DEP11LteAirFrameP15UserControlInfoRKSt6vectorIdSaIdEE @2396
    _ZN20LteDummyChannelModel12getSINR_bgUeEP11LteAirFrameP15UserControlInfo @2397
    _ZN20LteDummyChannelModel14getAttenuationEt9DirectionN4inet5CoordEb @2398
    _ZN20LteDummyChannelModel15computePathLossEddb @2399
    _ZN20LteDummyChannelModel21getReceivedPower_bgUeEdN4inet5CoordES1_9Directionbt @2400
    _ZN20LteDummyChannelModel6getSIREP11LteAirFrameP15UserControlInfo @2401
    _ZN20LteDummyChannelModel7getRSRPEP11LteAirFrameP15UserControlInfo @2402
    _ZN20LteDummyChannelModel7getSINREP11LteAirFrameP15UserControlInfo @2403
    _ZN20LteDummyChannelModel7isErrorEP11LteAirFrameP15UserControlInfo @2404
    _ZN20LteDummyChannelModelC2Ev @2405
    _ZN20LteDummyChannelModelD0Ev @2406
    _ZN20LteDummyChannelModelD2Ev @2407
    _ZN20LtePdcpPduDescriptorC1Ev @2408
    _ZN20LtePdcpPduDescriptorC2Ev @2409
    _ZN20LtePdcpPduDescriptorD0Ev @2410
    _ZN20LtePdcpPduDescriptorD1Ev @2411
    _ZN20LtePdcpPduDescriptorD2Ev @2412
    _ZN20LteRohcPduDescriptorC1Ev @2413
    _ZN20LteRohcPduDescriptorC2Ev @2414
    _ZN20LteRohcPduDescriptorD0Ev @2415
    _ZN20LteRohcPduDescriptorD1Ev @2416
    _ZN20LteRohcPduDescriptorD2Ev @2417
    _ZN20PacketFlowManagerEnb10PacketLoss5clearEv @2418
    _ZN20PacketFlowManagerEnb10PacketLoss5resetEv @2419
    _ZN20PacketFlowManagerEnb10initializeEi @2420
    _ZN20PacketFlowManagerEnb11BurstStatusC2ERKS0_ @2421
    _ZN20PacketFlowManagerEnb11BurstStatusC2Ev @2422
    _ZN20PacketFlowManagerEnb11BurstStatusD2Ev @2423
    _ZN20PacketFlowManagerEnb11BurstStatusaSERKS0_ @2424
    _ZN20PacketFlowManagerEnb12clearAllLcidEv @2425
    _ZN20PacketFlowManagerEnb12insertMacPduEN4inet12IntrusivePtrIK9LteMacPduEE @2426
    _ZN20PacketFlowManagerEnb12insertRlcPduEtN4inet12IntrusivePtrI15LteRlcUmDataPduEE14RlcBurstStatus @2427
    _ZN20PacketFlowManagerEnb13discardMacPduEN4inet12IntrusivePtrIK9LteMacPduEE @2428
    _ZN20PacketFlowManagerEnb13discardRlcPduEtjb @2429
    _ZN20PacketFlowManagerEnb13getDataVolumeEt9Direction @2430
    _ZN20PacketFlowManagerEnb13insertPdcpSduEPN4inet6PacketE @2431
    _ZN20PacketFlowManagerEnb13macPduArrivedEN4inet12IntrusivePtrIK9LteMacPduEE @2432
    _ZN20PacketFlowManagerEnb14initPdcpStatusEPNS_16StatusDescriptorEjjRN7omnetpp7SimTimeE @2433
    _ZN20PacketFlowManagerEnb15getDiscardedPktEv @2434
    _ZN20PacketFlowManagerEnb15getPdpcLossRateEv @2435
    _ZN20PacketFlowManagerEnb15receivedPdcpSduEPN4inet6PacketE @2436
    _ZN20PacketFlowManagerEnb15resetDataVolumeEt @2437
    _ZN20PacketFlowManagerEnb15resetDataVolumeEt9Direction @2438
    _ZN20PacketFlowManagerEnb15ulMacPduArrivedEtj @2439
    _ZN20PacketFlowManagerEnb16StatusDescriptorC2Ev @2440
    _ZN20PacketFlowManagerEnb16StatusDescriptorD2Ev @2441
    _ZN20PacketFlowManagerEnb16StatusDescriptoraSERKS0_ @2442
    _ZN20PacketFlowManagerEnb17insertHarqProcessEtjj @2443
    _ZN20PacketFlowManagerEnb18getDelayStatsPerUeEt @2444
    _ZN20PacketFlowManagerEnb18removePdcpBurstRLCEPNS_16StatusDescriptorEjb @2445
    _ZN20PacketFlowManagerEnb18resetPdpcLossRatesEv @2446
    _ZN20PacketFlowManagerEnb20getDiscardedPktPerUeEt @2447
    _ZN20PacketFlowManagerEnb20getPdpcLossRatePerUeEt @2448
    _ZN20PacketFlowManagerEnb20getUlDelayStatsPerUeEt @2449
    _ZN20PacketFlowManagerEnb22resetDelayCounterPerUeEt @2450
    _ZN20PacketFlowManagerEnb22resetPdpcLossRatePerUeEt @2451
    _ZN20PacketFlowManagerEnb23getThroughputStatsPerUeEt @2452
    _ZN20PacketFlowManagerEnb24resetDiscardCounterPerUeEt @2453
    _ZN20PacketFlowManagerEnb24resetUlDelayCounterPerUeEt @2454
    _ZN20PacketFlowManagerEnb27resetThroughputCounterPerUeEt @2455
    _ZN20PacketFlowManagerEnb5GrantC2ERKS0_ @2456
    _ZN20PacketFlowManagerEnb6finishEv @2457
    _ZN20PacketFlowManagerEnb8deleteUeEt @2458
    _ZN20PacketFlowManagerEnb8initLcidEtt @2459
    _ZN20PacketFlowManagerEnb9checkLcidEt @2460
    _ZN20PacketFlowManagerEnb9clearLcidEt @2461
    _ZN20PacketFlowManagerEnb9grantSentEtj @2462
    _ZN20PacketFlowManagerEnbC1Ev @2463
    _ZN20PacketFlowManagerEnbC2Ev @2464
    _ZN20PacketFlowManagerEnbD0Ev @2465
    _ZN20PacketFlowManagerEnbD1Ev @2466
    _ZN20PacketFlowManagerEnbD2Ev @2467
    _ZN20SchedDisciplineTableD2Ev @2468
    _ZN20TrafficGeneratorBase10getAvgLoadE9Direction @2469
    _ZN20TrafficGeneratorBase10initializeEi @2470
    _ZN20TrafficGeneratorBase12consumeBytesEi9Directionb @2471
    _ZN20TrafficGeneratorBase13handleMessageEPN7omnetpp8cMessageE @2472
    _ZN20TrafficGeneratorBase13receiveSignalEPN7omnetpp10cComponentEiPNS0_7cObjectES4_ @2473
    _ZN20TrafficGeneratorBase14setCqiFromSinrEd9Direction @2474
    _ZN20TrafficGeneratorBase15generateTrafficE9Direction @2475
    _ZN20TrafficGeneratorBase15getBufferLengthE9Directionb @2476
    _ZN20TrafficGeneratorBase18updateMeasurementsEv @2477
    _ZN20TrafficGeneratorBase19collectMeasuredSinrEd9Direction @2478
    _ZN20TrafficGeneratorBase21getNextGenerationTimeE9Direction @2479
    _ZN20TrafficGeneratorBase5getIdEv @2480
    _ZN20TrafficGeneratorBase6getCqiE9Direction @2481
    _ZN20TrafficGeneratorBase8getCoordEv @2482
    _ZN20TrafficGeneratorBase8getTxPwrEv @2483
    _ZN20TrafficGeneratorBaseC1Ev @2484
    _ZN20TrafficGeneratorBaseC2Ev @2485
    _ZN20TrafficGeneratorBaseD0Ev @2486
    _ZN20TrafficGeneratorBaseD1Ev @2487
    _ZN20TrafficGeneratorBaseD2Ev @2488
    _ZN20TrafficLightMobility10initializeEi @2489
    _ZN20TrafficLightMobility16getTrafficLightsEv @2490
    _ZN20TrafficLightMobility25getOrientationAngleDegreeEv @2491
    _ZN20TrafficLightMobility4moveEv @2492
    _ZN20TrafficLightMobilityC1Ev @2493
    _ZN20TrafficLightMobilityC2Ev @2494
    _ZN20TrafficLightMobilityD0Ev @2495
    _ZN20TrafficLightMobilityD2Ev @2496
    _ZN20UserControlInfo_Base10setGrantIdEj @2497
    _ZN20UserControlInfo_Base10setTxPowerEd @2498
    _ZN20UserControlInfo_Base11setTxNumberEh @2499
    _ZN20UserControlInfo_Base12parsimUnpackEPN7omnetpp11cCommBufferE @2500
    _ZN20UserControlInfo_Base12setBlerValueEd @2501
    _ZN20UserControlInfo_Base12setFrameTypeEj @2502
    _ZN20UserControlInfo_Base13setD2dTxPowerEd @2503
    _ZN20UserControlInfo_Base14setIsBroadcastEb @2504
    _ZN20UserControlInfo_Base16setDeciderResultEb @2505
    _ZN20UserControlInfo_Base16setIsCorruptibleEb @2506
    _ZN20UserControlInfo_Base19setCarrierFrequencyEd @2507
    _ZN20UserControlInfo_Base21setTotalGrantedBlocksEj @2508
    _ZN20UserControlInfo_Base4copyERKS_ @2509
    _ZN20UserControlInfo_Base5setCwEh @2510
    _ZN20UserControlInfo_Base6setNdiEb @2511
    _ZN20UserControlInfo_Base7setAcidEh @2512
    _ZN20UserControlInfo_Base7setIsNrEb @2513
    _ZN20UserControlInfo_Base9setBlerThEd @2514
    _ZN20UserControlInfo_Base9setTxModeEt @2515
    _ZN20UserControlInfo_BaseC1ERKS_ @2516
    _ZN20UserControlInfo_BaseC1Ev @2517
    _ZN20UserControlInfo_BaseC2ERKS_ @2518
    _ZN20UserControlInfo_BaseC2Ev @2519
    _ZN20UserControlInfo_BaseD0Ev @2520
    _ZN20UserControlInfo_BaseD1Ev @2521
    _ZN20UserControlInfo_BaseD2Ev @2522
    _ZN20UserControlInfo_BaseaSERKS_ @2523
    _ZN20VoipPacketDescriptorC1Ev @2524
    _ZN20VoipPacketDescriptorC2Ev @2525
    _ZN20VoipPacketDescriptorD0Ev @2526
    _ZN20VoipPacketDescriptorD1Ev @2527
    _ZN20VoipPacketDescriptorD2Ev @2528
    _ZN20VoipPacketSerializerC2Ev @2529
    _ZN20VoipPacketSerializerD0Ev @2530
    _ZN20VoipPacketSerializerD2Ev @2531
    _ZN20X2HandoverControlMsgC1ERKS_ @2532
    _ZN20X2HandoverControlMsgC1Ev @2533
    _ZN20X2HandoverControlMsgC2ERKS_ @2534
    _ZN20X2HandoverControlMsgC2Ev @2535
    _ZN20X2HandoverControlMsgD0Ev @2536
    _ZN20X2HandoverControlMsgD1Ev @2537
    _ZN20X2HandoverControlMsgD2Ev @2538
    _ZN20X2HandoverControlMsgaSERKS_ @2539
    _ZN20X2InformationElementC2E24X2InformationElementType @2540
    _ZN20X2InformationElementC2ERKS_ @2541
    _ZN20X2InformationElementC2Ev @2542
    _ZN20X2InformationElementD0Ev @2543
    _ZN20X2InformationElementD2Ev @2544
    _ZN20X2InformationElementaSERKS_ @2545
    _ZN21AlertPacketDescriptorC1Ev @2546
    _ZN21AlertPacketDescriptorC2Ev @2547
    _ZN21AlertPacketDescriptorD0Ev @2548
    _ZN21AlertPacketDescriptorD1Ev @2549
    _ZN21AlertPacketDescriptorD2Ev @2550
    _ZN21AllocatedRbsPerUeInfoD2Ev @2551
    _ZN21ApplicationDescriptorC1EPKc @2552
    _ZN21ApplicationDescriptorC1ERKNSt7__cxx1112basic_stringIcSt11char_traitsIcESaIcEEES7_S7_S7_S7_RK18ResourceDescriptorSt6vectorIS5_SaIS5_EESD_ @2553
    _ZN21ApplicationDescriptorC2EPKc @2554
    _ZN21ApplicationDescriptorC2ERKNSt7__cxx1112basic_stringIcSt11char_traitsIcESaIcEEES7_S7_S7_S7_RK18ResourceDescriptorSt6vectorIS5_SaIS5_EESD_ @2555
    _ZN21ApplicationDescriptorC2Ev @2556
    _ZN21ApplicationDescriptorD2Ev @2557
    _ZN21ApplicationDescriptoraSERKS_ @2558
    _ZN21BurstPacketDescriptorC1Ev @2559
    _ZN21BurstPacketDescriptorC2Ev @2560
    _ZN21BurstPacketDescriptorD0Ev @2561
    _ZN21BurstPacketDescriptorD1Ev @2562
    _ZN21BurstPacketDescriptorD2Ev @2563
    _ZN21HttpResponseMessage_m12parsimUnpackEPN7omnetpp11cCommBufferE @2564
    _ZN21HttpResponseMessage_m4copyERKS_ @2565
    _ZN21HttpResponseMessage_m7setCodeEi @2566
    _ZN21HttpResponseMessage_m9setStatusEPKc @2567
    _ZN21HttpResponseMessage_mC1ERKS_ @2568
    _ZN21HttpResponseMessage_mC1Ev @2569
    _ZN21HttpResponseMessage_mC2ERKS_ @2570
    _ZN21HttpResponseMessage_mC2Ev @2571
    _ZN21HttpResponseMessage_mD0Ev @2572
    _ZN21HttpResponseMessage_mD1Ev @2573
    _ZN21HttpResponseMessage_mD2Ev @2574
    _ZN21HttpResponseMessage_maSERKS_ @2575
    _ZN21LteAirFrameDescriptorC1Ev @2576
    _ZN21LteAirFrameDescriptorC2Ev @2577
    _ZN21LteAirFrameDescriptorD0Ev @2578
    _ZN21LteAirFrameDescriptorD1Ev @2579
    _ZN21LteAirFrameDescriptorD2Ev @2580
    _ZN21LteHarqFeedbackMirror12parsimUnpackEPN7omnetpp11cCommBufferE @2581
    _ZN21LteHarqFeedbackMirror12setPduLengthEl @2582
    _ZN21LteHarqFeedbackMirror14setD2dSenderIdEl @2583
    _ZN21LteHarqFeedbackMirror16setD2dReceiverIdEl @2584
    _ZN21LteHarqFeedbackMirror4copyERKS_ @2585
    _ZN21LteHarqFeedbackMirrorC1ERKS_ @2586
    _ZN21LteHarqFeedbackMirrorC1Ev @2587
    _ZN21LteHarqFeedbackMirrorC2ERKS_ @2588
    _ZN21LteHarqFeedbackMirrorC2Ev @2589
    _ZN21LteHarqFeedbackMirrorD0Ev @2590
    _ZN21LteHarqFeedbackMirrorD1Ev @2591
    _ZN21LteHarqFeedbackMirrorD2Ev @2592
    _ZN21LteHarqFeedbackMirroraSERKS_ @2593
    _ZN21LteMacSduRequest_Base10setSduSizeEj @2594
    _ZN21LteMacSduRequest_Base12parsimUnpackEPN7omnetpp11cCommBufferE @2595
    _ZN21LteMacSduRequest_Base4copyERKS_ @2596
    _ZN21LteMacSduRequest_BaseC1ERKS_ @2597
    _ZN21LteMacSduRequest_BaseC1Ev @2598
    _ZN21LteMacSduRequest_BaseC2ERKS_ @2599
    _ZN21LteMacSduRequest_BaseC2Ev @2600
    _ZN21LteMacSduRequest_BaseD0Ev @2601
    _ZN21LteMacSduRequest_BaseD1Ev @2602
    _ZN21LteMacSduRequest_BaseD2Ev @2603
    _ZN21LteMacSduRequest_BaseaSERKS_ @2604
    _ZN21LteRlcAmPduDescriptorC1Ev @2605
    _ZN21LteRlcAmPduDescriptorC2Ev @2606
    _ZN21LteRlcAmPduDescriptorD0Ev @2607
    _ZN21LteRlcAmPduDescriptorD1Ev @2608
    _ZN21LteRlcAmPduDescriptorD2Ev @2609
    _ZN21LteRlcAmSduDescriptorC1Ev @2610
    _ZN21LteRlcAmSduDescriptorC2Ev @2611
    _ZN21LteRlcAmSduDescriptorD0Ev @2612
    _ZN21LteRlcAmSduDescriptorD1Ev @2613
    _ZN21LteRlcAmSduDescriptorD2Ev @2614
    _ZN21MEAppPacketDescriptorC1Ev @2615
    _ZN21MEAppPacketDescriptorC2Ev @2616
    _ZN21MEAppPacketDescriptorD0Ev @2617
    _ZN21MEAppPacketDescriptorD1Ev @2618
    _ZN21MEAppPacketDescriptorD2Ev @2619
    _ZN21MeasRepUeSubscription16sendNotificationEP17EventNotification @2620
    _ZN21MeasRepUeSubscription18handleSubscriptionEv @2621
    _ZN21MeasRepUeSubscription22FilterCriteriaAssocTriC2Ev @2622
    _ZN21MeasRepUeSubscription22FilterCriteriaAssocTriD2Ev @2623
    _ZN21MeasRepUeSubscription24sendSubscriptionResponseEv @2624
    _ZN21MeasRepUeSubscription8fromJsonERKN8nlohmann10basic_jsonINS0_11ordered_mapESt6vectorNSt7__cxx1112basic_stringIcSt11char_traitsIcESaIcEEEbxydSaNS0_14adl_serializerES3_IhSaIhEEEE @2625
    _ZN21MeasRepUeSubscriptionC1EjPN4inet9TcpSocketERKNSt7__cxx1112basic_stringIcSt11char_traitsIcESaIcEEERSt3setIPN7omnetpp7cModuleESt4lessISE_ESaISE_EE @2626
    _ZN21MeasRepUeSubscriptionC1Ev @2627
    _ZN21MeasRepUeSubscriptionC2EjPN4inet9TcpSocketERKNSt7__cxx1112basic_stringIcSt11char_traitsIcESaIcEEERSt3setIPN7omnetpp7cModuleESt4lessISE_ESaISE_EE @2628
    _ZN21MeasRepUeSubscriptionC2Ev @2629
    _ZN21MeasRepUeSubscriptionD0Ev @2630
    _ZN21MeasRepUeSubscriptionD1Ev @2631
    _ZN21MeasRepUeSubscriptionD2Ev @2632
    _ZN21MecHostSelectionBased15findBestMecHostERK21ApplicationDescriptor @2633
    _ZN21MecHostSelectionBasedC1EP15MecOrchestratori @2634
    _ZN21MecHostSelectionBasedC2EP15MecOrchestratori @2635
    _ZN21MecHostSelectionBasedD0Ev @2636
    _ZN21MecHostSelectionBasedD2Ev @2637
    _ZN21MultihopD2DStatistics10initializeEv @2638
    _ZN21MultihopD2DStatistics15ReceptionStatusC2EOS0_ @2639
    _ZN21MultihopD2DStatistics15ReceptionStatusC2ERKS0_ @2640
    _ZN21MultihopD2DStatistics15ReceptionStatusC2Ev @2641
    _ZN21MultihopD2DStatistics15recordReceptionEtjN7omnetpp7SimTimeEi @2642
    _ZN21MultihopD2DStatistics16TransmissionInfoC2Ev @2643
    _ZN21MultihopD2DStatistics17recordSentMessageEj @2644
    _ZN21MultihopD2DStatistics18recordNewBroadcastEjRSt3setItSt4lessItESaItEE @2645
    _ZN21MultihopD2DStatistics23recordSuppressedMessageEj @2646
    _ZN21MultihopD2DStatistics24recordDuplicateReceptionEj @2647
    _ZN21MultihopD2DStatistics6finishEv @2648
    _ZN21MultihopD2DStatisticsC2Ev @2649
    _ZN21MultihopD2DStatisticsD0Ev @2650
    _ZN21MultihopD2DStatisticsD2Ev @2651
    _ZN21PacketFlowManagerBase10PdcpStatusC2ERKS0_ @2652
    _ZN21PacketFlowManagerBase10PdcpStatusC2Ev @2653
    _ZN21PacketFlowManagerBase10initializeEi @2654
    _ZN21PacketFlowManagerBase13getNextRlcSnoEv @2655
    _ZN21PacketFlowManagerBase13insertPdcpSduEPN4inet6PacketE @2656
    _ZN21PacketFlowManagerBase14getNextPdcpSnoEv @2657
    _ZN21PacketFlowManagerBase15receivedPdcpSduEPN4inet6PacketE @2658
    _ZN21PacketFlowManagerBase15ulMacPduArrivedEtj @2659
    _ZN21PacketFlowManagerBase19resetDiscardCounterEv @2660
    _ZN21PacketFlowManagerBase6finishEv @2661
    _ZN21PacketFlowManagerBase9grantSentEtj @2662
    _ZN21PacketFlowManagerBaseC2Ev @2663
    _ZN21PacketFlowManagerBaseD0Ev @2664
    _ZN21PacketFlowManagerBaseD1Ev @2665
    _ZN21PacketFlowManagerBaseD2Ev @2666
    _ZN21ProcessingTimeMessage11setSocketIdEi @2667
    _ZN21ProcessingTimeMessage12parsimUnpackEPN7omnetpp11cCommBufferE @2668
    _ZN21ProcessingTimeMessage4copyERKS_ @2669
    _ZN21ProcessingTimeMessageC1EPKcs @2670
    _ZN21ProcessingTimeMessageC1ERKS_ @2671
    _ZN21ProcessingTimeMessageC2EPKcs @2672
    _ZN21ProcessingTimeMessageC2ERKS_ @2673
    _ZN21ProcessingTimeMessageD0Ev @2674
    _ZN21ProcessingTimeMessageD1Ev @2675
    _ZN21ProcessingTimeMessageD2Ev @2676
    _ZN21ProcessingTimeMessageaSERKS_ @2677
    _ZN21RlcFragDescDescriptorC1Ev @2678
    _ZN21RlcFragDescDescriptorC2Ev @2679
    _ZN21RlcFragDescDescriptorD0Ev @2680
    _ZN21RlcFragDescDescriptorD1Ev @2681
    _ZN21RlcFragDescDescriptorD2Ev @2682
    _ZN22DeviceAppStopAckPacket12parsimUnpackEPN7omnetpp11cCommBufferE @2683
    _ZN22DeviceAppStopAckPacket4copyERKS_ @2684
    _ZN22DeviceAppStopAckPacket9setReasonEPKc @2685
    _ZN22DeviceAppStopAckPacket9setResultEb @2686
    _ZN22DeviceAppStopAckPacketC1ERKS_ @2687
    _ZN22DeviceAppStopAckPacketC1Ev @2688
    _ZN22DeviceAppStopAckPacketC2ERKS_ @2689
    _ZN22DeviceAppStopAckPacketC2Ev @2690
    _ZN22DeviceAppStopAckPacketD0Ev @2691
    _ZN22DeviceAppStopAckPacketD1Ev @2692
    _ZN22DeviceAppStopAckPacketD2Ev @2693
    _ZN22DeviceAppStopAckPacketaSERKS_ @2694
    _ZN22LteDlFeedbackGenerator10initializeEi @2695
    _ZN22LteDlFeedbackGenerator12initCellInfoEv @2696
    _ZN22LteDlFeedbackGenerator12sendFeedbackESt6vectorIS0_I11LteFeedbackSaIS1_EESaIS3_EE13FbPeriodicity @2697
    _ZN22LteDlFeedbackGenerator13handleMessageEPN7omnetpp8cMessageE @2698
    _ZN22LteDlFeedbackGenerator14handleHandoverEt @2699
    _ZN22LteDlFeedbackGenerator16aperiodicRequestEv @2700
    _ZN22LteDlFeedbackGenerator30getFeedbackComputationFromNameENSt7__cxx1112basic_stringIcSt11char_traitsIcESaIcEEERSt3mapIS5_N7omnetpp7cMsgParESt4lessIS5_ESaISt4pairIKS5_S8_EEE @2701
    _ZN22LteDlFeedbackGenerator7sensingE13FbPeriodicity @2702
    _ZN22LteDlFeedbackGenerator9setTxModeE6TxMode @2703
    _ZN22LteDlFeedbackGeneratorC1Ev @2704
    _ZN22LteDlFeedbackGeneratorC2Ev @2705
    _ZN22LteDlFeedbackGeneratorD0Ev @2706
    _ZN22LteDlFeedbackGeneratorD1Ev @2707
    _ZN22LteDlFeedbackGeneratorD2Ev @2708
    _ZN22LteFeedbackComputationC2Ev @2709
    _ZN22LteFeedbackComputationD0Ev @2710
    _ZN22LteFeedbackComputationD1Ev @2711
    _ZN22LteFeedbackComputationD2Ev @2712
    _ZN22LteHarqBufferMirrorD2D10getProcessEi @2713
    _ZN22LteHarqBufferMirrorD2D12getProcessesEv @2714
    _ZN22LteHarqBufferMirrorD2D19receiveHarqFeedbackEPN4inet6PacketE @2715
    _ZN22LteHarqBufferMirrorD2D21markSelectedAsWaitingEv @2716
    _ZN22LteHarqBufferMirrorD2DC1EjhP9LteMacEnb @2717
    _ZN22LteHarqBufferMirrorD2DC2EjhP9LteMacEnb @2718
    _ZN22LteHarqBufferMirrorD2DD0Ev @2719
    _ZN22LteHarqBufferMirrorD2DD1Ev @2720
    _ZN22LteHarqBufferMirrorD2DD2Ev @2721
    _ZN22LteX2MessageDescriptorC1Ev @2722
    _ZN22LteX2MessageDescriptorC2Ev @2723
    _ZN22LteX2MessageDescriptorD0Ev @2724
    _ZN22LteX2MessageDescriptorD1Ev @2725
    _ZN22LteX2MessageDescriptorD2Ev @2726
    _ZN22MECOrchestratorMessage10setSuccessEb @2727
    _ZN22MECOrchestratorMessage12parsimUnpackEPN7omnetpp11cCommBufferE @2728
    _ZN22MECOrchestratorMessage12setContextIdEi @2729
    _ZN22MECOrchestratorMessage12setRequestIdEi @2730
    _ZN22MECOrchestratorMessage4copyERKS_ @2731
    _ZN22MECOrchestratorMessage7setTypeEPKc @2732
    _ZN22MECOrchestratorMessageC1EPKcs @2733
    _ZN22MECOrchestratorMessageC1ERKS_ @2734
    _ZN22MECOrchestratorMessageC2EPKcs @2735
    _ZN22MECOrchestratorMessageC2ERKS_ @2736
    _ZN22MECOrchestratorMessageD0Ev @2737
    _ZN22MECOrchestratorMessageD1Ev @2738
    _ZN22MECOrchestratorMessageD2Ev @2739
    _ZN22MECOrchestratorMessageaSERKS_ @2740
    _ZN22RTVideoStreamingSender10initializeEi @2741
    _ZN22RTVideoStreamingSender11sendMessageEv @2742
    _ZN22RTVideoStreamingSender13handleMessageEPN7omnetpp8cMessageE @2743
    _ZN22RTVideoStreamingSender13handleStopAckEPN7omnetpp8cMessageE @2744
    _ZN22RTVideoStreamingSender14handleStartAckEPN7omnetpp8cMessageE @2745
    _ZN22RTVideoStreamingSender14handleStopNackEPN7omnetpp8cMessageE @2746
    _ZN22RTVideoStreamingSender14openFileStreamEv @2747
    _ZN22RTVideoStreamingSender14sendStopMECAppEv @2748
    _ZN22RTVideoStreamingSender15handleStartNackEPN7omnetpp8cMessageE @2749
    _ZN22RTVideoStreamingSender15sendStartMECAppEv @2750
    _ZN22RTVideoStreamingSender15sendStopMessageEv @2751
    _ZN22RTVideoStreamingSender16handleInfoMECAppEPN7omnetpp8cMessageE @2752
    _ZN22RTVideoStreamingSender16sendStartMessageEv @2753
    _ZN22RTVideoStreamingSender19handleAckStopMECAppEPN7omnetpp8cMessageE @2754
    _ZN22RTVideoStreamingSender20handleAckStartMECAppEPN7omnetpp8cMessageE @2755
    _ZN22RTVideoStreamingSender20handleStopSessionAckEPN7omnetpp8cMessageE @2756
    _ZN22RTVideoStreamingSender21handleStartSessionAckEPN7omnetpp8cMessageE @2757
    _ZN22RTVideoStreamingSender21handleStopSessionNackEPN7omnetpp8cMessageE @2758
    _ZN22RTVideoStreamingSender21initializeVideoStreamEv @2759
    _ZN22RTVideoStreamingSender22handleStartSessionNackEPN7omnetpp8cMessageE @2760
    _ZN22RTVideoStreamingSender22sendSessionStopMessageEv @2761
    _ZN22RTVideoStreamingSender23sendSessionStartMessageEv @2762
    _ZN22RTVideoStreamingSender6finishEv @2763
    _ZN22RTVideoStreamingSenderC1Ev @2764
    _ZN22RTVideoStreamingSenderC2Ev @2765
    _ZN22RTVideoStreamingSenderD0Ev @2766
    _ZN22RTVideoStreamingSenderD1Ev @2767
    _ZN22RTVideoStreamingSenderD2Ev @2768
    _ZN22TrafficLightController10initializeEi @2769
    _ZN22TrafficLightController11getPositionEv @2770
    _ZN22TrafficLightController11isSameAngleEN4inet5CoordENS0_5units5valueIdNS2_6fscaleINS2_5units3radEXadL_ZNS5_12rad2degScaleEvEEEEEEb @2771
    _ZN22TrafficLightController12initDrawLineEv @2772
    _ZN22TrafficLightController13handleMessageEPN7omnetpp8cMessageE @2773
    _ZN22TrafficLightController13isApproachingEN4inet5CoordENS0_5units5valueIdNS2_6fscaleINS2_5units3radEXadL_ZNS5_12rad2degScaleEvEEEEEE @2774
    _ZN22TrafficLightController16isInStraightLineEN4inet5CoordE @2775
    _ZN22TrafficLightController17isTrafficLightRedEiN4inet5CoordENS0_5units5valueIdNS2_6fscaleINS2_5units3radEXadL_ZNS5_12rad2degScaleEvEEEEEE @2776
    _ZN22TrafficLightController20isInTrafficLightAreaEN4inet5CoordENS0_5units5valueIdNS2_6fscaleINS2_5units3radEXadL_ZNS5_12rad2degScaleEvEEEEEE @2777
    _ZN22TrafficLightController8drawRectEv @2778
    _ZN22TrafficLightControllerC1Ev @2779
    _ZN22TrafficLightControllerC2Ev @2780
    _ZN22TrafficLightControllerD0Ev @2781
    _ZN22TrafficLightControllerD1Ev @2782
    _ZN22TrafficLightControllerD2Ev @2783
    _ZN23AllocatedRbsPerBandInfoC2ERKS_ @2784
    _ZN23AllocatedRbsPerBandInfoC2Ev @2785
    _ZN23AllocatedRbsPerBandInfoD2Ev @2786
    _ZN23CircleNotificationEventC1ERKNSt7__cxx1112basic_stringIcSt11char_traitsIcESaIcEEERKiRKSt6vectorI16TerminalLocationSaISB_EE @2787
    _ZN23CircleNotificationEventC1Ev @2788
    _ZN23CircleNotificationEventC2ERKNSt7__cxx1112basic_stringIcSt11char_traitsIcESaIcEEERKiRKSt6vectorI16TerminalLocationSaISB_EE @2789
    _ZN23CircleNotificationEventC2Ev @2790
    _ZN23CircleNotificationEventD0Ev @2791
    _ZN23CircleNotificationEventD1Ev @2792
    _ZN23CircleNotificationEventD2Ev @2793
    _ZN23CreateContextAppMessage13setAppContextERN8nlohmann10basic_jsonISt3mapSt6vectorNSt7__cxx1112basic_stringIcSt11char_traitsIcESaIcEEEbxydSaNS0_14adl_serializerES3_IhSaIhEEEE @2794
    _ZN23CreateContextAppMessage4copyERKS_ @2795
    _ZN23CreateContextAppMessageC1EPKcs @2796
    _ZN23CreateContextAppMessageC1ERKS_ @2797
    _ZN23CreateContextAppMessageC2EPKcs @2798
    _ZN23CreateContextAppMessageC2ERKS_ @2799
    _ZN23CreateContextAppMessageD0Ev @2800
    _ZN23CreateContextAppMessageD1Ev @2801
    _ZN23CreateContextAppMessageD2Ev @2802
    _ZN23CreateContextAppMessageaSERKS_ @2803
    _ZN23D2DModeSelectionBestCqi10initializeEi @2804
    _ZN23D2DModeSelectionBestCqi15doModeSelectionEv @2805
    _ZN23D2DModeSelectionBestCqi22doModeSwitchAtHandoverEtb @2806
    _ZN23D2DModeSelectionBestCqiC2Ev @2807
    _ZN23D2DModeSelectionBestCqiD0Ev @2808
    _ZN23D2DModeSelectionBestCqiD2Ev @2809
    _ZN23DeleteContextAppMessage12parsimUnpackEPN7omnetpp11cCommBufferE @2810
    _ZN23DeleteContextAppMessage12setContextIdEi @2811
    _ZN23DeleteContextAppMessage4copyERKS_ @2812
    _ZN23DeleteContextAppMessageC1EPKcs @2813
    _ZN23DeleteContextAppMessageC1ERKS_ @2814
    _ZN23DeleteContextAppMessageC2EPKcs @2815
    _ZN23DeleteContextAppMessageC2ERKS_ @2816
    _ZN23DeleteContextAppMessageD0Ev @2817
    _ZN23DeleteContextAppMessageD1Ev @2818
    _ZN23DeleteContextAppMessageD2Ev @2819
    _ZN23DeleteContextAppMessageaSERKS_ @2820
    _ZN23DeviceAppStartAckPacket12parsimUnpackEPN7omnetpp11cCommBufferE @2821
    _ZN23DeviceAppStartAckPacket12setContextIdEPKc @2822
    _ZN23DeviceAppStartAckPacket12setIpAddressEPKc @2823
    _ZN23DeviceAppStartAckPacket4copyERKS_ @2824
    _ZN23DeviceAppStartAckPacket7setPortEi @2825
    _ZN23DeviceAppStartAckPacket9setReasonEPKc @2826
    _ZN23DeviceAppStartAckPacket9setResultEb @2827
    _ZN23DeviceAppStartAckPacketC1ERKS_ @2828
    _ZN23DeviceAppStartAckPacketC1Ev @2829
    _ZN23DeviceAppStartAckPacketC2ERKS_ @2830
    _ZN23DeviceAppStartAckPacketC2Ev @2831
    _ZN23DeviceAppStartAckPacketD0Ev @2832
    _ZN23DeviceAppStartAckPacketD1Ev @2833
    _ZN23DeviceAppStartAckPacketD2Ev @2834
    _ZN23DeviceAppStartAckPacketaSERKS_ @2835
    _ZN23DualConnectivityManager10initializeEv @2836
    _ZN23DualConnectivityManager13handleMessageEPN7omnetpp8cMessageE @2837
    _ZN23DualConnectivityManager15handleX2MessageEPN7omnetpp8cMessageE @2838
    _ZN23DualConnectivityManager23forwardDataToTargetNodeEPN4inet6PacketEt @2839
    _ZN23DualConnectivityManager25receiveDataFromSourceNodeEPN4inet6PacketEt @2840
    _ZN23DualConnectivityManagerC2Ev @2841
    _ZN23DualConnectivityManagerD0Ev @2842
    _ZN23DualConnectivityManagerD2Ev @2843
    _ZN23LteHarqProcessMirrorD2D11markWaitingEt @2844
    _ZN23LteHarqProcessMirrorD2D12getPduLengthEt @2845
    _ZN23LteHarqProcessMirrorD2D12markSelectedEt @2846
    _ZN23LteHarqProcessMirrorD2D13getUnitStatusEt @2847
    _ZN23LteHarqProcessMirrorD2D13storeFeedbackE18HarqAcknowledgmentxtdt @2848
    _ZN23LteHarqProcessMirrorD2D16getProcessStatusEv @2849
    _ZN23LteHarqProcessMirrorD2DC1EjhP9LteMacEnb @2850
    _ZN23LteHarqProcessMirrorD2DC2EjhP9LteMacEnb @2851
    _ZN23LteHarqProcessMirrorD2DD0Ev @2852
    _ZN23LteHarqProcessMirrorD2DD1Ev @2853
    _ZN23LteHarqProcessMirrorD2DD2Ev @2854
    _ZN23LteRlcDataPduDescriptorC1Ev @2855
    _ZN23LteRlcDataPduDescriptorC2Ev @2856
    _ZN23LteRlcDataPduDescriptorD0Ev @2857
    _ZN23LteRlcDataPduDescriptorD1Ev @2858
    _ZN23LteRlcDataPduDescriptorD2Ev @2859
    _ZN23LteSchedulingGrant_Base11setPeriodicEb @2860
    _ZN23LteSchedulingGrant_Base12parsimUnpackEPN7omnetpp11cCommBufferE @2861
    _ZN23LteSchedulingGrant_Base12setCodewordsEj @2862
    _ZN23LteSchedulingGrant_Base13setExpirationEj @2863
    _ZN23LteSchedulingGrant_Base21setTotalGrantedBlocksEj @2864
    _ZN23LteSchedulingGrant_Base4copyERKS_ @2865
    _ZN23LteSchedulingGrant_Base9setPeriodEj @2866
    _ZN23LteSchedulingGrant_BaseC2ERKS_ @2867
    _ZN23LteSchedulingGrant_BaseC2Ev @2868
    _ZN23LteSchedulingGrant_BaseD0Ev @2869
    _ZN23LteSchedulingGrant_BaseD1Ev @2870
    _ZN23LteSchedulingGrant_BaseD2Ev @2871
    _ZN23LteSchedulingGrant_BaseaSERKS_ @2872
    _ZN23MecRequestBackgroundApp10initializeEi @2873
    _ZN23MecRequestBackgroundApp11establishedEi @2874
    _ZN23MecRequestBackgroundApp11sendRequestEv @2875
    _ZN23MecRequestBackgroundApp15handleUeMessageEPN7omnetpp8cMessageE @2876
    _ZN23MecRequestBackgroundApp16handleMp1MessageEi @2877
    _ZN23MecRequestBackgroundApp17handleHttpMessageEi @2878
    _ZN23MecRequestBackgroundApp17handleSelfMessageEPN7omnetpp8cMessageE @2879
    _ZN23MecRequestBackgroundApp20handleServiceMessageEi @2880
    _ZN23MecRequestBackgroundApp6finishEv @2881
    _ZN23MecRequestBackgroundAppC1Ev @2882
    _ZN23MecRequestBackgroundAppC2Ev @2883
    _ZN23MecRequestBackgroundAppD0Ev @2884
    _ZN23MecRequestBackgroundAppD1Ev @2885
    _ZN23MecRequestBackgroundAppD2Ev @2886
    _ZN23MecRequestForegroundApp10initializeEi @2887
    _ZN23MecRequestForegroundApp11establishedEi @2888
    _ZN23MecRequestForegroundApp11sendRequestEv @2889
    _ZN23MecRequestForegroundApp15handleUeMessageEPN7omnetpp8cMessageE @2890
    _ZN23MecRequestForegroundApp16handleMp1MessageEi @2891
    _ZN23MecRequestForegroundApp17handleHttpMessageEi @2892
    _ZN23MecRequestForegroundApp17handleSelfMessageEPN7omnetpp8cMessageE @2893
    _ZN23MecRequestForegroundApp20handleServiceMessageEi @2894
    _ZN23MecRequestForegroundAppC2Ev @2895
    _ZN23MecRequestForegroundAppD0Ev @2896
    _ZN23MecRequestForegroundAppD1Ev @2897
    _ZN23MecRequestForegroundAppD2Ev @2898
    _ZN23RlcWindowDescDescriptorC1Ev @2899
    _ZN23RlcWindowDescDescriptorC2Ev @2900
    _ZN23RlcWindowDescDescriptorD0Ev @2901
    _ZN23RlcWindowDescDescriptorD1Ev @2902
    _ZN23RlcWindowDescDescriptorD2Ev @2903
    _ZN23UALCMPMessageDescriptorC1Ev @2904
    _ZN23UALCMPMessageDescriptorC2Ev @2905
    _ZN23UALCMPMessageDescriptorD0Ev @2906
    _ZN23UALCMPMessageDescriptorD1Ev @2907
    _ZN23UALCMPMessageDescriptorD2Ev @2908
    _ZN24BackgroundTrafficManager10computeCqiEi9DirectionN4inet5CoordEd @2909
    _ZN24BackgroundTrafficManager10getBsCoordEv @2910
    _ZN24BackgroundTrafficManager10initializeEi @2911
    _ZN24BackgroundTrafficManager10racHandledEt @2912
    _ZN24BackgroundTrafficManager11getBgUesEndEv @2913
    _ZN24BackgroundTrafficManager11getNumBandsEv @2914
    _ZN24BackgroundTrafficManager12getBsTxPowerEv @2915
    _ZN24BackgroundTrafficManager13getBgUesBeginEv @2916
    _ZN24BackgroundTrafficManager13handleMessageEPN7omnetpp8cMessageE @2917
    _ZN24BackgroundTrafficManager13notifyBacklogEi9Directionb @2918
    _ZN24BackgroundTrafficManager18computeCqiFromSinrEd @2919
    _ZN24BackgroundTrafficManager19getBackloggedUesEndE9Directionb @2920
    _ZN24BackgroundTrafficManager19getTrafficGeneratorEt @2921
    _ZN24BackgroundTrafficManager19setCarrierFrequencyEd @2922
    _ZN24BackgroundTrafficManager21getBackloggedUeBufferEt9Directionb @2923
    _ZN24BackgroundTrafficManager21getBackloggedUesBeginE9Directionb @2924
    _ZN24BackgroundTrafficManager21getReceivedPower_bgUeEdN4inet5CoordES1_9Directionb @2925
    _ZN24BackgroundTrafficManager22getWaitingForRacUesEndEv @2926
    _ZN24BackgroundTrafficManager24consumeBackloggedUeBytesEtj9Directionb @2927
    _ZN24BackgroundTrafficManager24getWaitingForRacUesBeginEv @2928
    _ZN24BackgroundTrafficManager28getBackloggedUeBytesPerBlockEt9Direction @2929
    _ZN24BackgroundTrafficManager36initializeAvgInterferenceComputationEv @2930
    _ZN24BackgroundTrafficManagerC1Ev @2931
    _ZN24BackgroundTrafficManagerC2Ev @2932
    _ZN24BackgroundTrafficManagerD0Ev @2933
    _ZN24BackgroundTrafficManagerD2Ev @2934
    _ZN24LteControlInfoDescriptorC1Ev @2935
    _ZN24LteControlInfoDescriptorC2Ev @2936
    _ZN24LteControlInfoDescriptorD0Ev @2937
    _ZN24LteControlInfoDescriptorD1Ev @2938
    _ZN24LteControlInfoDescriptorD2Ev @2939
    _ZN24LteFeedbackPktDescriptorC1Ev @2940
    _ZN24LteFeedbackPktDescriptorC2Ev @2941
    _ZN24LteFeedbackPktDescriptorD0Ev @2942
    _ZN24LteFeedbackPktDescriptorD1Ev @2943
    _ZN24LteFeedbackPktDescriptorD2Ev @2944
    _ZN24LteRealisticChannelModel10initializeEi @2945
    _ZN24LteRealisticChannelModel10isErrorDasEP11LteAirFrameP15UserControlInfo @2946
    _ZN24LteRealisticChannelModel11getJakesMapEv @2947
    _ZN24LteRealisticChannelModel11getRSRP_D2DEP11LteAirFrameP15UserControlInfotN4inet5CoordE @2948
    _ZN24LteRealisticChannelModel11getSINR_D2DEP11LteAirFrameP15UserControlInfotN4inet5CoordEt @2949
    _ZN24LteRealisticChannelModel11getSINR_D2DEP11LteAirFrameP15UserControlInfotN4inet5CoordEtRKSt6vectorIdSaIdEE @2950
    _ZN24LteRealisticChannelModel11isError_D2DEP11LteAirFrameP15UserControlInfoRKSt6vectorIdSaIdEE @2951
    _ZN24LteRealisticChannelModel11jakesFadingEtdjbb @2952
    _ZN24LteRealisticChannelModel11rcvdSinrDl_E @2953 DATA
    _ZN24LteRealisticChannelModel11rcvdSinrUl_E @2954 DATA
    _ZN24LteRealisticChannelModel12computeAngleEN4inet5CoordES1_ @2955
    _ZN24LteRealisticChannelModel12computeSpeedEtN4inet5CoordE @2956
    _ZN24LteRealisticChannelModel12getSINR_bgUeEP11LteAirFrameP15UserControlInfo @2957
    _ZN24LteRealisticChannelModel13computeIndoorEdb @2958
    _ZN24LteRealisticChannelModel14getAttenuationEt9DirectionN4inet5CoordEb @2959
    _ZN24LteRealisticChannelModel14rayleighFadingEtj @2960
    _ZN24LteRealisticChannelModel15JakesFadingDataC2EOS0_ @2961
    _ZN24LteRealisticChannelModel15JakesFadingDataC2ERKS0_ @2962
    _ZN24LteRealisticChannelModel15JakesFadingDataC2Ev @2963
    _ZN24LteRealisticChannelModel15JakesFadingDataD2Ev @2964
    _ZN24LteRealisticChannelModel15computePathLossEddb @2965
    _ZN24LteRealisticChannelModel15getShadowingMapEv @2966
    _ZN24LteRealisticChannelModel15measuredSinrDl_E @2967 DATA
    _ZN24LteRealisticChannelModel15measuredSinrUl_E @2968 DATA
    _ZN24LteRealisticChannelModel16computeShadowingEdtdb @2969
    _ZN24LteRealisticChannelModel16obtainUeJakesMapEt @2970
    _ZN24LteRealisticChannelModel17computeRuralMacroEdRdb @2971
    _ZN24LteRealisticChannelModel17computeUrbanMacroEdb @2972
    _ZN24LteRealisticChannelModel17computeUrbanMicroEdb @2973
    _ZN24LteRealisticChannelModel17getTwoDimDistanceEN4inet5CoordES1_ @2974
    _ZN24LteRealisticChannelModel18getAttenuation_D2DEt9DirectionN4inet5CoordEtS2_b @2975
    _ZN24LteRealisticChannelModel18obtainShadowingMapEt @2976
    _ZN24LteRealisticChannelModel20computeSubUrbanMacroEdRdb @2977
    _ZN24LteRealisticChannelModel20computeVerticalAngleEN4inet5CoordES1_ @2978
    _ZN24LteRealisticChannelModel21computeLosProbabilityEdt @2979
    _ZN24LteRealisticChannelModel21getReceivedPower_bgUeEdN4inet5CoordES1_9Directionbt @2980
    _ZN24LteRealisticChannelModel21updatePositionHistoryEtN4inet5CoordE @2981
    _ZN24LteRealisticChannelModel22computeD2DInterferenceEttN4inet5CoordEtS1_bdRKSt3mapI6RemoteS2_ItjSt4lessItESaISt4pairIKtjEEES4_IS3_ESaIS6_IKS3_SA_EEEPSt6vectorIdSaIdEE9Direction @2982
    _ZN24LteRealisticChannelModel22computeExtCellPathLossEdt @2983
    _ZN24LteRealisticChannelModel24isD2DInterferenceEnabledEv @2984
    _ZN24LteRealisticChannelModel25computeAngolarAttenuationEdd @2985
    _ZN24LteRealisticChannelModel25computeUplinkInterferenceEttbdRKSt3mapI6RemoteS0_ItjSt4lessItESaISt4pairIKtjEEES2_IS1_ESaIS4_IKS1_S8_EEEPSt6vectorIdSaIdEE @2986
    _ZN24LteRealisticChannelModel25updateCorrelationDistanceEtN4inet5CoordE @2987
    _ZN24LteRealisticChannelModel26computeCorrelationDistanceEtN4inet5CoordE @2988
    _ZN24LteRealisticChannelModel26computeExtCellInterferenceEttN4inet5CoordEbdPSt6vectorIdSaIdEE @2989
    _ZN24LteRealisticChannelModel27computeDownlinkInterferenceEttN4inet5CoordEbdRKSt3mapI6RemoteS2_ItjSt4lessItESaISt4pairIKtjEEES4_IS3_ESaIS6_IKS3_SA_EEEPSt6vectorIdSaIdEE @2990
    _ZN24LteRealisticChannelModel27isUplinkInterferenceEnabledEv @2991
    _ZN24LteRealisticChannelModel33computeBackgroundCellInterferenceEtN4inet5CoordES1_bdRKSt3mapI6RemoteS2_ItjSt4lessItESaISt4pairIKtjEEES4_IS3_ESaIS6_IKS3_SA_EEE9DirectionPSt6vectorIdSaIdEE @2992
    _ZN24LteRealisticChannelModel6getSIREP11LteAirFrameP15UserControlInfo @2993
    _ZN24LteRealisticChannelModel7getRSRPEP11LteAirFrameP15UserControlInfo @2994
    _ZN24LteRealisticChannelModel7getSINREP11LteAirFrameP15UserControlInfo @2995
    _ZN24LteRealisticChannelModel7isErrorEP11LteAirFrameP15UserControlInfo @2996
    _ZN24LteRealisticChannelModel9distance_E @2997 DATA
    _ZN24LteRealisticChannelModel9getStdDevEbt @2998
    _ZN24LteRealisticChannelModelC2Ev @2999
    _ZN24LteRealisticChannelModelD0Ev @3000
    _ZN24LteRealisticChannelModelD2Ev @3001
    _ZN24MecRequestResponsePacket10setSrcPortEi @3002
    _ZN24MecRequestResponsePacket11setDestPortEi @3003
    _ZN24MecRequestResponsePacket12parsimUnpackEPN7omnetpp11cCommBufferE @3004
    _ZN24MecRequestResponsePacket13setSrcAddressEPKc @3005
    _ZN24MecRequestResponsePacket14setDestAddressEPKc @3006
    _ZN24MecRequestResponsePacket15setReqTimestampEd @3007
    _ZN24MecRequestResponsePacket16setRespTimestampEd @3008
    _ZN24MecRequestResponsePacket4copyERKS_ @3009
    _ZN24MecRequestResponsePacket6setSnoEj @3010
    _ZN24MecRequestResponsePacket7setBsIdEi @3011
    _ZN24MecRequestResponsePacket8setAppIdEi @3012
    _ZN24MecRequestResponsePacketC1ERKS_ @3013
    _ZN24MecRequestResponsePacketC1Ev @3014
    _ZN24MecRequestResponsePacketC2ERKS_ @3015
    _ZN24MecRequestResponsePacketC2Ev @3016
    _ZN24MecRequestResponsePacketD0Ev @3017
    _ZN24MecRequestResponsePacketD1Ev @3018
    _ZN24MecRequestResponsePacketD2Ev @3019
    _ZN24MecRequestResponsePacketaSERKS_ @3020
    _ZN24MecServiceSelectionBased15findBestMecHostERK21ApplicationDescriptor @3021
    _ZN24MecServiceSelectionBasedC2EP15MecOrchestrator @3022
    _ZN24MecServiceSelectionBasedD0Ev @3023
    _ZN24MecServiceSelectionBasedD2Ev @3024
    _ZN24MigrationTimerDescriptorC1Ev @3025
    _ZN24MigrationTimerDescriptorC2Ev @3026
    _ZN24MigrationTimerDescriptorD0Ev @3027
    _ZN24MigrationTimerDescriptorD1Ev @3028
    _ZN24MigrationTimerDescriptorD2Ev @3029
    _ZN24ModulationTypeDescriptorC1Ev @3030
    _ZN24ModulationTypeDescriptorC2Ev @3031
    _ZN24ModulationTypeDescriptorD0Ev @3032
    _ZN24ModulationTypeDescriptorD1Ev @3033
    _ZN24ModulationTypeDescriptorD2Ev @3034
    _ZN24RequestResponseAppPacket12parsimUnpackEPN7omnetpp11cCommBufferE @3035
    _ZN24RequestResponseAppPacket17setProcessingTimeEd @3036
    _ZN24RequestResponseAppPacket22setServiceResponseTimeEN7omnetpp7SimTimeE @3037
    _ZN24RequestResponseAppPacket23setRequestSentTimestampEN7omnetpp7SimTimeE @3038
    _ZN24RequestResponseAppPacket24setResponseSentTimestampEN7omnetpp7SimTimeE @3039
    _ZN24RequestResponseAppPacket26setRequestArrivedTimestampEN7omnetpp7SimTimeE @3040
    _ZN24RequestResponseAppPacket4copyERKS_ @3041
    _ZN24RequestResponseAppPacket6setSnoEj @3042
    _ZN24RequestResponseAppPacket7setTypeEi @3043
    _ZN24RequestResponseAppPacketC1ERKS_ @3044
    _ZN24RequestResponseAppPacketC1Ev @3045
    _ZN24RequestResponseAppPacketC2ERKS_ @3046
    _ZN24RequestResponseAppPacketC2Ev @3047
    _ZN24RequestResponseAppPacketD0Ev @3048
    _ZN24RequestResponseAppPacketD1Ev @3049
    _ZN24RequestResponseAppPacketD2Ev @3050
    _ZN24RequestResponseAppPacketaSERKS_ @3051
    _ZN24TMultiTimerMsgDescriptorC1Ev @3052
    _ZN24TMultiTimerMsgDescriptorC2Ev @3053
    _ZN24TMultiTimerMsgDescriptorD0Ev @3054
    _ZN24TMultiTimerMsgDescriptorD1Ev @3055
    _ZN24TMultiTimerMsgDescriptorD2Ev @3056
    _ZN24TftControlInfoDescriptorC1Ev @3057
    _ZN24TftControlInfoDescriptorC2Ev @3058
    _ZN24TftControlInfoDescriptorD0Ev @3059
    _ZN24TftControlInfoDescriptorD1Ev @3060
    _ZN24TftControlInfoDescriptorD2Ev @3061
    _ZN25BaseStationStatsCollector10initializeEi @3062
    _ZN25BaseStationStatsCollector10resetStatsEt @3063
    _ZN25BaseStationStatsCollector13handleMessageEPN7omnetpp8cMessageE @3064
    _ZN25BaseStationStatsCollector14addUeCollectorEtP16UeStatsCollector @3065
    _ZN25BaseStationStatsCollector14getUeCollectorEt @3066
    _ZN25BaseStationStatsCollector14hasUeCollectorEt @3067
    _ZN25BaseStationStatsCollector15getCollectorMapEv @3068
    _ZN25BaseStationStatsCollector17removeUeCollectorEt @3069
    _ZN25BaseStationStatsCollector19get_dl_gbr_pdr_cellEv @3070
    _ZN25BaseStationStatsCollector19get_ul_gbr_pdr_cellEv @3071
    _ZN25BaseStationStatsCollector22add_dl_nongbr_pdr_cellEv @3072
    _ZN25BaseStationStatsCollector22add_ul_nongbr_pdr_cellEv @3073
    _ZN25BaseStationStatsCollector22get_dl_nongbr_pdr_cellEv @3074
    _ZN25BaseStationStatsCollector22get_ul_nongbr_pdr_cellEv @3075
    _ZN25BaseStationStatsCollector22resetDelayCounterPerUeEv @3076
    _ZN25BaseStationStatsCollector23resetBytesCountersPerUeEv @3077
    _ZN25BaseStationStatsCollector24resetDiscardCounterPerUeEv @3078
    _ZN25BaseStationStatsCollector25get_dl_gbr_prb_usage_cellEv @3079
    _ZN25BaseStationStatsCollector25get_ul_gbr_prb_usage_cellEv @3080
    _ZN25BaseStationStatsCollector27add_dl_nongbr_delay_perUserEv @3081
    _ZN25BaseStationStatsCollector27add_dl_total_prb_usage_cellEv @3082
    _ZN25BaseStationStatsCollector27add_ul_nongbr_delay_perUserEv @3083
    _ZN25BaseStationStatsCollector27add_ul_total_prb_usage_cellEv @3084
    _ZN25BaseStationStatsCollector27get_dl_total_prb_usage_cellEv @3085
    _ZN25BaseStationStatsCollector27get_ul_total_prb_usage_cellEv @3086
    _ZN25BaseStationStatsCollector28get_dl_nongbr_prb_usage_cellEv @3087
    _ZN25BaseStationStatsCollector28get_ul_nongbr_prb_usage_cellEv @3088
    _ZN25BaseStationStatsCollector28resetThroughputCountersPerUeEv @3089
    _ZN25BaseStationStatsCollector30add_dl_nongbr_pdr_cell_perUserEv @3090
    _ZN25BaseStationStatsCollector30add_ul_nongbr_pdr_cell_perUserEv @3091
    _ZN25BaseStationStatsCollector35add_dl_nongbr_throughput_ue_perUserEv @3092
    _ZN25BaseStationStatsCollector35add_ul_nongbr_throughput_ue_perUserEv @3093
    _ZN25BaseStationStatsCollector35get_number_of_active_ue_dl_gbr_cellEv @3094
    _ZN25BaseStationStatsCollector35get_number_of_active_ue_ul_gbr_cellEv @3095
    _ZN25BaseStationStatsCollector36add_dl_nongbr_data_volume_ue_perUserEv @3096
    _ZN25BaseStationStatsCollector36add_ul_nongbr_data_volume_ue_perUserEv @3097
    _ZN25BaseStationStatsCollector37get_received_dedicated_preambles_cellEv @3098
    _ZN25BaseStationStatsCollector38add_number_of_active_ue_dl_nongbr_cellEv @3099
    _ZN25BaseStationStatsCollector38add_number_of_active_ue_ul_nongbr_cellEv @3100
    _ZN25BaseStationStatsCollector38get_number_of_active_ue_dl_nongbr_cellEv @3101
    _ZN25BaseStationStatsCollector38get_number_of_active_ue_ul_nongbr_cellEv @3102
    _ZN25BaseStationStatsCollector55get_received_randomly_selected_preambles_low_range_cellEv @3103
    _ZN25BaseStationStatsCollector56get_received_randomly_selected_preambles_high_range_cellEv @3104
    _ZN25BaseStationStatsCollectorC1Ev @3105
    _ZN25BaseStationStatsCollectorC2Ev @3106
    _ZN25BaseStationStatsCollectorD0Ev @3107
    _ZN25BaseStationStatsCollectorD1Ev @3108
    _ZN25BaseStationStatsCollectorD2Ev @3109
    _ZN25D2DModeSwitchNotification10setNewModeE10LteD2DMode @3110
    _ZN25D2DModeSwitchNotification10setOldModeE10LteD2DMode @3111
    _ZN25D2DModeSwitchNotification12parsimUnpackEPN7omnetpp11cCommBufferE @3112
    _ZN25D2DModeSwitchNotification16setInterruptHarqEb @3113
    _ZN25D2DModeSwitchNotification16setOldConnectionEb @3114
    _ZN25D2DModeSwitchNotification17setClearRlcBufferEb @3115
    _ZN25D2DModeSwitchNotification4copyERKS_ @3116
    _ZN25D2DModeSwitchNotification9setPeerIdEj @3117
    _ZN25D2DModeSwitchNotification9setTxSideEb @3118
    _ZN25D2DModeSwitchNotificationC1ERKS_ @3119
    _ZN25D2DModeSwitchNotificationC1Ev @3120
    _ZN25D2DModeSwitchNotificationC2ERKS_ @3121
    _ZN25D2DModeSwitchNotificationC2Ev @3122
    _ZN25D2DModeSwitchNotificationD0Ev @3123
    _ZN25D2DModeSwitchNotificationD1Ev @3124
    _ZN25D2DModeSwitchNotificationD2Ev @3125
    _ZN25D2DModeSwitchNotificationaSERKS_ @3126
    _ZN25DeploymentScenarioMappingD2Ev @3127
    _ZN25DeviceAppPacketDescriptorC1Ev @3128
    _ZN25DeviceAppPacketDescriptorC2Ev @3129
    _ZN25DeviceAppPacketDescriptorD0Ev @3130
    _ZN25DeviceAppPacketDescriptorD1Ev @3131
    _ZN25DeviceAppPacketDescriptorD2Ev @3132
    _ZN25FlowControlInfoDescriptorC1Ev @3133
    _ZN25FlowControlInfoDescriptorC2Ev @3134
    _ZN25FlowControlInfoDescriptorD0Ev @3135
    _ZN25FlowControlInfoDescriptorD1Ev @3136
    _ZN25FlowControlInfoDescriptorD2Ev @3137
    _ZN25HttpBaseMessageDescriptorC1Ev @3138
    _ZN25HttpBaseMessageDescriptorC2Ev @3139
    _ZN25HttpBaseMessageDescriptorD0Ev @3140
    _ZN25HttpBaseMessageDescriptorD1Ev @3141
    _ZN25HttpBaseMessageDescriptorD2Ev @3142
    _ZN25LteHarqFeedbackDescriptorC1Ev @3143
    _ZN25LteHarqFeedbackDescriptorC2Ev @3144
    _ZN25LteHarqFeedbackDescriptorD0Ev @3145
    _ZN25LteHarqFeedbackDescriptorD1Ev @3146
    _ZN25LteHarqFeedbackDescriptorD2Ev @3147
    _ZN25NRChannelModel_3GPP38_90110initializeEi @3148
    _ZN25NRChannelModel_3GPP38_90113computeIndoorEddb @3149
    _ZN25NRChannelModel_3GPP38_90115computePathLossEddb @3150
    _ZN25NRChannelModel_3GPP38_90116computeShadowingEdtdb @3151
    _ZN25NRChannelModel_3GPP38_90117computeRuralMacroEddb @3152
    _ZN25NRChannelModel_3GPP38_90117computeUrbanMacroEddb @3153
    _ZN25NRChannelModel_3GPP38_90117computeUrbanMicroEddb @3154
    _ZN25NRChannelModel_3GPP38_90121computeLosProbabilityEdt @3155
    _ZN25NRChannelModel_3GPP38_90122computePenetrationLossEd @3156
    _ZN25NRChannelModel_3GPP38_9019getStdDevEbt @3157
    _ZN25NRChannelModel_3GPP38_901C2Ev @3158
    _ZN25NRChannelModel_3GPP38_901D0Ev @3159
    _ZN25NRChannelModel_3GPP38_901D2Ev @3160
    _ZN25RtxNotificationDescriptorC1Ev @3161
    _ZN25RtxNotificationDescriptorC2Ev @3162
    _ZN25RtxNotificationDescriptorD0Ev @3163
    _ZN25RtxNotificationDescriptorD1Ev @3164
    _ZN25RtxNotificationDescriptorD2Ev @3165
    _ZN25TrickleTimerMsgDescriptorC1Ev @3166
    _ZN25TrickleTimerMsgDescriptorC2Ev @3167
    _ZN25TrickleTimerMsgDescriptorD0Ev @3168
    _ZN25TrickleTimerMsgDescriptorD1Ev @3169
    _ZN25TrickleTimerMsgDescriptorD2Ev @3170
    _ZN25UserControlInfoDescriptorC1Ev @3171
    _ZN25UserControlInfoDescriptorC2Ev @3172
    _ZN25UserControlInfoDescriptorD0Ev @3173
    _ZN25UserControlInfoDescriptorD1Ev @3174
    _ZN25UserControlInfoDescriptorD2Ev @3175
    _ZN25X2CompProportionalReplyIE19getAllowedBlocksMapEv @3176
    _ZN25X2CompProportionalReplyIE19setAllowedBlocksMapERSt6vectorI12CompRbStatusSaIS1_EE @3177
    _ZN25X2CompProportionalReplyIEC2ERKS_ @3178
    _ZN25X2CompProportionalReplyIEC2Ev @3179
    _ZN25X2CompProportionalReplyIED0Ev @3180
    _ZN25X2CompProportionalReplyIED2Ev @3181
    _ZN25X2CompProportionalReplyIEaSERKS_ @3182
    _ZN25X2DualConnectivityDataMsgC1ERKS_ @3183
    _ZN25X2DualConnectivityDataMsgC1Ev @3184
    _ZN25X2DualConnectivityDataMsgC2ERKS_ @3185
    _ZN25X2DualConnectivityDataMsgC2Ev @3186
    _ZN25X2DualConnectivityDataMsgD0Ev @3187
    _ZN25X2DualConnectivityDataMsgD1Ev @3188
    _ZN25X2DualConnectivityDataMsgD2Ev @3189
    _ZN25X2DualConnectivityDataMsgaSERKS_ @3190
    _ZN25X2InformationElement_Base12parsimUnpackEPN7omnetpp11cCommBufferE @3191
    _ZN25X2InformationElement_Base4copyERKS_ @3192
    _ZN25X2InformationElement_BaseC1ERKS_ @3193
    _ZN25X2InformationElement_BaseC1Ev @3194
    _ZN25X2InformationElement_BaseC2ERKS_ @3195
    _ZN25X2InformationElement_BaseC2Ev @3196
    _ZN25X2InformationElement_BaseD0Ev @3197
    _ZN25X2InformationElement_BaseD1Ev @3198
    _ZN25X2InformationElement_BaseD2Ev @3199
    _ZN25X2InformationElement_BaseaSERKS_ @3200
    _ZN26AperiodicSubscriptionTimer11insertSubIdEi @3201
    _ZN26AperiodicSubscriptionTimer11removeSubIdEi @3202
    _ZN26AperiodicSubscriptionTimerC1EPKc @3203
    _ZN26AperiodicSubscriptionTimerC1EPKcRKd @3204
    _ZN26AperiodicSubscriptionTimerC1Ev @3205
    _ZN26AperiodicSubscriptionTimerC2EPKc @3206
    _ZN26AperiodicSubscriptionTimerC2EPKcRKd @3207
    _ZN26AperiodicSubscriptionTimerC2Ev @3208
    _ZN26AperiodicSubscriptionTimerD0Ev @3209
    _ZN26AperiodicSubscriptionTimerD1Ev @3210
    _ZN26AperiodicSubscriptionTimerD2Ev @3211
    _ZN26BackgroundCellChannelModel10initializeEi @3212
    _ZN26BackgroundCellChannelModel11jakesFadingEtdjj @3213
    _ZN26BackgroundCellChannelModel12computeAngleEN4inet5CoordES1_ @3214
    _ZN26BackgroundCellChannelModel12computeSpeedEtN4inet5CoordE @3215
    _ZN26BackgroundCellChannelModel13computeIndoorEdb @3216
    _ZN26BackgroundCellChannelModel14getAttenuationEt9DirectionN4inet5CoordES2_ @3217
    _ZN26BackgroundCellChannelModel14rayleighFadingEtj @3218
    _ZN26BackgroundCellChannelModel15JakesFadingDataC2EOS0_ @3219
    _ZN26BackgroundCellChannelModel15JakesFadingDataC2ERKS0_ @3220
    _ZN26BackgroundCellChannelModel15JakesFadingDataC2Ev @3221
    _ZN26BackgroundCellChannelModel15JakesFadingDataD2Ev @3222
    _ZN26BackgroundCellChannelModel15computePathLossEddb @3223
    _ZN26BackgroundCellChannelModel16computeShadowingEdtd @3224
    _ZN26BackgroundCellChannelModel17computeRuralMacroEdRdb @3225
    _ZN26BackgroundCellChannelModel17computeUrbanMacroEdb @3226
    _ZN26BackgroundCellChannelModel17computeUrbanMicroEdb @3227
    _ZN26BackgroundCellChannelModel17getTwoDimDistanceEN4inet5CoordES1_ @3228
    _ZN26BackgroundCellChannelModel19setCarrierFrequencyEd @3229
    _ZN26BackgroundCellChannelModel20computeSubUrbanMacroEdRdb @3230
    _ZN26BackgroundCellChannelModel20computeVerticalAngleEN4inet5CoordES1_ @3231
    _ZN26BackgroundCellChannelModel21computeLosProbabilityEdt @3232
    _ZN26BackgroundCellChannelModel21getReceivedPower_bgUeEdN4inet5CoordES1_9DirectionbPK19BackgroundScheduler @3233
    _ZN26BackgroundCellChannelModel21updatePositionHistoryEtN4inet5CoordE @3234
    _ZN26BackgroundCellChannelModel25computeAngolarAttenuationEdd @3235
    _ZN26BackgroundCellChannelModel25computeUplinkInterferenceEtN4inet5CoordEdRKSt3mapI6RemoteS2_ItjSt4lessItESaISt4pairIKtjEEES4_IS3_ESaIS6_IKS3_SA_EEEjPSt6vectorIdSaIdEE @3236
    _ZN26BackgroundCellChannelModel25updateCorrelationDistanceEtN4inet5CoordE @3237
    _ZN26BackgroundCellChannelModel26computeCorrelationDistanceEtN4inet5CoordE @3238
    _ZN26BackgroundCellChannelModel27computeDownlinkInterferenceEtN4inet5CoordEdRKSt3mapI6RemoteS2_ItjSt4lessItESaISt4pairIKtjEEES4_IS3_ESaIS6_IKS3_SA_EEEjPSt6vectorIdSaIdEE @3239
    _ZN26BackgroundCellChannelModel33computeBackgroundCellInterferenceEtN4inet5CoordEiS1_dRKSt3mapI6RemoteS2_ItjSt4lessItESaISt4pairIKtjEEES4_IS3_ESaIS6_IKS3_SA_EEE9DirectionjPSt6vectorIdSaIdEE @3240
    _ZN26BackgroundCellChannelModel7getSINREtN4inet5CoordEP20TrafficGeneratorBaseP19BackgroundScheduler9Direction @3241
    _ZN26BackgroundCellChannelModel9getStdDevEbt @3242
    _ZN26BackgroundCellChannelModelC2Ev @3243
    _ZN26BackgroundCellChannelModelD0Ev @3244
    _ZN26BackgroundCellChannelModelD2Ev @3245
    _ZN26CreateAppMessageDescriptorC1Ev @3246
    _ZN26CreateAppMessageDescriptorC2Ev @3247
    _ZN26CreateAppMessageDescriptorD0Ev @3248
    _ZN26CreateAppMessageDescriptorD1Ev @3249
    _ZN26CreateAppMessageDescriptorD2Ev @3250
    _ZN26CreateContextAppAckMessage13setAppContextERN8nlohmann10basic_jsonISt3mapSt6vectorNSt7__cxx1112basic_stringIcSt11char_traitsIcESaIcEEEbxydSaNS0_14adl_serializerES3_IhSaIhEEEE @3251
    _ZN26CreateContextAppAckMessage4copyERKS_ @3252
    _ZN26CreateContextAppAckMessageC1EPKcs @3253
    _ZN26CreateContextAppAckMessageC1ERKS_ @3254
    _ZN26CreateContextAppAckMessageC2EPKcs @3255
    _ZN26CreateContextAppAckMessageC2ERKS_ @3256
    _ZN26CreateContextAppAckMessageD0Ev @3257
    _ZN26CreateContextAppAckMessageD1Ev @3258
    _ZN26CreateContextAppAckMessageD2Ev @3259
    _ZN26CreateContextAppAckMessageaSERKS_ @3260
    _ZN26CreateContextAppDescriptorC1Ev @3261
    _ZN26CreateContextAppDescriptorC2Ev @3262
    _ZN26CreateContextAppDescriptorD0Ev @3263
    _ZN26CreateContextAppDescriptorD1Ev @3264
    _ZN26CreateContextAppDescriptorD2Ev @3265
    _ZN26DeleteAppMessageDescriptorC1Ev @3266
    _ZN26DeleteAppMessageDescriptorC2Ev @3267
    _ZN26DeleteAppMessageDescriptorD0Ev @3268
    _ZN26DeleteAppMessageDescriptorD1Ev @3269
    _ZN26DeleteAppMessageDescriptorD2Ev @3270
    _ZN26DeleteContextAppAckMessage10setSuccessEb @3271
    _ZN26DeleteContextAppAckMessage12parsimUnpackEPN7omnetpp11cCommBufferE @3272
    _ZN26DeleteContextAppAckMessage12setContextIdEi @3273
    _ZN26DeleteContextAppAckMessage4copyERKS_ @3274
    _ZN26DeleteContextAppAckMessageC1EPKcs @3275
    _ZN26DeleteContextAppAckMessageC1ERKS_ @3276
    _ZN26DeleteContextAppAckMessageC2EPKcs @3277
    _ZN26DeleteContextAppAckMessageC2ERKS_ @3278
    _ZN26DeleteContextAppAckMessageD0Ev @3279
    _ZN26DeleteContextAppAckMessageD1Ev @3280
    _ZN26DeleteContextAppAckMessageD2Ev @3281
    _ZN26DeleteContextAppAckMessageaSERKS_ @3282
    _ZN26DistanceBasedConflictGraph12findVerticesERSt6vectorI8CGVertexSaIS1_EE @3283
    _ZN26DistanceBasedConflictGraph13setThresholdsEddd @3284
    _ZN26DistanceBasedConflictGraph18getDbmFromDistanceEd @3285
    _ZN26DistanceBasedConflictGraph9findEdgesERKSt6vectorI8CGVertexSaIS1_EE @3286
    _ZN26DistanceBasedConflictGraphC1EP12LteMacEnbD2Dbbd @3287
    _ZN26DistanceBasedConflictGraphC2EP12LteMacEnbD2Dbbd @3288
    _ZN26DistanceBasedConflictGraphD0Ev @3289
    _ZN26DistanceBasedConflictGraphD2Ev @3290
    _ZN26FeedbackGeneratorTypeTableD2Ev @3291
    _ZN26LteCompManagerProportional10initializeEv @3292
    _ZN26LteCompManagerProportional11roundVectorERSt6vectorIdSaIdEEi @3293
    _ZN26LteCompManagerProportional14doCoordinationEv @3294
    _ZN26LteCompManagerProportional18buildClientRequestEv @3295
    _ZN26LteCompManagerProportional19handleClientRequestEN4inet12IntrusivePtrI9X2CompMsgEE @3296
    _ZN26LteCompManagerProportional19provisionalScheduleEv @3297
    _ZN26LteCompManagerProportional21buildCoordinatorReplyEt @3298
    _ZN26LteCompManagerProportional21parseAllowedBlocksMapERSt6vectorI12CompRbStatusSaIS1_EE @3299
    _ZN26LteCompManagerProportional22handleCoordinatorReplyEN4inet12IntrusivePtrI9X2CompMsgEE @3300
    _ZN26LteCompManagerProportionalC2Ev @3301
    _ZN26LteCompManagerProportionalD0Ev @3302
    _ZN26LteCompManagerProportionalD2Ev @3303
    _ZN26LteMacSduRequestDescriptorC1Ev @3304
    _ZN26LteMacSduRequestDescriptorC2Ev @3305
    _ZN26LteMacSduRequestDescriptorD0Ev @3306
    _ZN26LteMacSduRequestDescriptorD1Ev @3307
    _ZN26LteMacSduRequestDescriptorD2Ev @3308
    _ZN26LteRlcPduNewDataDescriptorC1Ev @3309
    _ZN26LteRlcPduNewDataDescriptorC2Ev @3310
    _ZN26LteRlcPduNewDataDescriptorD0Ev @3311
    _ZN26LteRlcPduNewDataDescriptorD1Ev @3312
    _ZN26LteRlcPduNewDataDescriptorD2Ev @3313
    _ZN26WarningAppPacketDescriptorC1Ev @3314
    _ZN26WarningAppPacketDescriptorC2Ev @3315
    _ZN26WarningAppPacketDescriptorD0Ev @3316
    _ZN26WarningAppPacketDescriptorD1Ev @3317
    _ZN26WarningAppPacketDescriptorD2Ev @3318
    _ZN26X2ControlInfoTagDescriptorC1Ev @3319
    _ZN26X2ControlInfoTagDescriptorC2Ev @3320
    _ZN26X2ControlInfoTagDescriptorD0Ev @3321
    _ZN26X2ControlInfoTagDescriptorD1Ev @3322
    _ZN26X2ControlInfoTagDescriptorD2Ev @3323
    _ZN27DestinationIdListDescriptorC1Ev @3324
    _ZN27DestinationIdListDescriptorC2Ev @3325
    _ZN27DestinationIdListDescriptorD0Ev @3326
    _ZN27DestinationIdListDescriptorD1Ev @3327
    _ZN27DestinationIdListDescriptorD2Ev @3328
    _ZN27MacControlElementDescriptorC1Ev @3329
    _ZN27MacControlElementDescriptorC2Ev @3330
    _ZN27MacControlElementDescriptorD0Ev @3331
    _ZN27MacControlElementDescriptorD1Ev @3332
    _ZN27MacControlElementDescriptorD2Ev @3333
    _ZN27MecRTVideoStreamingReceiver10initializeEi @3334
    _ZN27MecRTVideoStreamingReceiver11establishedEi @3335
    _ZN27MecRTVideoStreamingReceiver12playoutFrameEv @3336
    _ZN27MecRTVideoStreamingReceiver13handleMessageEPN7omnetpp8cMessageE @3337
    _ZN27MecRTVideoStreamingReceiver13processPacketEPN4inet6PacketE @3338
    _ZN27MecRTVideoStreamingReceiver15handleUeMessageEPN7omnetpp8cMessageE @3339
    _ZN27MecRTVideoStreamingReceiver16handleMp1MessageEi @3340
    _ZN27MecRTVideoStreamingReceiver17handleHttpMessageEi @3341
    _ZN27MecRTVideoStreamingReceiver17handleSelfMessageEPN7omnetpp8cMessageE @3342
    _ZN27MecRTVideoStreamingReceiver17handleStopMessageEPN7omnetpp8cMessageE @3343
    _ZN27MecRTVideoStreamingReceiver18handleStartMessageEPN7omnetpp8cMessageE @3344
    _ZN27MecRTVideoStreamingReceiver20handleServiceMessageEi @3345
    _ZN27MecRTVideoStreamingReceiver24handleSessionStopMessageEPN7omnetpp8cMessageE @3346
    _ZN27MecRTVideoStreamingReceiver25handleSessionStartMessageEPN7omnetpp8cMessageE @3347
    _ZN27MecRTVideoStreamingReceiver6finishEv @3348
    _ZN27MecRTVideoStreamingReceiverC1Ev @3349
    _ZN27MecRTVideoStreamingReceiverC2Ev @3350
    _ZN27MecRTVideoStreamingReceiverD0Ev @3351
    _ZN27MecRTVideoStreamingReceiverD1Ev @3352
    _ZN27MecRTVideoStreamingReceiverD2Ev @3353
    _ZN27MultihopD2DPacketDescriptorC1Ev @3354
    _ZN27MultihopD2DPacketDescriptorC2Ev @3355
    _ZN27MultihopD2DPacketDescriptorD0Ev @3356
    _ZN27MultihopD2DPacketDescriptorD1Ev @3357
    _ZN27MultihopD2DPacketDescriptorD2Ev @3358
    _ZN27RlcUmRxWindowDescDescriptorC1Ev @3359
    _ZN27RlcUmRxWindowDescDescriptorC2Ev @3360
    _ZN27RlcUmRxWindowDescDescriptorD0Ev @3361
    _ZN27RlcUmRxWindowDescDescriptorD1Ev @3362
    _ZN27RlcUmRxWindowDescDescriptorD2Ev @3363
    _ZN27WarningStopPacketDescriptorC1Ev @3364
    _ZN27WarningStopPacketDescriptorC2Ev @3365
    _ZN27WarningStopPacketDescriptorD0Ev @3366
    _ZN27WarningStopPacketDescriptorD1Ev @3367
    _ZN27WarningStopPacketDescriptorD2Ev @3368
    _ZN27X2CompProportionalRequestIE12getNumBlocksEv @3369
    _ZN27X2CompProportionalRequestIE12setNumBlocksEj @3370
    _ZN27X2CompProportionalRequestIEC2ERKS_ @3371
    _ZN27X2CompProportionalRequestIEC2Ev @3372
    _ZN27X2CompProportionalRequestIED0Ev @3373
    _ZN27X2CompProportionalRequestIED2Ev @3374
    _ZN27X2CompProportionalRequestIEaSERKS_ @3375
    _ZN28AperiodicSubscriptionTimer_m12parsimUnpackEPN7omnetpp11cCommBufferE @3376
    _ZN28AperiodicSubscriptionTimer_m4copyERKS_ @3377
    _ZN28AperiodicSubscriptionTimer_m9setPeriodEd @3378
    _ZN28AperiodicSubscriptionTimer_mC1EPKcs @3379
    _ZN28AperiodicSubscriptionTimer_mC1ERKS_ @3380
    _ZN28AperiodicSubscriptionTimer_mC2EPKcs @3381
    _ZN28AperiodicSubscriptionTimer_mC2ERKS_ @3382
    _ZN28AperiodicSubscriptionTimer_mD0Ev @3383
    _ZN28AperiodicSubscriptionTimer_mD1Ev @3384
    _ZN28AperiodicSubscriptionTimer_mD2Ev @3385
    _ZN28AperiodicSubscriptionTimer_maSERKS_ @3386
    _ZN28BackgroundCellTrafficManager10computeCqiEi9DirectionN4inet5CoordEd @3387
    _ZN28BackgroundCellTrafficManager10initializeEi @3388
    _ZN28BackgroundCellTrafficManager10nrCqiTableE @3389 DATA
    _ZN28BackgroundCellTrafficManager10racHandledEt @3390
    _ZN28BackgroundCellTrafficManager11getNumBandsEv @3391
    _ZN28BackgroundCellTrafficManager15getCqiFromTableEd @3392
    _ZN28BackgroundCellTrafficManager21getReceivedPower_bgUeEdN4inet5CoordES1_9Directionb @3393
    _ZN28BackgroundCellTrafficManager28getBackloggedUeBytesPerBlockEt9Direction @3394
    _ZN28BackgroundCellTrafficManagerC1Ev @3395
    _ZN28BackgroundCellTrafficManagerC2Ev @3396
    _ZN28BackgroundCellTrafficManagerD0Ev @3397
    _ZN28BackgroundCellTrafficManagerD1Ev @3398
    _ZN28BackgroundCellTrafficManagerD2Ev @3399
    _ZN28LteSchedulingGrantDescriptorC1Ev @3400
    _ZN28LteSchedulingGrantDescriptorC2Ev @3401
    _ZN28LteSchedulingGrantDescriptorD0Ev @3402
    _ZN28LteSchedulingGrantDescriptorD1Ev @3403
    _ZN28LteSchedulingGrantDescriptorD2Ev @3404
    _ZN28WarningAlertPacketDescriptorC1Ev @3405
    _ZN28WarningAlertPacketDescriptorC2Ev @3406
    _ZN28WarningAlertPacketDescriptorD0Ev @3407
    _ZN28WarningAlertPacketDescriptorD1Ev @3408
    _ZN28WarningAlertPacketDescriptorD2Ev @3409
    _ZN28WarningStartPacketDescriptorC1Ev @3410
    _ZN28WarningStartPacketDescriptorC2Ev @3411
    _ZN28WarningStartPacketDescriptorD0Ev @3412
    _ZN28WarningStartPacketDescriptorD1Ev @3413
    _ZN28WarningStartPacketDescriptorD2Ev @3414
    _ZN29CreateContextAppAckDescriptorC1Ev @3415
    _ZN29CreateContextAppAckDescriptorC2Ev @3416
    _ZN29CreateContextAppAckDescriptorD0Ev @3417
    _ZN29CreateContextAppAckDescriptorD1Ev @3418
    _ZN29CreateContextAppAckDescriptorD2Ev @3419
    _ZN29DeviceAppStopPacketDescriptorC1Ev @3420
    _ZN29DeviceAppStopPacketDescriptorC2Ev @3421
    _ZN29DeviceAppStopPacketDescriptorD0Ev @3422
    _ZN29DeviceAppStopPacketDescriptorD1Ev @3423
    _ZN29DeviceAppStopPacketDescriptorD2Ev @3424
    _ZN30ActiveUeNotificationDescriptorC1Ev @3425
    _ZN30ActiveUeNotificationDescriptorC2Ev @3426
    _ZN30ActiveUeNotificationDescriptorD0Ev @3427
    _ZN30ActiveUeNotificationDescriptorD1Ev @3428
    _ZN30ActiveUeNotificationDescriptorD2Ev @3429
    _ZN30CircleNotificationSubscription16sendNotificationEP17EventNotification @3430
    _ZN30CircleNotificationSubscription18handleSubscriptionEv @3431
    _ZN30CircleNotificationSubscription24sendSubscriptionResponseEv @3432
    _ZN30CircleNotificationSubscription6findUeEt @3433
    _ZN30CircleNotificationSubscription8fromJsonERKN8nlohmann10basic_jsonINS0_11ordered_mapESt6vectorNSt7__cxx1112basic_stringIcSt11char_traitsIcESaIcEEEbxydSaNS0_14adl_serializerES3_IhSaIhEEEE @3434
    _ZN30CircleNotificationSubscriptionC1EjPN4inet9TcpSocketERKNSt7__cxx1112basic_stringIcSt11char_traitsIcESaIcEEERSt3setIPN7omnetpp7cModuleESt4lessISE_ESaISE_EE @3435
    _ZN30CircleNotificationSubscriptionC1EjPN4inet9TcpSocketERKNSt7__cxx1112basic_stringIcSt11char_traitsIcESaIcEEERSt3setIPN7omnetpp7cModuleESt4lessISE_ESaISE_EEbNSC_7SimTimeE @3436
    _ZN30CircleNotificationSubscriptionC1Ev @3437
    _ZN30CircleNotificationSubscriptionC2EjPN4inet9TcpSocketERKNSt7__cxx1112basic_stringIcSt11char_traitsIcESaIcEEERSt3setIPN7omnetpp7cModuleESt4lessISE_ESaISE_EE @3438
    _ZN30CircleNotificationSubscriptionC2EjPN4inet9TcpSocketERKNSt7__cxx1112basic_stringIcSt11char_traitsIcESaIcEEERSt3setIPN7omnetpp7cModuleESt4lessISE_ESaISE_EEbNSC_7SimTimeE @3439
    _ZN30CircleNotificationSubscriptionC2Ev @3440
    _ZN30CircleNotificationSubscriptionD0Ev @3441
    _ZN30CircleNotificationSubscriptionD1Ev @3442
    _ZN30CircleNotificationSubscriptionD2Ev @3443
    _ZN30DeviceAppStartPacketDescriptorC1Ev @3444
    _ZN30DeviceAppStartPacketDescriptorC2Ev @3445
    _ZN30DeviceAppStartPacketDescriptorD0Ev @3446
    _ZN30DeviceAppStartPacketDescriptorD1Ev @3447
    _ZN30DeviceAppStartPacketDescriptorD2Ev @3448
    _ZN30HttpRequestMessage_mDescriptorC1Ev @3449
    _ZN30HttpRequestMessage_mDescriptorC2Ev @3450
    _ZN30HttpRequestMessage_mDescriptorD0Ev @3451
    _ZN30HttpRequestMessage_mDescriptorD1Ev @3452
    _ZN30HttpRequestMessage_mDescriptorD2Ev @3453
    _ZN30X2InformationElementDescriptorC1Ev @3454
    _ZN30X2InformationElementDescriptorC2Ev @3455
    _ZN30X2InformationElementDescriptorD0Ev @3456
    _ZN30X2InformationElementDescriptorD1Ev @3457
    _ZN30X2InformationElementDescriptorD2Ev @3458
    _ZN31HttpResponseMessage_mDescriptorC1Ev @3459
    _ZN31HttpResponseMessage_mDescriptorC2Ev @3460
    _ZN31HttpResponseMessage_mDescriptorD0Ev @3461
    _ZN31HttpResponseMessage_mDescriptorD1Ev @3462
    _ZN31HttpResponseMessage_mDescriptorD2Ev @3463
    _ZN31LteFeedbackComputationRealistic11computeRankEt @3464
    _ZN31LteFeedbackComputationRealistic15computeFeedbackE12FeedbackType16RbAllocationType6TxModeSt3mapI6RemoteiSt4lessIS4_ESaISt4pairIKS4_iEEEi21FeedbackGeneratorTypeiSt6vectorIdSaIdEEt @3465
    _ZN31LteFeedbackComputationRealistic15computeFeedbackE6Remote12FeedbackType16RbAllocationType6TxModeii21FeedbackGeneratorTypeiSt6vectorIdSaIdEEt @3466
    _ZN31LteFeedbackComputationRealistic15computeFeedbackE6Remote6TxMode12FeedbackType16RbAllocationTypeii21FeedbackGeneratorTypeiSt6vectorIdSaIdEEt @3467
    _ZN31LteFeedbackComputationRealistic20generateBaseFeedbackEiiR11LteFeedback12FeedbackTypei16RbAllocationType6TxModeSt6vectorIdSaIdEE @3468
    _ZN31LteFeedbackComputationRealistic6getCqiE6TxModed @3469
    _ZN31LteFeedbackComputationRealistic7meanSnrESt6vectorIdSaIdEE @3470
    _ZN31LteFeedbackComputationRealisticC1EdPSt3mapIt6LambdaSt4lessItESaISt4pairIKtS1_EEEdddj @3471
    _ZN31LteFeedbackComputationRealisticC2EdPSt3mapIt6LambdaSt4lessItESaISt4pairIKtS1_EEEdddj @3472
    _ZN31LteFeedbackComputationRealisticD0Ev @3473
    _ZN31LteFeedbackComputationRealisticD1Ev @3474
    _ZN31LteFeedbackComputationRealisticD2Ev @3475
    _ZN31LteHarqFeedbackMirrorDescriptorC1Ev @3476
    _ZN31LteHarqFeedbackMirrorDescriptorC2Ev @3477
    _ZN31LteHarqFeedbackMirrorDescriptorD0Ev @3478
    _ZN31LteHarqFeedbackMirrorDescriptorD1Ev @3479
    _ZN31LteHarqFeedbackMirrorDescriptorD2Ev @3480
    _ZN31ProcessingTimeMessageDescriptorC1Ev @3481
    _ZN31ProcessingTimeMessageDescriptorC2Ev @3482
    _ZN31ProcessingTimeMessageDescriptorD0Ev @3483
    _ZN31ProcessingTimeMessageDescriptorD1Ev @3484
    _ZN31ProcessingTimeMessageDescriptorD2Ev @3485
    _ZN31RealTimeVideoStreamingAppPacket12parsimUnpackEPN7omnetpp11cCommBufferE @3486
    _ZN31RealTimeVideoStreamingAppPacket4copyERKS_ @3487
    _ZN31RealTimeVideoStreamingAppPacket7setTypeEi @3488
    _ZN31RealTimeVideoStreamingAppPacketC1ERKS_ @3489
    _ZN31RealTimeVideoStreamingAppPacketC1Ev @3490
    _ZN31RealTimeVideoStreamingAppPacketC2ERKS_ @3491
    _ZN31RealTimeVideoStreamingAppPacketC2Ev @3492
    _ZN31RealTimeVideoStreamingAppPacketD0Ev @3493
    _ZN31RealTimeVideoStreamingAppPacketD1Ev @3494
    _ZN31RealTimeVideoStreamingAppPacketD2Ev @3495
    _ZN31RealTimeVideoStreamingAppPacketaSERKS_ @3496
    _ZN32AvailableResourcesSelectionBased15findBestMecHostERK21ApplicationDescriptor @3497
    _ZN32AvailableResourcesSelectionBasedC2EP15MecOrchestrator @3498
    _ZN32AvailableResourcesSelectionBasedD0Ev @3499
    _ZN32AvailableResourcesSelectionBasedD2Ev @3500
    _ZN32DeviceAppStopAckPacketDescriptorC1Ev @3501
    _ZN32DeviceAppStopAckPacketDescriptorC2Ev @3502
    _ZN32DeviceAppStopAckPacketDescriptorD0Ev @3503
    _ZN32DeviceAppStopAckPacketDescriptorD1Ev @3504
    _ZN32DeviceAppStopAckPacketDescriptorD2Ev @3505
    _ZN32MECOrchestratorMessageDescriptorC1Ev @3506
    _ZN32MECOrchestratorMessageDescriptorC2Ev @3507
    _ZN32MECOrchestratorMessageDescriptorD0Ev @3508
    _ZN32MECOrchestratorMessageDescriptorD1Ev @3509
    _ZN32MECOrchestratorMessageDescriptorD2Ev @3510
    _ZN32MecRequestBackgroundGeneratorApp10initializeEi @3511
    _ZN32MecRequestBackgroundGeneratorApp11establishedEi @3512
    _ZN32MecRequestBackgroundGeneratorApp15handleUeMessageEPN7omnetpp8cMessageE @3513
    _ZN32MecRequestBackgroundGeneratorApp15sendBulkRequestEv @3514
    _ZN32MecRequestBackgroundGeneratorApp16handleMp1MessageEi @3515
    _ZN32MecRequestBackgroundGeneratorApp17handleHttpMessageEi @3516
    _ZN32MecRequestBackgroundGeneratorApp17handleSelfMessageEPN7omnetpp8cMessageE @3517
    _ZN32MecRequestBackgroundGeneratorApp20handleServiceMessageEi @3518
    _ZN32MecRequestBackgroundGeneratorApp6finishEv @3519
    _ZN32MecRequestBackgroundGeneratorAppC1Ev @3520
    _ZN32MecRequestBackgroundGeneratorAppC2Ev @3521
    _ZN32MecRequestBackgroundGeneratorAppD0Ev @3522
    _ZN32MecRequestBackgroundGeneratorAppD1Ev @3523
    _ZN32MecRequestBackgroundGeneratorAppD2Ev @3524
    _ZN33DeleteContextAppMessageDescriptorC1Ev @3525
    _ZN33DeleteContextAppMessageDescriptorC2Ev @3526
    _ZN33DeleteContextAppMessageDescriptorD0Ev @3527
    _ZN33DeleteContextAppMessageDescriptorD1Ev @3528
    _ZN33DeleteContextAppMessageDescriptorD2Ev @3529
    _ZN33DeviceAppStartAckPacketDescriptorC1Ev @3530
    _ZN33DeviceAppStartAckPacketDescriptorC2Ev @3531
    _ZN33DeviceAppStartAckPacketDescriptorD0Ev @3532
    _ZN33DeviceAppStartAckPacketDescriptorD1Ev @3533
    _ZN33DeviceAppStartAckPacketDescriptorD2Ev @3534
    _ZN33LteAllocationModuleFrequencyReuse15storeAllocationESt6vectorIS0_ISt3mapIt23AllocatedRbsPerBandInfoSt4lessItESaISt4pairIKtS2_EEESaIS9_EESaISB_EEPSt3setItS4_SaItEE @3535
    _ZN33LteAllocationModuleFrequencyReuse25getAllocatorOccupiedBandsEv @3536
    _ZN33LteAllocationModuleFrequencyReuseC1EP9LteMacEnb9Direction @3537
    _ZN33LteAllocationModuleFrequencyReuseC2EP9LteMacEnb9Direction @3538
    _ZN33LteAllocationModuleFrequencyReuseD0Ev @3539
    _ZN33LteAllocationModuleFrequencyReuseD2Ev @3540
    _ZN34MecRequestResponsePacketDescriptorC1Ev @3541
    _ZN34MecRequestResponsePacketDescriptorC2Ev @3542
    _ZN34MecRequestResponsePacketDescriptorD0Ev @3543
    _ZN34MecRequestResponsePacketDescriptorD1Ev @3544
    _ZN34MecRequestResponsePacketDescriptorD2Ev @3545
    _ZN34RequestResponseAppPacketDescriptorC1Ev @3546
    _ZN34RequestResponseAppPacketDescriptorC2Ev @3547
    _ZN34RequestResponseAppPacketDescriptorD0Ev @3548
    _ZN34RequestResponseAppPacketDescriptorD1Ev @3549
    _ZN34RequestResponseAppPacketDescriptorD2Ev @3550
    _ZN35D2DModeSwitchNotificationDescriptorC1Ev @3551
    _ZN35D2DModeSwitchNotificationDescriptorC2Ev @3552
    _ZN35D2DModeSwitchNotificationDescriptorD0Ev @3553
    _ZN35D2DModeSwitchNotificationDescriptorD1Ev @3554
    _ZN35D2DModeSwitchNotificationDescriptorD2Ev @3555
    _ZN35VirtualisationInfrastructureManager10initializeEi @3556
    _ZN35VirtualisationInfrastructureManager11findServiceEPKc @3557
    _ZN35VirtualisationInfrastructureManager11isAllocableEddd @3558
    _ZN35VirtualisationInfrastructureManager13handleMessageEPN7omnetpp8cMessageE @3559
    _ZN35VirtualisationInfrastructureManager14printResourcesEv @3560
    _ZN35VirtualisationInfrastructureManager14registerMecAppEiiid @3561
    _ZN35VirtualisationInfrastructureManager14terminateMEAppEP16DeleteAppMessage @3562
    _ZN35VirtualisationInfrastructureManager16deRegisterMecAppEi @3563
    _ZN35VirtualisationInfrastructureManager16instantiateMEAppEP16CreateAppMessage @3564
    _ZN35VirtualisationInfrastructureManager17allocateResourcesEddd @3565
    _ZN35VirtualisationInfrastructureManager19deallocateResourcesEddd @3566
    _ZN35VirtualisationInfrastructureManager22reserveResourcesBGAppsEv @3567
    _ZN35VirtualisationInfrastructureManager22terminateEmulatedMEAppEP16DeleteAppMessage @3568
    _ZN35VirtualisationInfrastructureManager23calculateProcessingTimeEii @3569
    _ZN35VirtualisationInfrastructureManager24instantiateEmulatedMEAppEP16CreateAppMessage @3570
    _ZN35VirtualisationInfrastructureManagerC1Ev @3571
    _ZN35VirtualisationInfrastructureManagerC2Ev @3572
    _ZN35VirtualisationInfrastructureManagerD0Ev @3573
    _ZN35VirtualisationInfrastructureManagerD2Ev @3574
    _ZN36DeleteContextAppAckMessageDescriptorC1Ev @3575
    _ZN36DeleteContextAppAckMessageDescriptorC2Ev @3576
    _ZN36DeleteContextAppAckMessageDescriptorD0Ev @3577
    _ZN36DeleteContextAppAckMessageDescriptorD1Ev @3578
    _ZN36DeleteContextAppAckMessageDescriptorD2Ev @3579
    _ZN36StartRealTimeVideoStreamingAppPacket12parsimUnpackEPN7omnetpp11cCommBufferE @3580
    _ZN36StartRealTimeVideoStreamingAppPacket12setSessionIdEi @3581
    _ZN36StartRealTimeVideoStreamingAppPacket4copyERKS_ @3582
    _ZN36StartRealTimeVideoStreamingAppPacket6setFpsEi @3583
    _ZN36StartRealTimeVideoStreamingAppPacket8setCodecEPKc @3584
    _ZN36StartRealTimeVideoStreamingAppPacketC1ERKS_ @3585
    _ZN36StartRealTimeVideoStreamingAppPacketC1Ev @3586
    _ZN36StartRealTimeVideoStreamingAppPacketC2ERKS_ @3587
    _ZN36StartRealTimeVideoStreamingAppPacketC2Ev @3588
    _ZN36StartRealTimeVideoStreamingAppPacketD0Ev @3589
    _ZN36StartRealTimeVideoStreamingAppPacketD1Ev @3590
    _ZN36StartRealTimeVideoStreamingAppPacketD2Ev @3591
    _ZN36StartRealTimeVideoStreamingAppPacketaSERKS_ @3592
    _ZN38AperiodicSubscriptionTimer_mDescriptorC1Ev @3593
    _ZN38AperiodicSubscriptionTimer_mDescriptorC2Ev @3594
    _ZN38AperiodicSubscriptionTimer_mDescriptorD0Ev @3595
    _ZN38AperiodicSubscriptionTimer_mDescriptorD1Ev @3596
    _ZN38AperiodicSubscriptionTimer_mDescriptorD2Ev @3597
    _ZN38RealTimeVideoStreamingAppSegmentHeader12parsimUnpackEPN7omnetpp11cCommBufferE @3598
    _ZN38RealTimeVideoStreamingAppSegmentHeader12setSessionIdEi @3599
    _ZN38RealTimeVideoStreamingAppSegmentHeader13setTotalFragsEi @3600
    _ZN38RealTimeVideoStreamingAppSegmentHeader14setFrameLengthEi @3601
    _ZN38RealTimeVideoStreamingAppSegmentHeader14setFrameNumberEm @3602
    _ZN38RealTimeVideoStreamingAppSegmentHeader14setPictureTypeEh @3603
    _ZN38RealTimeVideoStreamingAppSegmentHeader15setCurrentFragsEi @3604
    _ZN38RealTimeVideoStreamingAppSegmentHeader15setHeaderLengthEi @3605
    _ZN38RealTimeVideoStreamingAppSegmentHeader15setIsFragmentedEb @3606
    _ZN38RealTimeVideoStreamingAppSegmentHeader16setPayloadLengthEi @3607
    _ZN38RealTimeVideoStreamingAppSegmentHeader17setIsLastFragmentEb @3608
    _ZN38RealTimeVideoStreamingAppSegmentHeader17setSequenceNumberEm @3609
    _ZN38RealTimeVideoStreamingAppSegmentHeader19setPayloadTimestampEN7omnetpp7SimTimeE @3610
    _ZN38RealTimeVideoStreamingAppSegmentHeader4copyERKS_ @3611
    _ZN38RealTimeVideoStreamingAppSegmentHeaderC1ERKS_ @3612
    _ZN38RealTimeVideoStreamingAppSegmentHeaderC1Ev @3613
    _ZN38RealTimeVideoStreamingAppSegmentHeaderC2ERKS_ @3614
    _ZN38RealTimeVideoStreamingAppSegmentHeaderC2Ev @3615
    _ZN38RealTimeVideoStreamingAppSegmentHeaderD0Ev @3616
    _ZN38RealTimeVideoStreamingAppSegmentHeaderD1Ev @3617
    _ZN38RealTimeVideoStreamingAppSegmentHeaderD2Ev @3618
    _ZN38RealTimeVideoStreamingAppSegmentHeaderaSERKS_ @3619
    _ZN3lte5utils11splitStringERKNSt7__cxx1112basic_stringIcSt11char_traitsIcESaIcEEES6_ @3620
    _ZN3lte5utils16getPacketPayloadB5cxx11EPN7omnetpp8cMessageE @3621
    _ZN3mec11AssociateIdC2ERKS0_ @3622
    _ZN3mec11AssociateIdC2Ev @3623
    _ZN3mec11AssociateIdD2Ev @3624
    _ZN3mec4EcgiC2ERKS0_ @3625
    _ZN3mec4EcgiC2Ev @3626
    _ZN3mec4EcgiD2Ev @3627
    _ZN3mec4PlmnC2ERKS0_ @3628
    _ZN3mec4PlmnC2Ev @3629
    _ZN3mec4PlmnD2Ev @3630
    _ZN41RealTimeVideoStreamingAppPacketDescriptorC1Ev @3631
    _ZN41RealTimeVideoStreamingAppPacketDescriptorC2Ev @3632
    _ZN41RealTimeVideoStreamingAppPacketDescriptorD0Ev @3633
    _ZN41RealTimeVideoStreamingAppPacketDescriptorD1Ev @3634
    _ZN41RealTimeVideoStreamingAppPacketDescriptorD2Ev @3635
    _ZN42StopSessionRealTimeVideoStreamingAppPacket12parsimUnpackEPN7omnetpp11cCommBufferE @3636
    _ZN42StopSessionRealTimeVideoStreamingAppPacket12setSessionIdEi @3637
    _ZN42StopSessionRealTimeVideoStreamingAppPacket4copyERKS_ @3638
    _ZN42StopSessionRealTimeVideoStreamingAppPacketC1ERKS_ @3639
    _ZN42StopSessionRealTimeVideoStreamingAppPacketC1Ev @3640
    _ZN42StopSessionRealTimeVideoStreamingAppPacketC2ERKS_ @3641
    _ZN42StopSessionRealTimeVideoStreamingAppPacketC2Ev @3642
    _ZN42StopSessionRealTimeVideoStreamingAppPacketD0Ev @3643
    _ZN42StopSessionRealTimeVideoStreamingAppPacketD1Ev @3644
    _ZN42StopSessionRealTimeVideoStreamingAppPacketD2Ev @3645
    _ZN42StopSessionRealTimeVideoStreamingAppPacketaSERKS_ @3646
    _ZN43StartSessionRealTimeVideoStreamingAppPacket12parsimUnpackEPN7omnetpp11cCommBufferE @3647
    _ZN43StartSessionRealTimeVideoStreamingAppPacket12setSessionIdEi @3648
    _ZN43StartSessionRealTimeVideoStreamingAppPacket4copyERKS_ @3649
    _ZN43StartSessionRealTimeVideoStreamingAppPacket6setFpsEi @3650
    _ZN43StartSessionRealTimeVideoStreamingAppPacket8setCodecEPKc @3651
    _ZN43StartSessionRealTimeVideoStreamingAppPacketC1ERKS_ @3652
    _ZN43StartSessionRealTimeVideoStreamingAppPacketC1Ev @3653
    _ZN43StartSessionRealTimeVideoStreamingAppPacketC2ERKS_ @3654
    _ZN43StartSessionRealTimeVideoStreamingAppPacketC2Ev @3655
    _ZN43StartSessionRealTimeVideoStreamingAppPacketD0Ev @3656
    _ZN43StartSessionRealTimeVideoStreamingAppPacketD1Ev @3657
    _ZN43StartSessionRealTimeVideoStreamingAppPacketD2Ev @3658
    _ZN43StartSessionRealTimeVideoStreamingAppPacketaSERKS_ @3659
    _ZN46StartRealTimeVideoStreamingAppPacketDescriptorC1Ev @3660
    _ZN46StartRealTimeVideoStreamingAppPacketDescriptorC2Ev @3661
    _ZN46StartRealTimeVideoStreamingAppPacketDescriptorD0Ev @3662
    _ZN46StartRealTimeVideoStreamingAppPacketDescriptorD1Ev @3663
    _ZN46StartRealTimeVideoStreamingAppPacketDescriptorD2Ev @3664
    _ZN48RealTimeVideoStreamingAppSegmentHeaderDescriptorC1Ev @3665
    _ZN48RealTimeVideoStreamingAppSegmentHeaderDescriptorC2Ev @3666
    _ZN48RealTimeVideoStreamingAppSegmentHeaderDescriptorD0Ev @3667
    _ZN48RealTimeVideoStreamingAppSegmentHeaderDescriptorD1Ev @3668
    _ZN48RealTimeVideoStreamingAppSegmentHeaderDescriptorD2Ev @3669
    _ZN4Ecgi7setEcgiERKN3mec4EcgiE @3670
    _ZN4Ecgi7setPlmnEN3mec4PlmnE @3671
    _ZN4Ecgi7setPlmnERK4Plmn @3672
    _ZN4Ecgi9setCellIdEt @3673
    _ZN4EcgiC1EN3mec4EcgiE @3674
    _ZN4EcgiC1Et @3675
    _ZN4EcgiC1EtR4Plmn @3676
    _ZN4EcgiC1Ev @3677
    _ZN4EcgiC2EN3mec4EcgiE @3678
    _ZN4EcgiC2ERKS_ @3679
    _ZN4EcgiC2Et @3680
    _ZN4EcgiC2EtR4Plmn @3681
    _ZN4EcgiC2Ev @3682
    _ZN4EcgiD0Ev @3683
    _ZN4EcgiD1Ev @3684
    _ZN4EcgiD2Ev @3685
    _ZN4Http10sendPacketEPKcPN4inet9TcpSocketE @3686
    _ZN4Http11parseHeaderERKNSt7__cxx1112basic_stringIcSt11char_traitsIcESaIcEEE @3687
    _ZN4Http12addBodyChunkEPNSt7__cxx1112basic_stringIcSt11char_traitsIcESaIcEEEP15HttpBaseMessage @3688
    _ZN4Http12parseTcpDataEPNSt7__cxx1112basic_stringIcSt11char_traitsIcESaIcEEEP15HttpBaseMessage @3689
    _ZN4Http14sendGetRequestEPN4inet9TcpSocketEPKcS4_S4_S4_ @3690
    _ZN4Http14sendPutRequestEPN4inet9TcpSocketEPKcS4_S4_S4_ @3691
    _ZN4Http15send200ResponseEPN4inet9TcpSocketEPKc @3692
    _ZN4Http15send201ResponseEPN4inet9TcpSocketEPKc @3693
    _ZN4Http15send201ResponseEPN4inet9TcpSocketEPKcRSt3mapINSt7__cxx1112basic_stringIcSt11char_traitsIcESaIcEEESB_St4lessISB_ESaISt4pairIKSB_SB_EEE @3694
    _ZN4Http15send201ResponseEPN4inet9TcpSocketEPKcRSt4pairINSt7__cxx1112basic_stringIcSt11char_traitsIcESaIcEEESB_E @3695
    _ZN4Http15send204ResponseEPN4inet9TcpSocketE @3696
    _ZN4Http15send400ResponseEPN4inet9TcpSocketE @3697
    _ZN4Http15send400ResponseEPN4inet9TcpSocketEPKc @3698
    _ZN4Http15send404ResponseEPN4inet9TcpSocketE @3699
    _ZN4Http15send404ResponseEPN4inet9TcpSocketEPKc @3700
    _ZN4Http15send405ResponseEPN4inet9TcpSocketEPKc @3701
    _ZN4Http15send500ResponseEPN4inet9TcpSocketEPKc @3702
    _ZN4Http15send503ResponseEPN4inet9TcpSocketEPKc @3703
    _ZN4Http15send505ResponseEPN4inet9TcpSocketE @3704
    _ZN4Http15sendHttpRequestEPN4inet9TcpSocketEPKcS4_RSt3mapINSt7__cxx1112basic_stringIcSt11char_traitsIcESaIcEEESB_St4lessISB_ESaISt4pairIKSB_SB_EEES4_S4_S4_ @3705
    _ZN4Http15sendHttpRequestEPN4inet9TcpSocketEPKcS4_RSt4pairINSt7__cxx1112basic_stringIcSt11char_traitsIcESaIcEEESB_ES4_S4_S4_ @3706
    _ZN4Http15sendHttpRequestEPN4inet9TcpSocketEPKcS4_S4_S4_S4_ @3707
    _ZN4Http15sendPostRequestEPN4inet9TcpSocketEPKcS4_S4_S4_ @3708
    _ZN4Http16checkHttpVersionERNSt7__cxx1112basic_stringIcSt11char_traitsIcESaIcEEE @3709
    _ZN4Http16parseReceivedMsgERNSt7__cxx1112basic_stringIcSt11char_traitsIcESaIcEEEPS5_PP15HttpBaseMessage @3710
    _ZN4Http16parseReceivedMsgEiRNSt7__cxx1112basic_stringIcSt11char_traitsIcESaIcEEERN7omnetpp6cQueueEPS5_PP15HttpBaseMessage @3711
    _ZN4Http16sendHttpResponseEPN4inet9TcpSocketEiPKcRSt3mapINSt7__cxx1112basic_stringIcSt11char_traitsIcESaIcEEESB_St4lessISB_ESaISt4pairIKSB_SB_EEES4_ @3712
    _ZN4Http16sendHttpResponseEPN4inet9TcpSocketEiPKcRSt4pairINSt7__cxx1112basic_stringIcSt11char_traitsIcESaIcEEESB_ES4_ @3713
    _ZN4Http16sendHttpResponseEPN4inet9TcpSocketEiPKcS4_ @3714
    _ZN4Http17ProblemDetailBase6toJsonB5cxx11Ev @3715
    _ZN4Http17ProblemDetailBaseC2Ev @3716
    _ZN4Http17ProblemDetailBaseD2Ev @3717
    _ZN4Http17sendDeleteRequestEPN4inet9TcpSocketEPKcS4_ @3718
    _ZN4Http22checkHttpRequestMethodERKNSt7__cxx1112basic_stringIcSt11char_traitsIcESaIcEEE @3719
    _ZN4Plmn6setMccERKNSt7__cxx1112basic_stringIcSt11char_traitsIcESaIcEEE @3720
    _ZN4Plmn6setMncERKNSt7__cxx1112basic_stringIcSt11char_traitsIcESaIcEEE @3721
    _ZN4PlmnC1ERKNSt7__cxx1112basic_stringIcSt11char_traitsIcESaIcEEES7_ @3722
    _ZN4PlmnC1Ev @3723
    _ZN4PlmnC2ERKNSt7__cxx1112basic_stringIcSt11char_traitsIcESaIcEEES7_ @3724
    _ZN4PlmnC2ERKS_ @3725
    _ZN4PlmnC2Ev @3726
    _ZN4PlmnD0Ev @3727
    _ZN4PlmnD1Ev @3728
    _ZN4PlmnD2Ev @3729
    _ZN4PlmnaSERKS_ @3730
    _ZN4UserC1ERKN4inet11Ipv4AddressEtRKNSt7__cxx1112basic_stringIcSt11char_traitsIcESaIcEEEi @3731
    _ZN4UserC1Ev @3732
    _ZN4UserC2ERKN4inet11Ipv4AddressEtRKNSt7__cxx1112basic_stringIcSt11char_traitsIcESaIcEEEi @3733
    _ZN4UserC2Ev @3734
    _ZN4UserD0Ev @3735
    _ZN4UserD2Ev @3736
    _ZN4inet10SctpClient15socketAvailableEPNS_10SctpSocketEPNS_10IndicationE @3737
    _ZN4inet10SctpSocket9ICallback13socketDeletedEPS0_ @3738
    _ZN4inet10SctpSocket9ICallback19addressAddedArrivedEPS0_NS_9L3AddressES3_ @3739
    _ZN4inet10SctpSocket9ICallback20sendqueueFullArrivedEPS0_ @3740
    _ZN4inet10SctpSocket9ICallback20socketOptionsArrivedEPS0_PNS_10IndicationE @3741
    _ZN4inet10makeSharedI10GtpUserMsgJEEENS_12IntrusivePtrIT_EEDpOT0_ @3742
    _ZN4inet10makeSharedI10LtePdcpPduJEEENS_12IntrusivePtrIT_EEDpOT0_ @3743
    _ZN4inet10makeSharedI10LteRohcPduJEEENS_12IntrusivePtrIT_EEDpOT0_ @3744
    _ZN4inet10makeSharedI10VoipPacketJEEENS_12IntrusivePtrIT_EEDpOT0_ @3745
    _ZN4inet10makeSharedI11AlertPacketJEEENS_12IntrusivePtrIT_EEDpOT0_ @3746
    _ZN4inet10makeSharedI11BurstPacketJEEENS_12IntrusivePtrIT_EEDpOT0_ @3747
    _ZN4inet10makeSharedI11LteRlcAmPduJEEENS_12IntrusivePtrIT_EEDpOT0_ @3748
    _ZN4inet10makeSharedI11LteRlcAmSduJEEENS_12IntrusivePtrIT_EEDpOT0_ @3749
    _ZN4inet10makeSharedI14LteFeedbackPktJEEENS_12IntrusivePtrIT_EEDpOT0_ @3750
    _ZN4inet10makeSharedI14TftControlInfoJEEENS_12IntrusivePtrIT_EEDpOT0_ @3751
    _ZN4inet10makeSharedI15FlowControlInfoJEEENS_12IntrusivePtrIT_EEDpOT0_ @3752
    _ZN4inet10makeSharedI15LteHarqFeedbackJEEENS_12IntrusivePtrIT_EEDpOT0_ @3753
    _ZN4inet10makeSharedI15LteRlcUmDataPduJEEENS_12IntrusivePtrIT_EEDpOT0_ @3754
    _ZN4inet10makeSharedI15UserControlInfoJEEENS_12IntrusivePtrIT_EEDpOT0_ @3755
    _ZN4inet10makeSharedI16LteMacSduRequestJEEENS_12IntrusivePtrIT_EEDpOT0_ @3756
    _ZN4inet10makeSharedI16LteRlcPduNewDataJEEENS_12IntrusivePtrIT_EEDpOT0_ @3757
    _ZN4inet10makeSharedI16WarningAppPacketJEEENS_12IntrusivePtrIT_EEDpOT0_ @3758
    _ZN4inet10makeSharedI16X2ControlInfoTagJEEENS_12IntrusivePtrIT_EEDpOT0_ @3759
    _ZN4inet10makeSharedI17MultihopD2DPacketJEEENS_12IntrusivePtrIT_EEDpOT0_ @3760
    _ZN4inet10makeSharedI17WarningStopPacketJEEENS_12IntrusivePtrIT_EEDpOT0_ @3761
    _ZN4inet10makeSharedI17X2HandoverDataMsgJEEENS_12IntrusivePtrIT_EEDpOT0_ @3762
    _ZN4inet10makeSharedI18HttpRequestMessageJEEENS_12IntrusivePtrIT_EEDpOT0_ @3763
    _ZN4inet10makeSharedI18LteSchedulingGrantJEEENS_12IntrusivePtrIT_EEDpOT0_ @3764
    _ZN4inet10makeSharedI18WarningAlertPacketJEEENS_12IntrusivePtrIT_EEDpOT0_ @3765
    _ZN4inet10makeSharedI18WarningStartPacketJEEENS_12IntrusivePtrIT_EEDpOT0_ @3766
    _ZN4inet10makeSharedI19DeviceAppStopPacketJEEENS_12IntrusivePtrIT_EEDpOT0_ @3767
    _ZN4inet10makeSharedI19HttpResponseMessageJEEENS_12IntrusivePtrIT_EEDpOT0_ @3768
    _ZN4inet10makeSharedI20DeviceAppStartPacketJEEENS_12IntrusivePtrIT_EEDpOT0_ @3769
    _ZN4inet10makeSharedI20X2HandoverControlMsgJEEENS_12IntrusivePtrIT_EEDpOT0_ @3770
    _ZN4inet10makeSharedI21LteHarqFeedbackMirrorJEEENS_12IntrusivePtrIT_EEDpOT0_ @3771
    _ZN4inet10makeSharedI22DeviceAppStopAckPacketJEEENS_12IntrusivePtrIT_EEDpOT0_ @3772
    _ZN4inet10makeSharedI23DeviceAppStartAckPacketJEEENS_12IntrusivePtrIT_EEDpOT0_ @3773
    _ZN4inet10makeSharedI24MecRequestResponsePacketJEEENS_12IntrusivePtrIT_EEDpOT0_ @3774
    _ZN4inet10makeSharedI24RequestResponseAppPacketJEEENS_12IntrusivePtrIT_EEDpOT0_ @3775
    _ZN4inet10makeSharedI25D2DModeSwitchNotificationJEEENS_12IntrusivePtrIT_EEDpOT0_ @3776
    _ZN4inet10makeSharedI25X2DualConnectivityDataMsgJEEENS_12IntrusivePtrIT_EEDpOT0_ @3777
    _ZN4inet10makeSharedI31RealTimeVideoStreamingAppPacketJEEENS_12IntrusivePtrIT_EEDpOT0_ @3778
    _ZN4inet10makeSharedI36StartRealTimeVideoStreamingAppPacketJEEENS_12IntrusivePtrIT_EEDpOT0_ @3779
    _ZN4inet10makeSharedI38RealTimeVideoStreamingAppSegmentHeaderJEEENS_12IntrusivePtrIT_EEDpOT0_ @3780
    _ZN4inet10makeSharedI42StopSessionRealTimeVideoStreamingAppPacketJEEENS_12IntrusivePtrIT_EEDpOT0_ @3781
    _ZN4inet10makeSharedI43StartSessionRealTimeVideoStreamingAppPacketJEEENS_12IntrusivePtrIT_EEDpOT0_ @3782
    _ZN4inet10makeSharedI6LteRacJEEENS_12IntrusivePtrIT_EEDpOT0_ @3783
    _ZN4inet10makeSharedI9CbrPacketJEEENS_12IntrusivePtrIT_EEDpOT0_ @3784
    _ZN4inet10makeSharedI9LteMacPduJEEENS_12IntrusivePtrIT_EEDpOT0_ @3785
    _ZN4inet10makeSharedI9LteRlcPduJEEENS_12IntrusivePtrIT_EEDpOT0_ @3786
    _ZN4inet10makeSharedI9LteRlcSduJEEENS_12IntrusivePtrIT_EEDpOT0_ @3787
    _ZN4inet10makeSharedI9VoDPacketJEEENS_12IntrusivePtrIT_EEDpOT0_ @3788
    _ZN4inet10makeSharedI9X2CompMsgJEEENS_12IntrusivePtrIT_EEDpOT0_ @3789
    _ZN4inet10makeSharedINS_10BytesChunkEJEEENS_12IntrusivePtrIT_EEDpOT0_ @3790
    _ZN4inet10makeSharedINS_11SctpSendReqEJEEENS_12IntrusivePtrIT_EEDpOT0_ @3791
    _ZN4inet10makeSharedINS_12InterfaceIndEJEEENS_12IntrusivePtrIT_EEDpOT0_ @3792
    _ZN4inet10makeSharedINS_12InterfaceReqEJEEENS_12IntrusivePtrIT_EEDpOT0_ @3793
    _ZN4inet10makeSharedINS_14ByteCountChunkEJEEENS_12IntrusivePtrIT_EEDpOT0_ @3794
    _ZN4inet10makeSharedINS_14ByteCountChunkEJNS_5units5valueIxNS2_8intscaleINS2_5units1bELi1ELi8EEEEEEEENS_12IntrusivePtrIT_EEDpOT0_ @3795
    _ZN4inet10makeSharedINS_15CreationTimeTagEJEEENS_12IntrusivePtrIT_EEDpOT0_ @3796
    _ZN4inet10makeSharedINS_17PacketProtocolTagEJEEENS_12IntrusivePtrIT_EEDpOT0_ @3797
    _ZN4inet10makeSharedINS_18NetworkProtocolIndEJEEENS_12IntrusivePtrIT_EEDpOT0_ @3798
    _ZN4inet10makeSharedINS_19DispatchProtocolReqEJEEENS_12IntrusivePtrIT_EEDpOT0_ @3799
    _ZN4inet11EulerAnglesC2ENS_5units5valueIdNS1_5units3radEEES5_S5_ @3800
    _ZN4inet11FieldsChunk12convertChunkERKSt9type_infoRKNS_12IntrusivePtrINS_5ChunkEEENS_5units5valueIxNS9_5units1bEEESD_i @3801
    _ZN4inet11FieldsChunk14addChunkLengthENS_5units5valueIxNS1_5units1bEEE @3802
    _ZN4inet11FieldsChunk14setChunkLengthENS_5units5valueIxNS1_5units1bEEE @3803
    _ZN4inet11FieldsChunkaSERKS0_ @3804
    _ZN4inet11Ipv4AddressC2EPKc @3805
    _ZN4inet11Ipv4AddressC2ERKS0_ @3806
    _ZN4inet11Ipv4AddressC2Ej @3807
    _ZN4inet11Ipv4AddressC2Ev @3808
    _ZN4inet11Ipv4AddressD2Ev @3809
    _ZN4inet11Ipv4AddressaSERKS0_ @3810
    _ZN4inet12MobilityBase17findSubjectModuleEv @3811
    _ZN4inet12SharedVectorINS_12IntrusivePtrIKNS_7TagBaseEEEED2Ev @3812
    _ZN4inet12SharedVectorINS_19SharingRegionTagSet9RegionTagINS_7TagBaseEEEED2Ev @3813
    _ZN4inet12constPtrCastI10LteRohcPduKS1_EENS_12IntrusivePtrIT_EERKNS3_IT0_EE @3814
    _ZN4inet12constPtrCastI11LteRlcAmPduKS1_EENS_12IntrusivePtrIT_EERKNS3_IT0_EE @3815
    _ZN4inet12constPtrCastI12LteX2MessageKS1_EENS_12IntrusivePtrIT_EERKNS3_IT0_EE @3816
    _ZN4inet12constPtrCastI14LteFeedbackPktKS1_EENS_12IntrusivePtrIT_EERKNS3_IT0_EE @3817
    _ZN4inet12constPtrCastI15LteRlcUmDataPduKS1_EENS_12IntrusivePtrIT_EERKNS3_IT0_EE @3818
    _ZN4inet12constPtrCastI24RequestResponseAppPacketKS1_EENS_12IntrusivePtrIT_EERKNS3_IT0_EE @3819
    _ZN4inet12constPtrCastI25D2DModeSwitchNotificationKS1_EENS_12IntrusivePtrIT_EERKNS3_IT0_EE @3820
    _ZN4inet12constPtrCastI25X2DualConnectivityDataMsgKS1_EENS_12IntrusivePtrIT_EERKNS3_IT0_EE @3821
    _ZN4inet12constPtrCastI31RealTimeVideoStreamingAppPacketKS1_EENS_12IntrusivePtrIT_EERKNS3_IT0_EE @3822
    _ZN4inet12constPtrCastI36StartRealTimeVideoStreamingAppPacketKS1_EENS_12IntrusivePtrIT_EERKNS3_IT0_EE @3823
    _ZN4inet12constPtrCastI42StopSessionRealTimeVideoStreamingAppPacketKS1_EENS_12IntrusivePtrIT_EERKNS3_IT0_EE @3824
    _ZN4inet12constPtrCastI43StartSessionRealTimeVideoStreamingAppPacketKS1_EENS_12IntrusivePtrIT_EERKNS3_IT0_EE @3825
    _ZN4inet12constPtrCastI6LteRacKS1_EENS_12IntrusivePtrIT_EERKNS3_IT0_EE @3826
    _ZN4inet12constPtrCastI9LteMacPduKS1_EENS_12IntrusivePtrIT_EERKNS3_IT0_EE @3827
    _ZN4inet12constPtrCastI9X2CompMsgKS1_EENS_12IntrusivePtrIT_EERKNS3_IT0_EE @3828
    _ZN4inet12constPtrCastINS_10Ipv4HeaderEKS1_EENS_12IntrusivePtrIT_EERKNS3_IT0_EE @3829
    _ZN4inet12constPtrCastINS_3tcp9TcpHeaderEKS2_EENS_12IntrusivePtrIT_EERKNS4_IT0_EE @3830
    _ZN4inet12constPtrCastINS_7TagBaseEKS1_EENS_12IntrusivePtrIT_EERKNS3_IT0_EE @3831
    _ZN4inet12constPtrCastINS_9UdpHeaderEKS1_EENS_12IntrusivePtrIT_EERKNS3_IT0_EE @3832
    _ZN4inet13PacketPrinterC2Ev @3833
    _ZN4inet13PacketPrinterD2Ev @3834
    _ZN4inet13SharingTagSet14addTagIfAbsentI15FlowControlInfoEEKNS_12IntrusivePtrIT_EEv @3835
    _ZN4inet13SharingTagSet14addTagIfAbsentI15UserControlInfoEEKNS_12IntrusivePtrIT_EEv @3836
    _ZN4inet13SharingTagSet14addTagIfAbsentI16X2ControlInfoTagEEKNS_12IntrusivePtrIT_EEv @3837
    _ZN4inet13SharingTagSet14addTagIfAbsentINS_11SctpSendReqEEEKNS_12IntrusivePtrIT_EEv @3838
    _ZN4inet13SharingTagSet14addTagIfAbsentINS_12InterfaceIndEEEKNS_12IntrusivePtrIT_EEv @3839
    _ZN4inet13SharingTagSet14addTagIfAbsentINS_12InterfaceReqEEEKNS_12IntrusivePtrIT_EEv @3840
    _ZN4inet13SharingTagSet14addTagIfAbsentINS_15CreationTimeTagEEEKNS_12IntrusivePtrIT_EEv @3841
    _ZN4inet13SharingTagSet14addTagIfAbsentINS_17PacketProtocolTagEEEKNS_12IntrusivePtrIT_EEv @3842
    _ZN4inet13SharingTagSet14addTagIfAbsentINS_18NetworkProtocolIndEEEKNS_12IntrusivePtrIT_EEv @3843
    _ZN4inet13SharingTagSet14addTagIfAbsentINS_19DispatchProtocolReqEEEKNS_12IntrusivePtrIT_EEv @3844
    _ZN4inet13SharingTagSet15getTagForUpdateEi @3845
    _ZN4inet13SharingTagSet15getTagForUpdateI15FlowControlInfoEEKNS_12IntrusivePtrIT_EEv @3846
    _ZN4inet13SharingTagSet15getTagForUpdateI15UserControlInfoEEKNS_12IntrusivePtrIT_EEv @3847
    _ZN4inet13SharingTagSet16findTagForUpdateI15FlowControlInfoEEKNS_12IntrusivePtrIT_EEv @3848
    _ZN4inet13SharingTagSet16findTagForUpdateI15UserControlInfoEEKNS_12IntrusivePtrIT_EEv @3849
    _ZN4inet13SharingTagSet16findTagForUpdateI16X2ControlInfoTagEEKNS_12IntrusivePtrIT_EEv @3850
    _ZN4inet13SharingTagSet16findTagForUpdateINS_11SctpSendReqEEEKNS_12IntrusivePtrIT_EEv @3851
    _ZN4inet13SharingTagSet16findTagForUpdateINS_12InterfaceIndEEEKNS_12IntrusivePtrIT_EEv @3852
    _ZN4inet13SharingTagSet16findTagForUpdateINS_12InterfaceReqEEEKNS_12IntrusivePtrIT_EEv @3853
    _ZN4inet13SharingTagSet16findTagForUpdateINS_15CreationTimeTagEEEKNS_12IntrusivePtrIT_EEv @3854
    _ZN4inet13SharingTagSet16findTagForUpdateINS_17PacketProtocolTagEEEKNS_12IntrusivePtrIT_EEv @3855
    _ZN4inet13SharingTagSet16findTagForUpdateINS_18NetworkProtocolIndEEEKNS_12IntrusivePtrIT_EEv @3856
    _ZN4inet13SharingTagSet16findTagForUpdateINS_19DispatchProtocolReqEEEKNS_12IntrusivePtrIT_EEv @3857
    _ZN4inet13SharingTagSet18removeTagIfPresentI14LteControlInfoEEKNS_12IntrusivePtrIT_EEv @3858
    _ZN4inet13SharingTagSet18removeTagIfPresentI14TftControlInfoEEKNS_12IntrusivePtrIT_EEv @3859
    _ZN4inet13SharingTagSet18removeTagIfPresentI15FlowControlInfoEEKNS_12IntrusivePtrIT_EEv @3860
    _ZN4inet13SharingTagSet18removeTagIfPresentI15UserControlInfoEEKNS_12IntrusivePtrIT_EEv @3861
    _ZN4inet13SharingTagSet18removeTagIfPresentI16X2ControlInfoTagEEKNS_12IntrusivePtrIT_EEv @3862
    _ZN4inet13SharingTagSet18removeTagIfPresentINS_11SctpSendReqEEEKNS_12IntrusivePtrIT_EEv @3863
    _ZN4inet13SharingTagSet18removeTagIfPresentINS_12InterfaceReqEEEKNS_12IntrusivePtrIT_EEv @3864
    _ZN4inet13SharingTagSet18removeTagIfPresentINS_9SocketIndEEEKNS_12IntrusivePtrIT_EEv @3865
    _ZN4inet13SharingTagSet6addTagI14TftControlInfoEEKNS_12IntrusivePtrIT_EEv @3866
    _ZN4inet13SharingTagSet6addTagI15FlowControlInfoEEKNS_12IntrusivePtrIT_EEv @3867
    _ZN4inet13SharingTagSet6addTagINS_19DispatchProtocolReqEEEKNS_12IntrusivePtrIT_EEv @3868
    _ZN4inet13SharingTagSet6setTagEiRKNS_12IntrusivePtrIKNS_7TagBaseEEE @3869
    _ZN4inet13SharingTagSet8copyTagsERKS0_ @3870
    _ZN4inet13SharingTagSet9removeTagI14TftControlInfoEEKNS_12IntrusivePtrIT_EEv @3871
    _ZN4inet13SharingTagSet9removeTagI15FlowControlInfoEEKNS_12IntrusivePtrIT_EEv @3872
    _ZN4inet13SharingTagSet9removeTagI15UserControlInfoEEKNS_12IntrusivePtrIT_EEv @3873
    _ZN4inet13SharingTagSetC2ERKS0_ @3874
    _ZN4inet13SharingTagSetD2Ev @3875
    _ZN4inet13SharingTagSetaSERKS0_ @3876
    _ZN4inet13staticPtrCastI10GtpUserMsgNS_5ChunkEEENS_12IntrusivePtrIT_EERKNS3_IT0_EE @3877
    _ZN4inet13staticPtrCastI10LtePdcpPduNS_5ChunkEEENS_12IntrusivePtrIT_EERKNS3_IT0_EE @3878
    _ZN4inet13staticPtrCastI10LteRohcPduNS_5ChunkEEENS_12IntrusivePtrIT_EERKNS3_IT0_EE @3879
    _ZN4inet13staticPtrCastI10VoipPacketNS_5ChunkEEENS_12IntrusivePtrIT_EERKNS3_IT0_EE @3880
    _ZN4inet13staticPtrCastI11AlertPacketNS_5ChunkEEENS_12IntrusivePtrIT_EERKNS3_IT0_EE @3881
    _ZN4inet13staticPtrCastI11BurstPacketNS_5ChunkEEENS_12IntrusivePtrIT_EERKNS3_IT0_EE @3882
    _ZN4inet13staticPtrCastI11LteRlcAmPduNS_5ChunkEEENS_12IntrusivePtrIT_EERKNS3_IT0_EE @3883
    _ZN4inet13staticPtrCastI11LteRlcAmSduNS_5ChunkEEENS_12IntrusivePtrIT_EERKNS3_IT0_EE @3884
    _ZN4inet13staticPtrCastI12LteX2MessageNS_5ChunkEEENS_12IntrusivePtrIT_EERKNS3_IT0_EE @3885
    _ZN4inet13staticPtrCastI14LteControlInfoNS_7TagBaseEEENS_12IntrusivePtrIT_EERKNS3_IT0_EE @3886
    _ZN4inet13staticPtrCastI14LteFeedbackPktNS_5ChunkEEENS_12IntrusivePtrIT_EERKNS3_IT0_EE @3887
    _ZN4inet13staticPtrCastI14TftControlInfoNS_7TagBaseEEENS_12IntrusivePtrIT_EERKNS3_IT0_EE @3888
    _ZN4inet13staticPtrCastI15DeviceAppPacketNS_5ChunkEEENS_12IntrusivePtrIT_EERKNS3_IT0_EE @3889
    _ZN4inet13staticPtrCastI15FlowControlInfoNS_7TagBaseEEENS_12IntrusivePtrIT_EERKNS3_IT0_EE @3890
    _ZN4inet13staticPtrCastI15LteHarqFeedbackNS_5ChunkEEENS_12IntrusivePtrIT_EERKNS3_IT0_EE @3891
    _ZN4inet13staticPtrCastI15LteRlcUmDataPduNS_5ChunkEEENS_12IntrusivePtrIT_EERKNS3_IT0_EE @3892
    _ZN4inet13staticPtrCastI15UserControlInfoNS_7TagBaseEEENS_12IntrusivePtrIT_EERKNS3_IT0_EE @3893
    _ZN4inet13staticPtrCastI16LteMacSduRequestNS_5ChunkEEENS_12IntrusivePtrIT_EERKNS3_IT0_EE @3894
    _ZN4inet13staticPtrCastI16LteRlcPduNewDataNS_5ChunkEEENS_12IntrusivePtrIT_EERKNS3_IT0_EE @3895
    _ZN4inet13staticPtrCastI16WarningAppPacketNS_5ChunkEEENS_12IntrusivePtrIT_EERKNS3_IT0_EE @3896
    _ZN4inet13staticPtrCastI16X2ControlInfoTagNS_7TagBaseEEENS_12IntrusivePtrIT_EERKNS3_IT0_EE @3897
    _ZN4inet13staticPtrCastI17MultihopD2DPacketNS_5ChunkEEENS_12IntrusivePtrIT_EERKNS3_IT0_EE @3898
    _ZN4inet13staticPtrCastI18LteSchedulingGrantNS_5ChunkEEENS_12IntrusivePtrIT_EERKNS3_IT0_EE @3899
    _ZN4inet13staticPtrCastI18WarningAlertPacketNS_5ChunkEEENS_12IntrusivePtrIT_EERKNS3_IT0_EE @3900
    _ZN4inet13staticPtrCastI21LteHarqFeedbackMirrorNS_5ChunkEEENS_12IntrusivePtrIT_EERKNS3_IT0_EE @3901
    _ZN4inet13staticPtrCastI22DeviceAppStopAckPacketNS_5ChunkEEENS_12IntrusivePtrIT_EERKNS3_IT0_EE @3902
    _ZN4inet13staticPtrCastI23DeviceAppStartAckPacketNS_5ChunkEEENS_12IntrusivePtrIT_EERKNS3_IT0_EE @3903
    _ZN4inet13staticPtrCastI24MecRequestResponsePacketNS_5ChunkEEENS_12IntrusivePtrIT_EERKNS3_IT0_EE @3904
    _ZN4inet13staticPtrCastI24RequestResponseAppPacketNS_5ChunkEEENS_12IntrusivePtrIT_EERKNS3_IT0_EE @3905
    _ZN4inet13staticPtrCastI25D2DModeSwitchNotificationNS_5ChunkEEENS_12IntrusivePtrIT_EERKNS3_IT0_EE @3906
    _ZN4inet13staticPtrCastI25X2DualConnectivityDataMsgNS_5ChunkEEENS_12IntrusivePtrIT_EERKNS3_IT0_EE @3907
    _ZN4inet13staticPtrCastI31RealTimeVideoStreamingAppPacketNS_5ChunkEEENS_12IntrusivePtrIT_EERKNS3_IT0_EE @3908
    _ZN4inet13staticPtrCastI36StartRealTimeVideoStreamingAppPacketNS_5ChunkEEENS_12IntrusivePtrIT_EERKNS3_IT0_EE @3909
    _ZN4inet13staticPtrCastI38RealTimeVideoStreamingAppSegmentHeaderNS_5ChunkEEENS_12IntrusivePtrIT_EERKNS3_IT0_EE @3910
    _ZN4inet13staticPtrCastI42StopSessionRealTimeVideoStreamingAppPacketNS_5ChunkEEENS_12IntrusivePtrIT_EERKNS3_IT0_EE @3911
    _ZN4inet13staticPtrCastI43StartSessionRealTimeVideoStreamingAppPacketNS_5ChunkEEENS_12IntrusivePtrIT_EERKNS3_IT0_EE @3912
    _ZN4inet13staticPtrCastI6LteRacNS_5ChunkEEENS_12IntrusivePtrIT_EERKNS3_IT0_EE @3913
    _ZN4inet13staticPtrCastI9CbrPacketNS_5ChunkEEENS_12IntrusivePtrIT_EERKNS3_IT0_EE @3914
    _ZN4inet13staticPtrCastI9LteMacPduNS_5ChunkEEENS_12IntrusivePtrIT_EERKNS3_IT0_EE @3915
    _ZN4inet13staticPtrCastI9LteRlcSduNS_5ChunkEEENS_12IntrusivePtrIT_EERKNS3_IT0_EE @3916
    _ZN4inet13staticPtrCastI9X2CompMsgNS_5ChunkEEENS_12IntrusivePtrIT_EERKNS3_IT0_EE @3917
    _ZN4inet13staticPtrCastIK10GtpUserMsgKNS_5ChunkEEENS_12IntrusivePtrIT_EERKNS5_IT0_EE @3918
    _ZN4inet13staticPtrCastIK10VoipPacketKNS_5ChunkEEENS_12IntrusivePtrIT_EERKNS5_IT0_EE @3919
    _ZN4inet13staticPtrCastIK12LteX2MessageKNS_5ChunkEEENS_12IntrusivePtrIT_EERKNS5_IT0_EE @3920
    _ZN4inet13staticPtrCastIK15DeviceAppPacketKNS_5ChunkEEENS_12IntrusivePtrIT_EERKNS5_IT0_EE @3921
    _ZN4inet13staticPtrCastIK15FlowControlInfoKNS_7TagBaseEEENS_12IntrusivePtrIT_EERKNS5_IT0_EE @3922
    _ZN4inet13staticPtrCastIK15UserControlInfoKNS_7TagBaseEEENS_12IntrusivePtrIT_EERKNS5_IT0_EE @3923
    _ZN4inet13staticPtrCastIK16WarningAppPacketKNS_5ChunkEEENS_12IntrusivePtrIT_EERKNS5_IT0_EE @3924
    _ZN4inet13staticPtrCastIK17WarningStopPacketKNS_5ChunkEEENS_12IntrusivePtrIT_EERKNS5_IT0_EE @3925
    _ZN4inet13staticPtrCastIK18HttpRequestMessageKNS_5ChunkEEENS_12IntrusivePtrIT_EERKNS5_IT0_EE @3926
    _ZN4inet13staticPtrCastIK18WarningAlertPacketKNS_5ChunkEEENS_12IntrusivePtrIT_EERKNS5_IT0_EE @3927
    _ZN4inet13staticPtrCastIK18WarningStartPacketKNS_5ChunkEEENS_12IntrusivePtrIT_EERKNS5_IT0_EE @3928
    _ZN4inet13staticPtrCastIK19DeviceAppStopPacketKNS_5ChunkEEENS_12IntrusivePtrIT_EERKNS5_IT0_EE @3929
    _ZN4inet13staticPtrCastIK19HttpResponseMessageKNS_5ChunkEEENS_12IntrusivePtrIT_EERKNS5_IT0_EE @3930
    _ZN4inet13staticPtrCastIK20DeviceAppStartPacketKNS_5ChunkEEENS_12IntrusivePtrIT_EERKNS5_IT0_EE @3931
    _ZN4inet13staticPtrCastIK22DeviceAppStopAckPacketKNS_5ChunkEEENS_12IntrusivePtrIT_EERKNS5_IT0_EE @3932
    _ZN4inet13staticPtrCastIK23DeviceAppStartAckPacketKNS_5ChunkEEENS_12IntrusivePtrIT_EERKNS5_IT0_EE @3933
    _ZN4inet13staticPtrCastIKNS_12L3AddressIndEKNS_7TagBaseEEENS_12IntrusivePtrIT_EERKNS5_IT0_EE @3934
    _ZN4inet13staticPtrCastIKNS_15CreationTimeTagEKNS_7TagBaseEEENS_12IntrusivePtrIT_EERKNS5_IT0_EE @3935
    _ZN4inet13staticPtrCastIKNS_9L4PortIndEKNS_7TagBaseEEENS_12IntrusivePtrIT_EERKNS5_IT0_EE @3936
    _ZN4inet13staticPtrCastINS_10BytesChunkENS_5ChunkEEENS_12IntrusivePtrIT_EERKNS3_IT0_EE @3937
    _ZN4inet13staticPtrCastINS_10Ipv4HeaderENS_5ChunkEEENS_12IntrusivePtrIT_EERKNS3_IT0_EE @3938
    _ZN4inet13staticPtrCastINS_11SctpSendReqENS_7TagBaseEEENS_12IntrusivePtrIT_EERKNS3_IT0_EE @3939
    _ZN4inet13staticPtrCastINS_12InterfaceIndENS_7TagBaseEEENS_12IntrusivePtrIT_EERKNS3_IT0_EE @3940
    _ZN4inet13staticPtrCastINS_12InterfaceReqENS_7TagBaseEEENS_12IntrusivePtrIT_EERKNS3_IT0_EE @3941
    _ZN4inet13staticPtrCastINS_15CreationTimeTagENS_7TagBaseEEENS_12IntrusivePtrIT_EERKNS3_IT0_EE @3942
    _ZN4inet13staticPtrCastINS_17PacketProtocolTagENS_7TagBaseEEENS_12IntrusivePtrIT_EERKNS3_IT0_EE @3943
    _ZN4inet13staticPtrCastINS_18NetworkProtocolIndENS_7TagBaseEEENS_12IntrusivePtrIT_EERKNS3_IT0_EE @3944
    _ZN4inet13staticPtrCastINS_19DispatchProtocolReqENS_7TagBaseEEENS_12IntrusivePtrIT_EERKNS3_IT0_EE @3945
    _ZN4inet13staticPtrCastINS_3tcp9TcpHeaderENS_5ChunkEEENS_12IntrusivePtrIT_EERKNS4_IT0_EE @3946
    _ZN4inet13staticPtrCastINS_5ChunkES1_EENS_12IntrusivePtrIT_EERKNS2_IT0_EE @3947
    _ZN4inet13staticPtrCastINS_9SocketIndENS_7TagBaseEEENS_12IntrusivePtrIT_EERKNS3_IT0_EE @3948
    _ZN4inet13staticPtrCastINS_9UdpHeaderENS_5ChunkEEENS_12IntrusivePtrIT_EERKNS3_IT0_EE @3949
    _ZN4inet14InterfaceTokenC2Ejji @3950
    _ZN4inet14LinearMobilityD2Ev @3951
    _ZN4inet14MulticastGroupC2ERKS0_ @3952
    _ZN4inet14dynamicPtrCastI10GtpUserMsgNS_5ChunkEEENS_12IntrusivePtrIT_EERKNS3_IT0_EE @3953
    _ZN4inet14dynamicPtrCastI10LtePdcpPduNS_5ChunkEEENS_12IntrusivePtrIT_EERKNS3_IT0_EE @3954
    _ZN4inet14dynamicPtrCastI10LteRohcPduNS_5ChunkEEENS_12IntrusivePtrIT_EERKNS3_IT0_EE @3955
    _ZN4inet14dynamicPtrCastI10VoipPacketNS_5ChunkEEENS_12IntrusivePtrIT_EERKNS3_IT0_EE @3956
    _ZN4inet14dynamicPtrCastI11AlertPacketNS_5ChunkEEENS_12IntrusivePtrIT_EERKNS3_IT0_EE @3957
    _ZN4inet14dynamicPtrCastI11BurstPacketNS_5ChunkEEENS_12IntrusivePtrIT_EERKNS3_IT0_EE @3958
    _ZN4inet14dynamicPtrCastI11LteRlcAmPduNS_5ChunkEEENS_12IntrusivePtrIT_EERKNS3_IT0_EE @3959
    _ZN4inet14dynamicPtrCastI11LteRlcAmSduNS_5ChunkEEENS_12IntrusivePtrIT_EERKNS3_IT0_EE @3960
    _ZN4inet14dynamicPtrCastI12LteX2MessageNS_5ChunkEEENS_12IntrusivePtrIT_EERKNS3_IT0_EE @3961
    _ZN4inet14dynamicPtrCastI14LteControlInfoNS_7TagBaseEEENS_12IntrusivePtrIT_EERKNS3_IT0_EE @3962
    _ZN4inet14dynamicPtrCastI14LteFeedbackPktNS_5ChunkEEENS_12IntrusivePtrIT_EERKNS3_IT0_EE @3963
    _ZN4inet14dynamicPtrCastI15DeviceAppPacketNS_5ChunkEEENS_12IntrusivePtrIT_EERKNS3_IT0_EE @3964
    _ZN4inet14dynamicPtrCastI15LteHarqFeedbackNS_5ChunkEEENS_12IntrusivePtrIT_EERKNS3_IT0_EE @3965
    _ZN4inet14dynamicPtrCastI15LteRlcUmDataPduNS_5ChunkEEENS_12IntrusivePtrIT_EERKNS3_IT0_EE @3966
    _ZN4inet14dynamicPtrCastI16LteMacSduRequestNS_5ChunkEEENS_12IntrusivePtrIT_EERKNS3_IT0_EE @3967
    _ZN4inet14dynamicPtrCastI16LteRlcPduNewDataNS_5ChunkEEENS_12IntrusivePtrIT_EERKNS3_IT0_EE @3968
    _ZN4inet14dynamicPtrCastI16WarningAppPacketNS_5ChunkEEENS_12IntrusivePtrIT_EERKNS3_IT0_EE @3969
    _ZN4inet14dynamicPtrCastI17MultihopD2DPacketNS_5ChunkEEENS_12IntrusivePtrIT_EERKNS3_IT0_EE @3970
    _ZN4inet14dynamicPtrCastI18LteSchedulingGrantNS_5ChunkEEENS_12IntrusivePtrIT_EERKNS3_IT0_EE @3971
    _ZN4inet14dynamicPtrCastI18WarningAlertPacketNS_5ChunkEEENS_12IntrusivePtrIT_EERKNS3_IT0_EE @3972
    _ZN4inet14dynamicPtrCastI21LteHarqFeedbackMirrorNS_5ChunkEEENS_12IntrusivePtrIT_EERKNS3_IT0_EE @3973
    _ZN4inet14dynamicPtrCastI22DeviceAppStopAckPacketNS_5ChunkEEENS_12IntrusivePtrIT_EERKNS3_IT0_EE @3974
    _ZN4inet14dynamicPtrCastI23DeviceAppStartAckPacketNS_5ChunkEEENS_12IntrusivePtrIT_EERKNS3_IT0_EE @3975
    _ZN4inet14dynamicPtrCastI24MecRequestResponsePacketNS_5ChunkEEENS_12IntrusivePtrIT_EERKNS3_IT0_EE @3976
    _ZN4inet14dynamicPtrCastI24RequestResponseAppPacketNS_5ChunkEEENS_12IntrusivePtrIT_EERKNS3_IT0_EE @3977
    _ZN4inet14dynamicPtrCastI25D2DModeSwitchNotificationNS_5ChunkEEENS_12IntrusivePtrIT_EERKNS3_IT0_EE @3978
    _ZN4inet14dynamicPtrCastI25X2DualConnectivityDataMsgNS_5ChunkEEENS_12IntrusivePtrIT_EERKNS3_IT0_EE @3979
    _ZN4inet14dynamicPtrCastI31RealTimeVideoStreamingAppPacketNS_5ChunkEEENS_12IntrusivePtrIT_EERKNS3_IT0_EE @3980
    _ZN4inet14dynamicPtrCastI36StartRealTimeVideoStreamingAppPacketNS_5ChunkEEENS_12IntrusivePtrIT_EERKNS3_IT0_EE @3981
    _ZN4inet14dynamicPtrCastI38RealTimeVideoStreamingAppSegmentHeaderNS_5ChunkEEENS_12IntrusivePtrIT_EERKNS3_IT0_EE @3982
    _ZN4inet14dynamicPtrCastI42StopSessionRealTimeVideoStreamingAppPacketNS_5ChunkEEENS_12IntrusivePtrIT_EERKNS3_IT0_EE @3983
    _ZN4inet14dynamicPtrCastI43StartSessionRealTimeVideoStreamingAppPacketNS_5ChunkEEENS_12IntrusivePtrIT_EERKNS3_IT0_EE @3984
    _ZN4inet14dynamicPtrCastI6LteRacNS_5ChunkEEENS_12IntrusivePtrIT_EERKNS3_IT0_EE @3985
    _ZN4inet14dynamicPtrCastI9CbrPacketNS_5ChunkEEENS_12IntrusivePtrIT_EERKNS3_IT0_EE @3986
    _ZN4inet14dynamicPtrCastI9LteMacPduNS_5ChunkEEENS_12IntrusivePtrIT_EERKNS3_IT0_EE @3987
    _ZN4inet14dynamicPtrCastI9LteRlcSduNS_5ChunkEEENS_12IntrusivePtrIT_EERKNS3_IT0_EE @3988
    _ZN4inet14dynamicPtrCastI9X2CompMsgNS_5ChunkEEENS_12IntrusivePtrIT_EERKNS3_IT0_EE @3989
    _ZN4inet14dynamicPtrCastIK11LteRlcAmPduKNS_5ChunkEEENS_12IntrusivePtrIT_EERKNS5_IT0_EE @3990
    _ZN4inet14dynamicPtrCastIK16LteMacSduRequestKNS_5ChunkEEENS_12IntrusivePtrIT_EERKNS5_IT0_EE @3991
    _ZN4inet14dynamicPtrCastIK16LteRlcPduNewDataKNS_5ChunkEEENS_12IntrusivePtrIT_EERKNS5_IT0_EE @3992
    _ZN4inet14dynamicPtrCastIK18WarningStartPacketK16WarningAppPacketEENS_12IntrusivePtrIT_EERKNS5_IT0_EE @3993
    _ZN4inet14dynamicPtrCastIK19DeviceAppStopPacketK15DeviceAppPacketEENS_12IntrusivePtrIT_EERKNS5_IT0_EE @3994
    _ZN4inet14dynamicPtrCastIK20DeviceAppStartPacketK15DeviceAppPacketEENS_12IntrusivePtrIT_EERKNS5_IT0_EE @3995
    _ZN4inet14dynamicPtrCastIK25D2DModeSwitchNotificationKNS_5ChunkEEENS_12IntrusivePtrIT_EERKNS5_IT0_EE @3996
    _ZN4inet14dynamicPtrCastINS_10BytesChunkENS_5ChunkEEENS_12IntrusivePtrIT_EERKNS3_IT0_EE @3997
    _ZN4inet14dynamicPtrCastINS_10Ipv4HeaderENS_5ChunkEEENS_12IntrusivePtrIT_EERKNS3_IT0_EE @3998
    _ZN4inet14dynamicPtrCastINS_3tcp9TcpHeaderENS_5ChunkEEENS_12IntrusivePtrIT_EERKNS4_IT0_EE @3999
    _ZN4inet14dynamicPtrCastINS_9UdpHeaderENS_5ChunkEEENS_12IntrusivePtrIT_EERKNS3_IT0_EE @4000
    _ZN4inet15ApplicationBaseD2Ev @4001
    _ZN4inet15ChunkSerializerC2Ev @4002
    _ZN4inet15ChunkSerializerD0Ev @4003
    _ZN4inet15ChunkSerializerD2Ev @4004
    _ZN4inet15OperationalBaseD2Ev @4005
    _ZN4inet15doParsimPackingEPN7omnetpp11cCommBufferERKNS_9L3AddressE @4006
    _ZN4inet16IPrintableObjectC2ERKS0_ @4007
    _ZN4inet16IPrintableObjectC2Ev @4008
    _ZN4inet16IPrintableObjectD0Ev @4009
    _ZN4inet16IPrintableObjectD2Ev @4010
    _ZN4inet16IPrintableObjectaSERKS0_ @4011
    _ZN4inet16getModuleFromParINS_15IInterfaceTableEEEPT_RN7omnetpp4cParEPKNS4_7cModuleE @4012
    _ZN4inet16getModuleFromParINS_17IIpv4RoutingTableEEEPT_RN7omnetpp4cParEPKNS4_7cModuleE @4013
    _ZN4inet17Ipv4InterfaceData11getHostDataEv @4014
    _ZN4inet17Ipv4InterfaceData17HostMulticastDataC2Ev @4015
    _ZN4inet17L3AddressResolverC2Ev @4016
    _ZN4inet17L3AddressResolverD2Ev @4017
    _ZN4inet17MemoryInputStream10readStringB5cxx11Ev @4018
    _ZN4inet17MemoryInputStream12readUint16BeEv @4019
    _ZN4inet17MemoryInputStream12readUint32BeEv @4020
    _ZN4inet17MemoryInputStream12readUint64BeEv @4021
    _ZN4inet17MemoryInputStream13isByteAlignedEv @4022
    _ZN4inet17MemoryInputStream18readByteRepeatedlyEhy @4023
    _ZN4inet17MemoryInputStream8readByteEv @4024
    _ZN4inet17MemoryInputStream9readBytesERSt6vectorIhSaIhEENS_5units5valueIxNS5_8intscaleINS5_5units1bELi1ELi8EEEEE @4025
    _ZN4inet17ProtocolDissectorC2Ev @4026
    _ZN4inet17ProtocolDissectorD0Ev @4027
    _ZN4inet17ProtocolDissectorD2Ev @4028
    _ZN4inet17doParsimUnpackingEPN7omnetpp11cCommBufferERNS_9L3AddressE @4029
    _ZN4inet17findModuleFromParIN7omnetpp7cModuleEEEPT_RNS1_4cParEPKS2_ @4030
    _ZN4inet18MemoryOutputStream10writeBytesEPKhNS_5units5valueIxNS3_8intscaleINS3_5units1bELi1ELi8EEEEE @4031
    _ZN4inet18MemoryOutputStream10writeBytesERKSt6vectorIhSaIhEENS_5units5valueIxNS6_8intscaleINS6_5units1bELi1ELi8EEEEESC_ @4032
    _ZN4inet18MemoryOutputStream11writeStringENSt7__cxx1112basic_stringIcSt11char_traitsIcESaIcEEE @4033
    _ZN4inet18MemoryOutputStream13isByteAlignedEv @4034
    _ZN4inet18MemoryOutputStream13writeUint16BeEt @4035
    _ZN4inet18MemoryOutputStream13writeUint32BeEj @4036
    _ZN4inet18MemoryOutputStream13writeUint64BeEy @4037
    _ZN4inet18MemoryOutputStream19writeByteRepeatedlyEhy @4038
    _ZN4inet18MemoryOutputStream9writeByteEh @4039
    _ZN4inet18MovingMobilityBase22getCurrentAccelerationEv @4040
    _ZN4inet18MovingMobilityBase29getCurrentAngularAccelerationEv @4041
    _ZN4inet19IRegionTaggedObjectaSERKS0_ @4042
    _ZN4inet19SharingRegionTagSet14addTagIfAbsentI15FlowControlInfoEEKNS_12IntrusivePtrIT_EENS_5units5valueIxNS7_5units1bEEESB_ @4043
    _ZN4inet19SharingRegionTagSet14addTagIfAbsentINS_15CreationTimeTagEEEKNS_12IntrusivePtrIT_EENS_5units5valueIxNS7_5units1bEEESB_ @4044
    _ZN4inet19SharingRegionTagSet15getTagForUpdateEi @4045
    _ZN4inet19SharingRegionTagSet16findTagForUpdateI15FlowControlInfoEEKNS_12IntrusivePtrIT_EENS_5units5valueIxNS7_5units1bEEESB_ @4046
    _ZN4inet19SharingRegionTagSet16findTagForUpdateINS_15CreationTimeTagEEEKNS_12IntrusivePtrIT_EENS_5units5valueIxNS7_5units1bEEESB_ @4047
    _ZN4inet19SharingRegionTagSet21getRegionTagForUpdateEi @4048
    _ZN4inet19SharingRegionTagSet6addTagINS_15CreationTimeTagEEEKNS_12IntrusivePtrIT_EENS_5units5valueIxNS7_5units1bEEESB_ @4049
    _ZN4inet19SharingRegionTagSet6setTagEiRKNS_12IntrusivePtrIKNS_7TagBaseEEE @4050
    _ZN4inet19SharingRegionTagSet9RegionTagINS_7TagBaseEE6setTagERKNS_12IntrusivePtrIKS2_EE @4051
    _ZN4inet19SharingRegionTagSet9RegionTagINS_7TagBaseEEC2ERKS3_ @4052
    _ZN4inet19SharingRegionTagSet9RegionTagINS_7TagBaseEED0Ev @4053
    _ZN4inet19SharingRegionTagSet9RegionTagINS_7TagBaseEED2Ev @4054
    _ZN4inet19SharingRegionTagSetD2Ev @4055
    _ZN4inet19SharingRegionTagSetaSERKS0_ @4056
    _ZN4inet20LifecycleUnsupported20handleOperationStageEPNS_18LifecycleOperationEPNS_13IDoneCallbackE @4057
    _ZN4inet21FieldsChunkSerializerC2Ev @4058
    _ZN4inet21FieldsChunkSerializerD2Ev @4059
    _ZN4inet21Ipv4ProtocolDissectorC2Ev @4060
    _ZN4inet26DeviceAppMessageSerializerC2Ev @4061
    _ZN4inet26DeviceAppMessageSerializerD0Ev @4062
    _ZN4inet26DeviceAppMessageSerializerD2Ev @4063
    _ZN4inet28HttpRequestMessageSerializerC2Ev @4064
    _ZN4inet28HttpRequestMessageSerializerD0Ev @4065
    _ZN4inet28HttpRequestMessageSerializerD2Ev @4066
    _ZN4inet28WarningAlertPacketSerializerC2Ev @4067
    _ZN4inet28WarningAlertPacketSerializerD0Ev @4068
    _ZN4inet28WarningAlertPacketSerializerD2Ev @4069
    _ZN4inet29HttpResponseMessageSerializerC2Ev @4070
    _ZN4inet29HttpResponseMessageSerializerD0Ev @4071
    _ZN4inet29HttpResponseMessageSerializerD2Ev @4072
    _ZN4inet32makeExclusivelyOwnedMutableChunkI10LteRohcPduEEKNS_12IntrusivePtrIT_EERKNS2_IKS3_EE @4073
    _ZN4inet32makeExclusivelyOwnedMutableChunkI11LteRlcAmPduEEKNS_12IntrusivePtrIT_EERKNS2_IKS3_EE @4074
    _ZN4inet32makeExclusivelyOwnedMutableChunkI12LteX2MessageEEKNS_12IntrusivePtrIT_EERKNS2_IKS3_EE @4075
    _ZN4inet32makeExclusivelyOwnedMutableChunkI14LteFeedbackPktEEKNS_12IntrusivePtrIT_EERKNS2_IKS3_EE @4076
    _ZN4inet32makeExclusivelyOwnedMutableChunkI15LteRlcUmDataPduEEKNS_12IntrusivePtrIT_EERKNS2_IKS3_EE @4077
    _ZN4inet32makeExclusivelyOwnedMutableChunkI24RequestResponseAppPacketEEKNS_12IntrusivePtrIT_EERKNS2_IKS3_EE @4078
    _ZN4inet32makeExclusivelyOwnedMutableChunkI25D2DModeSwitchNotificationEEKNS_12IntrusivePtrIT_EERKNS2_IKS3_EE @4079
    _ZN4inet32makeExclusivelyOwnedMutableChunkI25X2DualConnectivityDataMsgEEKNS_12IntrusivePtrIT_EERKNS2_IKS3_EE @4080
    _ZN4inet32makeExclusivelyOwnedMutableChunkI31RealTimeVideoStreamingAppPacketEEKNS_12IntrusivePtrIT_EERKNS2_IKS3_EE @4081
    _ZN4inet32makeExclusivelyOwnedMutableChunkI36StartRealTimeVideoStreamingAppPacketEEKNS_12IntrusivePtrIT_EERKNS2_IKS3_EE @4082
    _ZN4inet32makeExclusivelyOwnedMutableChunkI42StopSessionRealTimeVideoStreamingAppPacketEEKNS_12IntrusivePtrIT_EERKNS2_IKS3_EE @4083
    _ZN4inet32makeExclusivelyOwnedMutableChunkI43StartSessionRealTimeVideoStreamingAppPacketEEKNS_12IntrusivePtrIT_EERKNS2_IKS3_EE @4084
    _ZN4inet32makeExclusivelyOwnedMutableChunkI6LteRacEEKNS_12IntrusivePtrIT_EERKNS2_IKS3_EE @4085
    _ZN4inet32makeExclusivelyOwnedMutableChunkI9LteMacPduEEKNS_12IntrusivePtrIT_EERKNS2_IKS3_EE @4086
    _ZN4inet32makeExclusivelyOwnedMutableChunkI9X2CompMsgEEKNS_12IntrusivePtrIT_EERKNS2_IKS3_EE @4087
    _ZN4inet32makeExclusivelyOwnedMutableChunkINS_10Ipv4HeaderEEEKNS_12IntrusivePtrIT_EERKNS2_IKS3_EE @4088
    _ZN4inet32makeExclusivelyOwnedMutableChunkINS_3tcp9TcpHeaderEEEKNS_12IntrusivePtrIT_EERKNS3_IKS4_EE @4089
    _ZN4inet32makeExclusivelyOwnedMutableChunkINS_9UdpHeaderEEEKNS_12IntrusivePtrIT_EERKNS2_IKS3_EE @4090
    _ZN4inet4math5closeEdd @4091
    _ZN4inet5Chunk10doInsertAtERKNS_12IntrusivePtrIKS0_EENS_5units5valueIxNS6_5units1bEEE @4092
    _ZN4inet5Chunk10doRemoveAtENS_5units5valueIxNS1_5units1bEEES5_ @4093
    _ZN4inet5Chunk13getRegionTagsEv @4094
    _ZN4inet5Chunk13markImmutableEv @4095
    _ZN4inet5Chunk13markIncorrectEv @4096
    _ZN4inet5Chunk14addTagIfAbsentI15FlowControlInfoEEKNS_12IntrusivePtrIT_EENS_5units5valueIxNS7_5units1bEEESB_ @4097
    _ZN4inet5Chunk14addTagIfAbsentINS_15CreationTimeTagEEEKNS_12IntrusivePtrIT_EENS_5units5valueIxNS7_5units1bEEESB_ @4098
    _ZN4inet5Chunk14doInsertAtBackERKNS_12IntrusivePtrIKS0_EE @4099
    _ZN4inet5Chunk14doRemoveAtBackENS_5units5valueIxNS1_5units1bEEE @4100
    _ZN4inet5Chunk14markIncompleteEv @4101
    _ZN4inet5Chunk15doInsertAtFrontERKNS_12IntrusivePtrIKS0_EE @4102
    _ZN4inet5Chunk15doRemoveAtFrontENS_5units5valueIxNS1_5units1bEEE @4103
    _ZN4inet5Chunk25markImproperlyRepresentedEv @4104
    _ZN4inet5Chunk29markMutableIfExclusivelyOwnedEv @4105
    _ZN4inet5Chunk6addTagINS_15CreationTimeTagEEEKNS_12IntrusivePtrIT_EENS_5units5valueIxNS7_5units1bEEESB_ @4106
    _ZN4inet5Chunk8IteratorC2EbNS_5units5valueIxNS2_5units1bEEEi @4107
    _ZN4inet5ChunkaSERKS0_ @4108
    _ZN4inet5Coord4copyERKS0_ @4109
    _ZN4inet5Coord5angleERKS0_ @4110
    _ZN4inet5CoordC2ERKS0_ @4111
    _ZN4inet5CoordC2Eddd @4112
    _ZN4inet5CoordC2Ev @4113
    _ZN4inet5CoordaSERKS0_ @4114
    _ZN4inet5CoordmIERKS0_ @4115
    _ZN4inet5CoordmLEd @4116
    _ZN4inet5CoordpLERKS0_ @4117
    _ZN4inet5units11output_unitINS0_5units1bEE2fnISoEEvRT_ @4118
    _ZN4inet5units11output_unitINS0_6fscaleINS0_5units3radEXadL_ZNS3_12rad2degScaleEvEEEEE2fnISoEEvRT_ @4119
    _ZN4inet5units11output_unitINS0_8intscaleINS0_5units1bELi1ELi8EEEE2fnISoEEvRT_ @4120
    _ZN4inet5units15doParsimPackingIxNS0_8intscaleINS0_5units1bELi1ELi8EEEEEvPN7omnetpp11cCommBufferERKNS0_5valueIT_T0_EE @4121
    _ZN4inet5units17doParsimUnpackingIxNS0_8intscaleINS0_5units1bELi1ELi8EEEEEvPN7omnetpp11cCommBufferERNS0_5valueIT_T0_EE @4122
    _ZN4inet5units5units12rad2degScaleEv @4123
    _ZN4inet5units5valueIdNS0_3powINS0_5units1mELin1ELi1EEEEC2ERKd @4124
    _ZN4inet5units5valueIdNS0_3powINS0_5units3molELin1ELi1EEEEC2ERKd @4125
    _ZN4inet5units5valueIdNS0_3powINS0_8internal4noneELi0ELi1EEEEC2ERKd @4126
    _ZN4inet5units5valueIdNS0_5units1mEEC2ERKd @4127
    _ZN4inet5units5valueIdNS0_5units1sEEC2ERKd @4128
    _ZN4inet5units5valueIdNS0_5units2kgEEC2ERKd @4129
    _ZN4inet5units5valueIdNS0_5units3radEEC2ERKd @4130
    _ZN4inet5units5valueIdNS0_5units3radEEC2Ev @4131
    _ZN4inet5units5valueIdNS0_5units3radEEC2IdNS0_6fscaleIS3_XadL_ZNS2_12rad2degScaleEvEEEEEERKNS1_IT_T0_EE @4132
    _ZN4inet5units5valueIdNS0_5units3radEEaSIdNS0_6fscaleIS3_XadL_ZNS2_12rad2degScaleEvEEEEEERS4_RKNS1_IT_T0_EE @4133
    _ZN4inet5units5valueIdNS0_6fscaleINS0_5units3radEXadL_ZNS3_12rad2degScaleEvEEEEEC2ERKd @4134
    _ZN4inet5units5valueIdNS0_6fscaleINS0_5units3radEXadL_ZNS3_12rad2degScaleEvEEEEEC2Ev @4135
    _ZN4inet5units5valueIdNS0_6fscaleINS0_5units3radEXadL_ZNS3_12rad2degScaleEvEEEEEC2IdS4_EERKNS1_IT_T0_EE @4136
    _ZN4inet5units5valueIdNS0_7composeINS0_3powINS0_5units1mELi3ELi1EEENS2_INS3_INS4_2kgELin1ELi1EEENS3_INS4_1sELin2ELi1EEEEEEEEC2ERKd @4137
    _ZN4inet5units5valueIdNS0_7composeINS0_5units1mENS0_3powINS3_1sELin1ELi1EEEEEEC2ERKd @4138
    _ZN4inet5units5valueIdNS0_7composeINS0_5units1mENS0_3powINS3_1sELin2ELi1EEEEEEC2ERKd @4139
    _ZN4inet5units5valueIdNS0_7composeINS0_5units1sENS3_1AEEEEC2ERKd @4140
    _ZN4inet5units5valueIdNS0_7composeINS2_INS0_5units1mENS2_INS3_2kgENS0_3powINS3_1sELin2ELi1EEEEEEENS6_INS3_1AELin2ELi1EEEEEEC2ERKd @4141
    _ZN4inet5units5valueIdNS0_7composeINS2_INS0_5units1mENS2_INS3_2kgENS0_3powINS3_1sELin2ELi1EEEEEEES4_EEEC2ERKd @4142
    _ZN4inet5units5valueIdNS0_7composeINS2_INS0_5units1sENS3_1AEEENS0_3powINS2_INS2_INS2_INS2_INS3_1mENS2_INS3_2kgENS7_IS4_Lin2ELi1EEEEEEES8_EENS7_IS4_Lin1ELi1EEEEENS7_IS5_Lin1ELi1EEEEELin1ELi1EEEEEEC2ERKd @4143
    _ZN4inet5units5valueIdNS0_7composeINS2_INS2_INS0_5units1mENS2_INS3_2kgENS0_3powINS3_1sELin2ELi1EEEEEEES4_EENS2_INS6_INS3_3molELin1ELi1EEENS6_IS5_Lin1ELi1EEEEEEEEC2ERKd @4144
    _ZN4inet5units5valueIdNS0_7composeINS2_INS2_INS0_5units1mENS2_INS3_2kgENS0_3powINS3_1sELin2ELi1EEEEEEES4_EENS6_INS3_1KELin1ELi1EEEEEEC2ERKd @4145
    _ZN4inet5units5valueIdNS0_7composeINS2_INS2_INS0_5units1mENS2_INS3_2kgENS0_3powINS3_1sELin2ELi1EEEEEEES4_EES7_EEEC2ERKd @4146
    _ZN4inet5units5valueIdNS0_7composeINS2_INS2_INS0_5units1sENS3_1AEEENS0_3powINS2_INS2_INS2_INS2_INS3_1mENS2_INS3_2kgENS7_IS4_Lin2ELi1EEEEEEES8_EENS7_IS4_Lin1ELi1EEEEENS7_IS5_Lin1ELi1EEEEELin1ELi1EEEEENS7_IS8_Lin1ELi1EEEEEEC2ERKd @4147
    _ZN4inet5units5valueIdNS0_7composeINS2_INS2_INS2_INS0_5units1mENS2_INS3_2kgENS0_3powINS3_1sELin2ELi1EEEEEEES4_EENS6_IS7_Lin1ELi1EEEEENS2_INS6_IS4_Lin1ELi1EEENS6_INS3_1KELin4ELi1EEEEEEEEC2ERKd @4148
    _ZN4inet5units5valueIdNS0_7composeINS2_INS2_INS2_INS2_INS0_5units1mENS2_INS3_2kgENS0_3powINS3_1sELin2ELi1EEEEEEES4_EENS6_IS7_Lin1ELi1EEEEENS6_INS3_1AELin1ELi1EEEEES7_EEEC2ERKd @4149
    _ZN4inet5units5valueIxNS0_5units1bEEC2ERKx @4150
    _ZN4inet5units5valueIxNS0_5units1bEEC2IxNS0_8intscaleIS3_Li1ELi8EEEEERKNS1_IT_T0_EE @4151
    _ZN4inet5units5valueIxNS0_5units1bEEpLIxNS0_8intscaleIS3_Li1ELi8EEEEERS4_RKNS1_IT_T0_EE @4152
    _ZN4inet5units5valueIxNS0_5units1bEEpLIxS3_EERS4_RKNS1_IT_T0_EE @4153
    _ZN4inet5units5valueIxNS0_8intscaleINS0_5units1bELi1ELi8EEEE3setERKx @4154
    _ZN4inet5units5valueIxNS0_8intscaleINS0_5units1bELi1ELi8EEEEC2ERKx @4155
    _ZN4inet5units5valueIxNS0_8intscaleINS0_5units1bELi1ELi8EEEEC2Ev @4156
    _ZN4inet5units5valueIxNS0_8intscaleINS0_5units1bELi1ELi8EEEEC2IxS4_EERKNS1_IT_T0_EE @4157
    _ZN4inet5units5valueIxNS0_8intscaleINS0_5units1bELi1ELi8EEEEaSIxS4_EERS6_RKNS1_IT_T0_EE @4158
    _ZN4inet5units5valueIxNS0_8intscaleINS0_5units1bELi1ELi8EEEEpLIxS5_EERS6_RKNS1_IT_T0_EE @4159
    _ZN4inet5units6values11unit2stringIxNS0_8intscaleINS0_5units1bELi1ELi8EEEEENSt7__cxx1112basic_stringIcSt11char_traitsIcESaIcEEERKNS0_5valueIT_T0_EE @4160
    _ZN4inet5units8internal7convertINS0_5units1bENS0_8intscaleIS4_Li1ELi8EEEE2fnIxEET_RKS9_ @4161
    _ZN4inet5units8internal7convertINS0_5units1bES4_E2fnIxEERKT_S9_ @4162
    _ZN4inet5units8internal7convertINS0_5units3radENS0_6fscaleIS4_XadL_ZNS3_12rad2degScaleEvEEEEE2fnIdEET_RKS9_ @4163
    _ZN4inet5units8internal7convertINS0_5units3radES4_E2fnIdEERKT_S9_ @4164
    _ZN4inet5units8internal7convertINS0_6fscaleINS0_5units3radEXadL_ZNS4_12rad2degScaleEvEEEES5_E2fnIdEET_RKS9_ @4165
    _ZN4inet5units8internal7convertINS0_8intscaleINS0_5units1bELi1ELi8EEES5_E2fnIxEET_RKS9_ @4166
    _ZN4inet5units8internal8convert2INS0_5units1bENS0_8intscaleIS4_Li1ELi8EEEE2fnIxEET_RKS9_ @4167
    _ZN4inet5units8internal8convert2INS0_5units3radENS0_6fscaleIS4_XadL_ZNS3_12rad2degScaleEvEEEEE2fnIdEET_RKS9_ @4168
    _ZN4inet5units8internal8convert2INS0_6fscaleINS0_5units3radEXadL_ZNS4_12rad2degScaleEvEEEES5_E2fnIdEET_RKS9_ @4169
    _ZN4inet5units8internal8convert2INS0_8intscaleINS0_5units1bELi1ELi8EEES5_E2fnIxEET_RKS9_ @4170
    _ZN4inet5units8internal8convert3INS0_5units1bENS0_8intscaleIS4_Li1ELi8EEEE2fnIxEET_RKS9_ @4171
    _ZN4inet5units8internal8convert3INS0_5units3radENS0_6fscaleIS4_XadL_ZNS3_12rad2degScaleEvEEEEE2fnIdEET_RKS9_ @4172
    _ZN4inet5unitslsIdNS0_6fscaleINS0_5units3radEXadL_ZNS3_12rad2degScaleEvEEEEEERSoS6_RKNS0_5valueIT_T0_EE @4173
    _ZN4inet5unitslsIxEERSoS2_RKNS0_5valueIT_NS0_5units1bEEE @4174
    _ZN4inet5unitslsIxNS0_8intscaleINS0_5units1bELi1ELi8EEEEERSoS6_RKNS0_5valueIT_T0_EE @4175
    _ZN4inet6IRouteC2Ev @4176
    _ZN4inet6IRouteD0Ev @4177
    _ZN4inet6IRouteD2Ev @4178
    _ZN4inet6Packet10popAtFrontI10GtpUserMsgEEKNS_12IntrusivePtrIKT_EENS_5units5valueIxNS8_5units1bEEEi @4179
    _ZN4inet6Packet10popAtFrontI10LtePdcpPduEEKNS_12IntrusivePtrIKT_EENS_5units5valueIxNS8_5units1bEEEi @4180
    _ZN4inet6Packet10popAtFrontI10VoipPacketEEKNS_12IntrusivePtrIKT_EENS_5units5valueIxNS8_5units1bEEEi @4181
    _ZN4inet6Packet10popAtFrontI11AlertPacketEEKNS_12IntrusivePtrIKT_EENS_5units5valueIxNS8_5units1bEEEi @4182
    _ZN4inet6Packet10popAtFrontI11BurstPacketEEKNS_12IntrusivePtrIKT_EENS_5units5valueIxNS8_5units1bEEEi @4183
    _ZN4inet6Packet10popAtFrontI11LteRlcAmPduEEKNS_12IntrusivePtrIKT_EENS_5units5valueIxNS8_5units1bEEEi @4184
    _ZN4inet6Packet10popAtFrontI11LteRlcAmSduEEKNS_12IntrusivePtrIKT_EENS_5units5valueIxNS8_5units1bEEEi @4185
    _ZN4inet6Packet10popAtFrontI12LteX2MessageEEKNS_12IntrusivePtrIKT_EENS_5units5valueIxNS8_5units1bEEEi @4186
    _ZN4inet6Packet10popAtFrontI16LteRlcPduNewDataEEKNS_12IntrusivePtrIKT_EENS_5units5valueIxNS8_5units1bEEEi @4187
    _ZN4inet6Packet10popAtFrontI17MultihopD2DPacketEEKNS_12IntrusivePtrIKT_EENS_5units5valueIxNS8_5units1bEEEi @4188
    _ZN4inet6Packet10popAtFrontI18LteSchedulingGrantEEKNS_12IntrusivePtrIKT_EENS_5units5valueIxNS8_5units1bEEEi @4189
    _ZN4inet6Packet10popAtFrontI24MecRequestResponsePacketEEKNS_12IntrusivePtrIKT_EENS_5units5valueIxNS8_5units1bEEEi @4190
    _ZN4inet6Packet10popAtFrontI38RealTimeVideoStreamingAppSegmentHeaderEEKNS_12IntrusivePtrIKT_EENS_5units5valueIxNS8_5units1bEEEi @4191
    _ZN4inet6Packet10popAtFrontI9CbrPacketEEKNS_12IntrusivePtrIKT_EENS_5units5valueIxNS8_5units1bEEEi @4192
    _ZN4inet6Packet10popAtFrontI9LteRlcSduEEKNS_12IntrusivePtrIKT_EENS_5units5valueIxNS8_5units1bEEEi @4193
    _ZN4inet6Packet10popAtFrontINS_5ChunkEEEKNS_12IntrusivePtrIKT_EENS_5units5valueIxNS8_5units1bEEEi @4194
    _ZN4inet6Packet12eraseAtFrontENS_5units5valueIxNS1_5units1bEEE @4195
    _ZN4inet6Packet12insertAtBackERKNS_12IntrusivePtrIKNS_5ChunkEEE @4196
    _ZN4inet6Packet13insertAtFrontERKNS_12IntrusivePtrIKNS_5ChunkEEE @4197
    _ZN4inet6Packet13removeAtFrontI10LteRohcPduEEKNS_12IntrusivePtrIT_EENS_5units5valueIxNS7_5units1bEEEi @4198
    _ZN4inet6Packet13removeAtFrontI11LteRlcAmPduEEKNS_12IntrusivePtrIT_EENS_5units5valueIxNS7_5units1bEEEi @4199
    _ZN4inet6Packet13removeAtFrontI12LteX2MessageEEKNS_12IntrusivePtrIT_EENS_5units5valueIxNS7_5units1bEEEi @4200
    _ZN4inet6Packet13removeAtFrontI14LteFeedbackPktEEKNS_12IntrusivePtrIT_EENS_5units5valueIxNS7_5units1bEEEi @4201
    _ZN4inet6Packet13removeAtFrontI15LteRlcUmDataPduEEKNS_12IntrusivePtrIT_EENS_5units5valueIxNS7_5units1bEEEi @4202
    _ZN4inet6Packet13removeAtFrontI24RequestResponseAppPacketEEKNS_12IntrusivePtrIT_EENS_5units5valueIxNS7_5units1bEEEi @4203
    _ZN4inet6Packet13removeAtFrontI25D2DModeSwitchNotificationEEKNS_12IntrusivePtrIT_EENS_5units5valueIxNS7_5units1bEEEi @4204
    _ZN4inet6Packet13removeAtFrontI25X2DualConnectivityDataMsgEEKNS_12IntrusivePtrIT_EENS_5units5valueIxNS7_5units1bEEEi @4205
    _ZN4inet6Packet13removeAtFrontI31RealTimeVideoStreamingAppPacketEEKNS_12IntrusivePtrIT_EENS_5units5valueIxNS7_5units1bEEEi @4206
    _ZN4inet6Packet13removeAtFrontI36StartRealTimeVideoStreamingAppPacketEEKNS_12IntrusivePtrIT_EENS_5units5valueIxNS7_5units1bEEEi @4207
    _ZN4inet6Packet13removeAtFrontI42StopSessionRealTimeVideoStreamingAppPacketEEKNS_12IntrusivePtrIT_EENS_5units5valueIxNS7_5units1bEEEi @4208
    _ZN4inet6Packet13removeAtFrontI43StartSessionRealTimeVideoStreamingAppPacketEEKNS_12IntrusivePtrIT_EENS_5units5valueIxNS7_5units1bEEEi @4209
    _ZN4inet6Packet13removeAtFrontI6LteRacEEKNS_12IntrusivePtrIT_EENS_5units5valueIxNS7_5units1bEEEi @4210
    _ZN4inet6Packet13removeAtFrontI9LteMacPduEEKNS_12IntrusivePtrIT_EENS_5units5valueIxNS7_5units1bEEEi @4211
    _ZN4inet6Packet13removeAtFrontI9X2CompMsgEEKNS_12IntrusivePtrIT_EENS_5units5valueIxNS7_5units1bEEEi @4212
    _ZN4inet6Packet13removeAtFrontINS_10Ipv4HeaderEEEKNS_12IntrusivePtrIT_EENS_5units5valueIxNS7_5units1bEEEi @4213
    _ZN4inet6Packet13removeAtFrontINS_3tcp9TcpHeaderEEEKNS_12IntrusivePtrIT_EENS_5units5valueIxNS8_5units1bEEEi @4214
    _ZN4inet6Packet13removeAtFrontINS_9UdpHeaderEEEKNS_12IntrusivePtrIT_EENS_5units5valueIxNS7_5units1bEEEi @4215
    _ZN4inet6Packet14addTagIfAbsentI15FlowControlInfoEEKNS_12IntrusivePtrIT_EEv @4216
    _ZN4inet6Packet14addTagIfAbsentI15UserControlInfoEEKNS_12IntrusivePtrIT_EEv @4217
    _ZN4inet6Packet14addTagIfAbsentI16X2ControlInfoTagEEKNS_12IntrusivePtrIT_EEv @4218
    _ZN4inet6Packet14addTagIfAbsentINS_11SctpSendReqEEEKNS_12IntrusivePtrIT_EEv @4219
    _ZN4inet6Packet14addTagIfAbsentINS_12InterfaceIndEEEKNS_12IntrusivePtrIT_EEv @4220
    _ZN4inet6Packet14addTagIfAbsentINS_12InterfaceReqEEEKNS_12IntrusivePtrIT_EEv @4221
    _ZN4inet6Packet14addTagIfAbsentINS_15CreationTimeTagEEEKNS_12IntrusivePtrIT_EEv @4222
    _ZN4inet6Packet14addTagIfAbsentINS_17PacketProtocolTagEEEKNS_12IntrusivePtrIT_EEv @4223
    _ZN4inet6Packet14addTagIfAbsentINS_18NetworkProtocolIndEEEKNS_12IntrusivePtrIT_EEv @4224
    _ZN4inet6Packet14addTagIfAbsentINS_19DispatchProtocolReqEEEKNS_12IntrusivePtrIT_EEv @4225
    _ZN4inet6Packet15getTagForUpdateI15FlowControlInfoEEKNS_12IntrusivePtrIT_EEv @4226
    _ZN4inet6Packet15getTagForUpdateI15UserControlInfoEEKNS_12IntrusivePtrIT_EEv @4227
    _ZN4inet6Packet18removeTagIfPresentI14LteControlInfoEEKNS_12IntrusivePtrIT_EEv @4228
    _ZN4inet6Packet18removeTagIfPresentI14TftControlInfoEEKNS_12IntrusivePtrIT_EEv @4229
    _ZN4inet6Packet18removeTagIfPresentI15FlowControlInfoEEKNS_12IntrusivePtrIT_EEv @4230
    _ZN4inet6Packet18removeTagIfPresentI15UserControlInfoEEKNS_12IntrusivePtrIT_EEv @4231
    _ZN4inet6Packet18removeTagIfPresentI16X2ControlInfoTagEEKNS_12IntrusivePtrIT_EEv @4232
    _ZN4inet6Packet18removeTagIfPresentINS_11SctpSendReqEEEKNS_12IntrusivePtrIT_EEv @4233
    _ZN4inet6Packet18removeTagIfPresentINS_12InterfaceReqEEEKNS_12IntrusivePtrIT_EEv @4234
    _ZN4inet6Packet18removeTagIfPresentINS_9SocketIndEEEKNS_12IntrusivePtrIT_EEv @4235
    _ZN4inet6Packet6addTagI14TftControlInfoEEKNS_12IntrusivePtrIT_EEv @4236
    _ZN4inet6Packet6addTagI15FlowControlInfoEEKNS_12IntrusivePtrIT_EEv @4237
    _ZN4inet6Packet6addTagINS_19DispatchProtocolReqEEEKNS_12IntrusivePtrIT_EEv @4238
    _ZN4inet6Packet8copyTagsERKS0_ @4239
    _ZN4inet6Packet9removeTagI14TftControlInfoEEKNS_12IntrusivePtrIT_EEv @4240
    _ZN4inet6Packet9removeTagI15FlowControlInfoEEKNS_12IntrusivePtrIT_EEv @4241
    _ZN4inet6Packet9removeTagI15UserControlInfoEEKNS_12IntrusivePtrIT_EEv @4242
    _ZN4inet6PacketD2Ev @4243
    _ZN4inet7ISocketD2Ev @4244
    _ZN4inet7TagBase12parsimUnpackEPN7omnetpp11cCommBufferE @4245
    _ZN4inet7TagBaseC2ERKS0_ @4246
    _ZN4inet7TagBaseC2Ev @4247
    _ZN4inet7TagBaseD2Ev @4248
    _ZN4inet7TagBaseaSERKS0_ @4249
    _ZN4inet8ProtocolD2Ev @4250
    _ZN4inet9Ipv4RouteC2Ev @4251
    _ZN4inet9L3Address17doParsimUnpackingEPN7omnetpp11cCommBufferE @4252
    _ZN4inet9L3Address3setERKNS_11Ipv4AddressE @4253
    _ZN4inet9L3AddressC2EPKc @4254
    _ZN4inet9L3AddressC2ERKNS_11Ipv4AddressE @4255
    _ZN4inet9L3AddressC2ERKS0_ @4256
    _ZN4inet9L3AddressC2Ev @4257
    _ZN4inet9L3AddressaSERKS0_ @4258
    _ZN4inet9SocketMap13getSocketByIdEj @4259
    _ZN4inet9SocketMap6getMapEv @4260
    _ZN4inet9SocketMapC2Ev @4261
    _ZN4inet9SocketMapD2Ev @4262
    _ZN4inet9TcpSocket11setUserDataEPv @4263
    _ZN4inet9TcpSocket13setOutputGateEPN7omnetpp5cGateE @4264
    _ZN4inet9TcpSocket6listenEv @4265
    _ZN4inet9TcpSocket8setStateENS0_5StateE @4266
    _ZN4inet9TcpSocket9ICallbackC2Ev @4267
    _ZN4inet9TcpSocket9ICallbackD0Ev @4268
    _ZN4inet9TcpSocket9ICallbackD2Ev @4269
    _ZN4inet9UdpSocket13setOutputGateEPN7omnetpp5cGateE @4270
    _ZN4inet9UdpSocket9ICallbackC2Ev @4271
    _ZN4inet9UdpSocket9ICallbackD0Ev @4272
    _ZN4inet9UdpSocket9ICallbackD2Ev @4273
    _ZN4inet9UdpSocketD2Ev @4274
    _ZN4ineteqERKNS_5CoordES2_ @4275
    _ZN4inetlsERSoRKNS_11Ipv4AddressE @4276
    _ZN4inetlsERSoRKNS_5CoordE @4277
    _ZN4inetlsERSoRKNS_9L3AddressE @4278
    _ZN4inetmiERKNS_5CoordES2_ @4279
    _ZN4inetmlERKNS_5CoordEd @4280
    _ZN4inetneERKNS_5CoordES2_ @4281
    _ZN4inetplERKNS_5CoordES2_ @4282
    _ZN52StopSessionRealTimeVideoStreamingAppPacketDescriptorC1Ev @4283
    _ZN52StopSessionRealTimeVideoStreamingAppPacketDescriptorC2Ev @4284
    _ZN52StopSessionRealTimeVideoStreamingAppPacketDescriptorD0Ev @4285
    _ZN52StopSessionRealTimeVideoStreamingAppPacketDescriptorD1Ev @4286
    _ZN52StopSessionRealTimeVideoStreamingAppPacketDescriptorD2Ev @4287
    _ZN53StartSessionRealTimeVideoStreamingAppPacketDescriptorC1Ev @4288
    _ZN53StartSessionRealTimeVideoStreamingAppPacketDescriptorC2Ev @4289
    _ZN53StartSessionRealTimeVideoStreamingAppPacketDescriptorD0Ev @4290
    _ZN53StartSessionRealTimeVideoStreamingAppPacketDescriptorD1Ev @4291
    _ZN53StartSessionRealTimeVideoStreamingAppPacketDescriptorD2Ev @4292
    _ZN5DelayC2Ev @4293
    _ZN5LtePf14commitScheduleEv @4294
    _ZN5LtePf15prepareScheduleEv @4295
    _ZN5LtePfC2Ed @4296
    _ZN5LtePfD0Ev @4297
    _ZN5LtePfD2Ev @4298
    _ZN5NRAmc16getMcsElemPerCqiEt9Direction @4299
    _ZN5NRAmc17computeBitsOnNRbsEttj9Directiond @4300
    _ZN5NRAmc17computeBitsOnNRbsEtttj9Directiond @4301
    _ZN5NRAmc17getSymbolsPerSlotEd9Direction @4302
    _ZN5NRAmc18computeCodewordTbsEP12UserTxParamst9Directionj @4303
    _ZN5NRAmc19computeTbsFromNinfoEdd @4304
    _ZN5NRAmc19getResourceElementsEjj @4305
    _ZN5NRAmc26computeBitsPerRbBackgroundEt9Directiond @4306
    _ZN5NRAmc27getResourceElementsPerBlockEj @4307
    _ZN5NRAmcC1EP9LteMacEnbP6BinderP8CellInfoi @4308
    _ZN5NRAmcC2EP9LteMacEnbP6BinderP8CellInfoi @4309
    _ZN5NRAmcD0Ev @4310
    _ZN5NRAmcD1Ev @4311
    _ZN5NRAmcD2Ev @4312
    _ZN6Binder10addEnbInfoEP7EnbInfo @4313
    _ZN6Binder10addExtCellEP7ExtCelld @4314
    _ZN6Binder10getD2DModeEtt @4315
    _ZN6Binder10getEnbListEv @4316
    _ZN6Binder10getNextHopEt @4317
    _ZN6Binder10getOmnetIdEt @4318
    _ZN6Binder10initializeEi @4319
    _ZN6Binder11computeSinrEjidN4inet5CoordES1_9Directionb @4320
    _ZN6Binder11getX2NodeIdEN4inet11Ipv4AddressE @4321
    _ZN6Binder11setX2NodeIdEN4inet11Ipv4AddressEt @4322
    _ZN6Binder12getMacNodeIdEN4inet11Ipv4AddressE @4323
    _ZN6Binder12registerNameEtPKc @4324
    _ZN6Binder12registerNodeEPN7omnetpp7cModuleE11RanNodeTypetb @4325
    _ZN6Binder12setMacNodeIdEN4inet11Ipv4AddressEt @4326
    _ZN6Binder13getMasterNodeEt @4327
    _ZN6Binder13getSlotFormatEd @4328
    _ZN6Binder13getTotalBandsEv @4329
    _ZN6Binder13handleMessageEPN7omnetpp8cMessageE @4330
    _ZN6Binder14getDeployedUesEt9Direction @4331
    _ZN6Binder14getExtCellListEd @4332
    _ZN6Binder14getIPv4AddressEt @4333
    _ZN6Binder14getNetworkNameB5cxx11Ev @4334
    _ZN6Binder14getNrMacNodeIdEN4inet11Ipv4AddressE @4335
    _ZN6Binder14registerModuleEtPN7omnetpp7cModuleE @4336
    _ZN6Binder14registerX2PortEti @4337
    _ZN6Binder14unregisterNodeEt @4338
    _ZN6Binder15getCarrierUeSetEd @4339
    _ZN6Binder15moveUeCollectorEttt @4340
    _ZN6Binder15registerCarrierEdjjbjj @4341
    _ZN6Binder15registerMecHostERKN4inet9L3AddressE @4342
    _ZN6Binder15registerNextHopEtt @4343
    _ZN6Binder16getD2DCapabilityEtt @4344
    _ZN6Binder16getD2DPeeringMapEv @4345
    _ZN6Binder16getNodeIdListEndEv @4346
    _ZN6Binder16getX2PeerAddressEtt @4347
    _ZN6Binder16setX2PeerAddressEttN4inet9L3AddressE @4348
    _ZN6Binder17computeSlotFormatEbjj @4349
    _ZN6Binder17getUpfFromMecHostERKN4inet9L3AddressE @4350
    _ZN6Binder17registerCarrierUeEdjt @4351
    _ZN6Binder17unregisterNextHopEtt @4352
    _ZN6Binder18checkD2DCapabilityEtt @4353
    _ZN6Binder18getNodeIdListBeginEv @4354
    _ZN6Binder18isInMulticastGroupEti @4355
    _ZN6Binder18registerMasterNodeEtt @4356
    _ZN6Binder18updateUeInfoCellIdEtt @4357
    _ZN6Binder19getMacFromMacNodeIdEt @4358
    _ZN6Binder20addHandoverTriggeredEttt @4359
    _ZN6Binder20getHandoverTriggeredEt @4360
    _ZN6Binder20getModuleByMacNodeIdEt @4361
    _ZN6Binder20getUeNumerologyIndexEt @4362
    _ZN6Binder20getUlTransmissionMapEd20UlTransmissionMapTTI @4363
    _ZN6Binder22addBackgroundSchedulerEP19BackgroundSchedulerd @4364
    _ZN6Binder22addUeCollectorToEnodeBEtP16UeStatsCollectort @4365
    _ZN6Binder22addUeHandoverTriggeredEt @4366
    _ZN6Binder22getBaseStationTypeByIdEt @4367
    _ZN6Binder22hasUeHandoverTriggeredEt @4368
    _ZN6Binder22registerMulticastGroupEti @4369
    _ZN6Binder22storeUlTransmissionMapEd6RemoteRSt3mapIS0_S1_ItjSt4lessItESaISt4pairIKtjEEES2_IS0_ESaIS4_IKS0_S8_EEEttP10LtePhyBase9Direction @4370
    _ZN6Binder22storeUlTransmissionMapEd6RemoteRSt3mapIS0_S1_ItjSt4lessItESaISt4pairIKtjEEES2_IS0_ESaIS4_IKS0_S8_EEEttP20TrafficGeneratorBase9Direction @4371
    _ZN6Binder23addBgTrafficManagerInfoEP20BgTrafficManagerInfo @4372
    _ZN6Binder23getMacNodeIdFromOmnetIdEj @4373
    _ZN6Binder23getUeMaxNumerologyIndexEt @4374
    _ZN6Binder23isFrequencyReuseEnabledEt @4375
    _ZN6Binder23removeHandoverTriggeredEt @4376
    _ZN6Binder24getModuleNameByMacNodeIdEt @4377
    _ZN6Binder24updateMutualInterferenceEjj9Direction @4378
    _ZN6Binder25registerMecHostUpfAddressERKN4inet9L3AddressES3_ @4379
    _ZN6Binder25removeUeHandoverTriggeredEt @4380
    _ZN6Binder26addD2DMulticastTransmitterEt @4381
    _ZN6Binder26getBackgroundSchedulerListEd @4382
    _ZN6Binder27computeRequestedRbsFromSinrEdd @4383
    _ZN6Binder27getD2DMulticastTransmittersEv @4384
    _ZN6Binder30initAndResetUlTransmissionInfoEv @4385
    _ZN6Binder31computeInterferencePercentageDlEddj @4386
    _ZN6Binder31computeInterferencePercentageUlEdddd @4387
    _ZN6Binder31getLastUpdateUlTransmissionInfoEv @4388
    _ZN6Binder33computeAverageCqiForBackgroundUesEv @4389
    _ZN6Binder33getNumerologyIndexFromCarrierFreqEd @4390
    _ZN6Binder34getSlotDurationFromNumerologyIndexEt @4391
    _ZN6Binder6finishEv @4392
    _ZN6Binder7meanCqiESt6vectorItSaItEEt9Direction @4393
    _ZN6Binder9addUeInfoEP6UeInfo @4394
    _ZN6Binder9getUeListEv @4395
    _ZN6Binder9getX2PortEt @4396
    _ZN6Binder9isMecHostERKN4inet9L3AddressE @4397
    _ZN6Binder9medianCqiESt6vectorItSaItEEt9Direction @4398
    _ZN6BinderC2Ev @4399
    _ZN6BinderD0Ev @4400
    _ZN6BinderD2Ev @4401
    _ZN6IP2Nic10initializeEi @4402
    _ZN6IP2Nic10markPacketEN4inet12IntrusivePtrI15FlowControlInfoEE @4403
    _ZN6IP2Nic11setNodeTypeENSt7__cxx1112basic_stringIcSt11char_traitsIcESaIcEEE @4404
    _ZN6IP2Nic13handleMessageEPN7omnetpp8cMessageE @4405
    _ZN6IP2Nic14prepareForIpv4EPN4inet6PacketEPKNS0_8ProtocolE @4406
    _ZN6IP2Nic16printControlInfoEPN4inet6PacketE @4407
    _ZN6IP2Nic17registerInterfaceEv @4408
    _ZN6IP2Nic17triggerHandoverUeEtb @4409
    _ZN6IP2Nic21triggerHandoverSourceEtt @4410
    _ZN6IP2Nic21triggerHandoverTargetEtt @4411
    _ZN6IP2Nic23registerMulticastGroupsEv @4412
    _ZN6IP2Nic24signalHandoverCompleteUeEb @4413
    _ZN6IP2Nic28sendTunneledPacketOnHandoverEPN4inet6PacketEt @4414
    _ZN6IP2Nic28signalHandoverCompleteSourceEtt @4415
    _ZN6IP2Nic28signalHandoverCompleteTargetEtt @4416
    _ZN6IP2Nic31receiveTunneledPacketOnHandoverEPN4inet6PacketEt @4417
    _ZN6IP2Nic6finishEv @4418
    _ZN6IP2Nic6toIpBsEPN4inet6PacketE @4419
    _ZN6IP2Nic6toIpUeEPN4inet6PacketE @4420
    _ZN6IP2Nic8fromIpBsEPN4inet6PacketE @4421
    _ZN6IP2Nic8fromIpUeEPN4inet6PacketE @4422
    _ZN6IP2Nic9toStackBsEPN4inet6PacketE @4423
    _ZN6IP2Nic9toStackUeEPN4inet6PacketE @4424
    _ZN6IP2NicC2Ev @4425
    _ZN6IP2NicD0Ev @4426
    _ZN6IP2NicD1Ev @4427
    _ZN6IP2NicD2Ev @4428
    _ZN6L2Meas9addEnodeBEPN7omnetpp7cModuleE @4429
    _ZN6L2Meas9addEnodeBERSt3setIPN7omnetpp7cModuleESt4lessIS3_ESaIS3_EE @4430
    _ZN6L2MeasC1ERSt3setIPN7omnetpp7cModuleESt4lessIS3_ESaIS3_EE @4431
    _ZN6L2MeasC1Ev @4432
    _ZN6L2MeasC2ERSt3setIPN7omnetpp7cModuleESt4lessIS3_ESaIS3_EE @4433
    _ZN6L2MeasC2Ev @4434
    _ZN6L2MeasD0Ev @4435
    _ZN6L2MeasD1Ev @4436
    _ZN6L2MeasD2Ev @4437
    _ZN6LteAmc10attachUserEt9Direction @4438
    _ZN6LteAmc10detachUserEt9Direction @4439
    _ZN6LteAmc10getHistoryE9Directiond @4440
    _ZN6LteAmc10getNextHopEt @4441
    _ZN6LteAmc10initializeEv @4442
    _ZN6LteAmc10rescaleMcsEd9Direction @4443
    _ZN6LteAmc11getAmcPilotERKN7omnetpp4cParE @4444
    _ZN6LteAmc11getCellInfoEv @4445
    _ZN6LteAmc11getFeedbackEt6Remote6TxMode9Directiond @4446
    _ZN6LteAmc11getTxParamsEt9Directiond @4447
    _ZN6LteAmc11readTbsVectEtj9Direction @4448
    _ZN6LteAmc11setTxParamsEt9DirectionR12UserTxParamsd @4449
    _ZN6LteAmc12pushFeedbackEt9Direction11LteFeedbackd @4450
    _ZN6LteAmc12setPilotModeE21PilotComputationModes @4451
    _ZN6LteAmc13existTxParamsEt9Directiond @4452
    _ZN6LteAmc13getItbsPerCqiEt9Direction @4453
    _ZN6LteAmc13printTxParamsE9Directiond @4454
    _ZN6LteAmc14getFeedbackD2DEt6Remote6TxModetd @4455
    _ZN6LteAmc14writeCqiWeightEd @4456
    _ZN6LteAmc14writePmiWeightEd @4457
    _ZN6LteAmc15computeTxParamsEt9Directiond @4458
    _ZN6LteAmc15printParametersEv @4459
    _ZN6LteAmc15pushFeedbackD2DEt11LteFeedbacktd @4460
    _ZN6LteAmc16muMimoMatrixInitE9Directiont @4461
    _ZN6LteAmc16readMultiBandCqiEt9Directiond @4462
    _ZN6LteAmc17computeBitsOnNRbsEttj9Directiond @4463
    _ZN6LteAmc17computeBitsOnNRbsEtttj9Directiond @4464
    _ZN6LteAmc17getSystemNumBandsEv @4465
    _ZN6LteAmc17printMuMimoMatrixEPKc @4466
    _ZN6LteAmc18computeBytesOnNRbsEttj9Directiond @4467
    _ZN6LteAmc18computeBytesOnNRbsEtttj9Directiond @4468
    _ZN6LteAmc19getPilotUsableBandsEtRPSt6vectorItSaItEE @4469
    _ZN6LteAmc19setPilotUsableBandsEtSt6vectorItSaItEE @4470
    _ZN6LteAmc20computeBitsOnNRbs_MBEttj9Directiond @4471
    _ZN6LteAmc20computeMuMimoPairingEt9Direction @4472
    _ZN6LteAmc21computeBytesOnNRbs_MBEttj9Directiond @4473
    _ZN6LteAmc26computeBitsPerRbBackgroundEt9Directiond @4474
    _ZN6LteAmc6testUeEt9Direction @4475
    _ZN6LteAmc9blockGainEtjj9Direction @4476
    _ZN6LteAmc9bytesGainEtjj9Direction @4477
    _ZN6LteAmc9printFbhbE9Direction @4478
    _ZN6LteAmc9readWbCqiERKSt6vectorItSaItEE @4479
    _ZN6LteAmc9readWbPmiERKSt6vectorItSaItEE @4480
    _ZN6LteAmcC1EP9LteMacEnbP6BinderP8CellInfoi @4481
    _ZN6LteAmcC2EP9LteMacEnbP6BinderP8CellInfoi @4482
    _ZN6LteAmcD0Ev @4483
    _ZN6LteAmcD1Ev @4484
    _ZN6LteAmcD2Ev @4485
    _ZN6LteAmcaSERKS_ @4486
    _ZN6LteDrr14commitScheduleEv @4487
    _ZN6LteDrr15prepareScheduleEv @4488
    _ZN6LteDrr20updateSchedulingInfoEv @4489
    _ZN6LteDrr22notifyActiveConnectionEj @4490
    _ZN6LteDrr7DrrDescC2Ev @4491
    _ZN6LteDrrC2Ev @4492
    _ZN6LteDrrD0Ev @4493
    _ZN6LteDrrD2Ev @4494
    _ZN6LteRac10setSuccessEb @4495
    _ZN6LteRac12parsimUnpackEPN7omnetpp11cCommBufferE @4496
    _ZN6LteRac4copyERKS_ @4497
    _ZN6LteRacC1ERKS_ @4498
    _ZN6LteRacC1Ev @4499
    _ZN6LteRacC2ERKS_ @4500
    _ZN6LteRacC2Ev @4501
    _ZN6LteRacD0Ev @4502
    _ZN6LteRacD1Ev @4503
    _ZN6LteRacD2Ev @4504
    _ZN6LteRacaSERKS_ @4505
    _ZN6MacBsr12parsimUnpackEPN7omnetpp11cCommBufferE @4506
    _ZN6MacBsr4copyERKS_ @4507
    _ZN6MacBsr7setSizeEi @4508
    _ZN6MacBsrC1ERKS_ @4509
    _ZN6MacBsrC1Ev @4510
    _ZN6MacBsrC2ERKS_ @4511
    _ZN6MacBsrC2Ev @4512
    _ZN6MacBsrD0Ev @4513
    _ZN6MacBsrD1Ev @4514
    _ZN6MacBsrD2Ev @4515
    _ZN6MacBsraSERKS_ @4516
    _ZN6TTimer10setTimerIdEj @4517
    _ZN6TTimer4busyEv @4518
    _ZN6TTimer4idleEv @4519
    _ZN6TTimer4stopEv @4520
    _ZN6TTimer5startEN7omnetpp7SimTimeE @4521
    _ZN6TTimer6handleEv @4522
    _ZN6TTimer7elapsedEv @4523
    _ZN6TTimer9remainingEv @4524
    _ZN6TTimerC2EPN7omnetpp13cSimpleModuleE @4525
    _ZN6TTimerD0Ev @4526
    _ZN6TTimerD2Ev @4527
    _ZN7CQIelemC2E6LteModd @4528
    _ZN7ExtCell10getTxAngleEv @4529
    _ZN7ExtCell10getTxPowerEv @4530
    _ZN7ExtCell10initializeEi @4531
    _ZN7ExtCell11getNumBandsEv @4532
    _ZN7ExtCell11getPositionEv @4533
    _ZN7ExtCell13getBandStatusEi @4534
    _ZN7ExtCell13handleMessageEPN7omnetpp8cMessageE @4535
    _ZN7ExtCell14getTxDirectionEv @4536
    _ZN7ExtCell15resetBandStatusEv @4537
    _ZN7ExtCell16updateBandStatusEv @4538
    _ZN7ExtCell17getPrevBandStatusEi @4539
    _ZN7ExtCell18setBandUtilizationEd @4540
    _ZN7ExtCellC2Ev @4541
    _ZN7ExtCellD0Ev @4542
    _ZN7ExtCellD2Ev @4543
    _ZN7GtpUser10initializeEi @4544
    _ZN7GtpUser13handleFromUdpEPN4inet6PacketE @4545
    _ZN7GtpUser13handleMessageEPN7omnetpp8cMessageE @4546
    _ZN7GtpUser15detectInterfaceEv @4547
    _ZN7GtpUser15selectOwnerTypeEPKc @4548
    _ZN7GtpUser27handleFromTrafficFlowFilterEPN4inet6PacketE @4549
    _ZN7GtpUserC2Ev @4550
    _ZN7GtpUserD0Ev @4551
    _ZN7GtpUserD2Ev @4552
    _ZN7MCSelemC2E6LteModtd @4553
    _ZN7MrwDescC2Ev @4554
    _ZN7NRMacUe10macPduMakeEj @4555
    _ZN7NRMacUe13macSduRequestEv @4556
    _ZN7NRMacUe17handleSelfMessageEv @4557
    _ZN7NRMacUeC1Ev @4558
    _ZN7NRMacUeC2Ev @4559
    _ZN7NRMacUeD0Ev @4560
    _ZN7NRMacUeD1Ev @4561
    _ZN7NRMacUeD2Ev @4562
    _ZN7NRPhyUe10doHandoverEv @4563
    _ZN7NRPhyUe10initializeEi @4564
    _ZN7NRPhyUe13forceHandoverEtd @4565
    _ZN7NRPhyUe14handleAirFrameEPN7omnetpp8cMessageE @4566
    _ZN7NRPhyUe15triggerHandoverEv @4567
    _ZN7NRPhyUe16deleteOldBuffersEt @4568
    _ZN7NRPhyUeC1Ev @4569
    _ZN7NRPhyUeC2Ev @4570
    _ZN7NRPhyUeD0Ev @4571
    _ZN7NRPhyUeD1Ev @4572
    _ZN7NRPhyUeD2Ev @4573
    _ZN7TxTableD2Ev @4574
    _ZN7omnetpp10as_cObjectI14ModulationTypeEENSt9enable_ifIXntsr3std14is_polymorphicIT_EE5valueEPKNS_7cObjectEE4typeEPKS3_ @4575
    _ZN7omnetpp10as_cObjectIN4inet5CoordEEENSt9enable_ifIXntsr3std14is_polymorphicIT_EE5valueEPKNS_7cObjectEE4typeEPKS4_ @4576
    _ZN7omnetpp10as_cObjectIN4inet9L3AddressEEENSt9enable_ifIXntsr3std14is_polymorphicIT_EE5valueEPKNS_7cObjectEE4typeEPKS4_ @4577
    _ZN7omnetpp10as_cObjectINSt7__cxx114listItSaItEEEEENSt9enable_ifIXntsr3std14is_polymorphicIT_EE5valueEPKNS_7cObjectEE4typeEPKS6_ @4578
    _ZN7omnetpp10cComponent10initializeEi @4579
    _ZN7omnetpp10cComponent12recordScalarEPKcNS_7SimTimeES2_ @4580
    _ZN7omnetpp10cComponent4emitEiPKNS_7cObjectEPS1_ @4581
    _ZN7omnetpp10cComponent4emitEicPNS_7cObjectE @4582
    _ZN7omnetpp10cComponent4emitEiePNS_7cObjectE @4583
    _ZN7omnetpp10cComponent4emitEifPNS_7cObjectE @4584
    _ZN7omnetpp10cComponent4emitEihPNS_7cObjectE @4585
    _ZN7omnetpp10cComponent4emitEiiPNS_7cObjectE @4586
    _ZN7omnetpp10cComponent4emitEijPNS_7cObjectE @4587
    _ZN7omnetpp10cComponent4emitEilPNS_7cObjectE @4588
    _ZN7omnetpp10cComponent4emitEimPNS_7cObjectE @4589
    _ZN7omnetpp10cComponent4emitEisPNS_7cObjectE @4590
    _ZN7omnetpp10cComponent4emitEitPNS_7cObjectE @4591
    _ZN7omnetpp10cComponent4emitEixPNS_7cObjectE @4592
    _ZN7omnetpp10cComponent4emitEiyPNS_7cObjectE @4593
    _ZN7omnetpp10cComponent9setRNGMapEsPi @4594
    _ZN7omnetpp10cExceptionD2Ev @4595
    _ZN7omnetpp10cIListener12subscribedToEPNS_10cComponentEi @4596
    _ZN7omnetpp10cIListener16unsubscribedFromEPNS_10cComponentEi @4597
    _ZN7omnetpp10cIListener6finishEPNS_10cComponentEi @4598
    _ZN7omnetpp10cIListenerC2Ev @4599
    _ZN7omnetpp10cWatchBase6assignEPKc @4600
    _ZN7omnetpp10cWatchBaseC2EPKc @4601
    _ZN7omnetpp10cWatchBaseD0Ev @4602
    _ZN7omnetpp10cWatchBaseD2Ev @4603
    _ZN7omnetpp10fromAnyPtrI10GtpUserMsgEEPT_NS_7any_ptrE @4604
    _ZN7omnetpp10fromAnyPtrI10LtePdcpPduEEPT_NS_7any_ptrE @4605
    _ZN7omnetpp10fromAnyPtrI10LteRohcPduEEPT_NS_7any_ptrE @4606
    _ZN7omnetpp10fromAnyPtrI10VoipPacketEEPT_NS_7any_ptrE @4607
    _ZN7omnetpp10fromAnyPtrI11AlertPacketEEPT_NS_7any_ptrE @4608
    _ZN7omnetpp10fromAnyPtrI11BurstPacketEEPT_NS_7any_ptrE @4609
    _ZN7omnetpp10fromAnyPtrI11LteRlcAmSduEEPT_NS_7any_ptrE @4610
    _ZN7omnetpp10fromAnyPtrI11MEAppPacketEEPT_NS_7any_ptrE @4611
    _ZN7omnetpp10fromAnyPtrI11RlcFragDescEEPT_NS_7any_ptrE @4612
    _ZN7omnetpp10fromAnyPtrI13RlcWindowDescEEPT_NS_7any_ptrE @4613
    _ZN7omnetpp10fromAnyPtrI13UALCMPMessageEEPT_NS_7any_ptrE @4614
    _ZN7omnetpp10fromAnyPtrI14LteControlInfoEEPT_NS_7any_ptrE @4615
    _ZN7omnetpp10fromAnyPtrI14LteMacPdu_BaseEEPT_NS_7any_ptrE @4616
    _ZN7omnetpp10fromAnyPtrI14MigrationTimerEEPT_NS_7any_ptrE @4617
    _ZN7omnetpp10fromAnyPtrI14ModulationTypeEEPT_NS_7any_ptrE @4618
    _ZN7omnetpp10fromAnyPtrI14TMultiTimerMsgEEPT_NS_7any_ptrE @4619
    _ZN7omnetpp10fromAnyPtrI14TftControlInfoEEPT_NS_7any_ptrE @4620
    _ZN7omnetpp10fromAnyPtrI15DeviceAppPacketEEPT_NS_7any_ptrE @4621
    _ZN7omnetpp10fromAnyPtrI15FlowControlInfoEEPT_NS_7any_ptrE @4622
    _ZN7omnetpp10fromAnyPtrI15HttpBaseMessageEEPT_NS_7any_ptrE @4623
    _ZN7omnetpp10fromAnyPtrI15LteHarqFeedbackEEPT_NS_7any_ptrE @4624
    _ZN7omnetpp10fromAnyPtrI15RtxNotificationEEPT_NS_7any_ptrE @4625
    _ZN7omnetpp10fromAnyPtrI15TrickleTimerMsgEEPT_NS_7any_ptrE @4626
    _ZN7omnetpp10fromAnyPtrI16CreateAppMessageEEPT_NS_7any_ptrE @4627
    _ZN7omnetpp10fromAnyPtrI16CreateContextAppEEPT_NS_7any_ptrE @4628
    _ZN7omnetpp10fromAnyPtrI16DeleteAppMessageEEPT_NS_7any_ptrE @4629
    _ZN7omnetpp10fromAnyPtrI16LteAirFrame_BaseEEPT_NS_7any_ptrE @4630
    _ZN7omnetpp10fromAnyPtrI16LteRlcAmPdu_BaseEEPT_NS_7any_ptrE @4631
    _ZN7omnetpp10fromAnyPtrI16LteRlcPduNewDataEEPT_NS_7any_ptrE @4632
    _ZN7omnetpp10fromAnyPtrI16WarningAppPacketEEPT_NS_7any_ptrE @4633
    _ZN7omnetpp10fromAnyPtrI16X2ControlInfoTagEEPT_NS_7any_ptrE @4634
    _ZN7omnetpp10fromAnyPtrI17LteX2Message_BaseEEPT_NS_7any_ptrE @4635
    _ZN7omnetpp10fromAnyPtrI17MacControlElementEEPT_NS_7any_ptrE @4636
    _ZN7omnetpp10fromAnyPtrI17MultihopD2DPacketEEPT_NS_7any_ptrE @4637
    _ZN7omnetpp10fromAnyPtrI17RlcUmRxWindowDescEEPT_NS_7any_ptrE @4638
    _ZN7omnetpp10fromAnyPtrI17WarningStopPacketEEPT_NS_7any_ptrE @4639
    _ZN7omnetpp10fromAnyPtrI18LteRlcDataPdu_BaseEEPT_NS_7any_ptrE @4640
    _ZN7omnetpp10fromAnyPtrI18WarningAlertPacketEEPT_NS_7any_ptrE @4641
    _ZN7omnetpp10fromAnyPtrI18WarningStartPacketEEPT_NS_7any_ptrE @4642
    _ZN7omnetpp10fromAnyPtrI19CreateContextAppAckEEPT_NS_7any_ptrE @4643
    _ZN7omnetpp10fromAnyPtrI19DeviceAppStopPacketEEPT_NS_7any_ptrE @4644
    _ZN7omnetpp10fromAnyPtrI19LteFeedbackPkt_BaseEEPT_NS_7any_ptrE @4645
    _ZN7omnetpp10fromAnyPtrI20ActiveUeNotificationEEPT_NS_7any_ptrE @4646
    _ZN7omnetpp10fromAnyPtrI20DeviceAppStartPacketEEPT_NS_7any_ptrE @4647
    _ZN7omnetpp10fromAnyPtrI20HttpRequestMessage_mEEPT_NS_7any_ptrE @4648
    _ZN7omnetpp10fromAnyPtrI20UserControlInfo_BaseEEPT_NS_7any_ptrE @4649
    _ZN7omnetpp10fromAnyPtrI21HttpResponseMessage_mEEPT_NS_7any_ptrE @4650
    _ZN7omnetpp10fromAnyPtrI21LteHarqFeedbackMirrorEEPT_NS_7any_ptrE @4651
    _ZN7omnetpp10fromAnyPtrI21LteMacSduRequest_BaseEEPT_NS_7any_ptrE @4652
    _ZN7omnetpp10fromAnyPtrI21ProcessingTimeMessageEEPT_NS_7any_ptrE @4653
    _ZN7omnetpp10fromAnyPtrI22DeviceAppStopAckPacketEEPT_NS_7any_ptrE @4654
    _ZN7omnetpp10fromAnyPtrI22MECOrchestratorMessageEEPT_NS_7any_ptrE @4655
    _ZN7omnetpp10fromAnyPtrI23DeleteContextAppMessageEEPT_NS_7any_ptrE @4656
    _ZN7omnetpp10fromAnyPtrI23DeviceAppStartAckPacketEEPT_NS_7any_ptrE @4657
    _ZN7omnetpp10fromAnyPtrI23LteSchedulingGrant_BaseEEPT_NS_7any_ptrE @4658
    _ZN7omnetpp10fromAnyPtrI24MecRequestResponsePacketEEPT_NS_7any_ptrE @4659
    _ZN7omnetpp10fromAnyPtrI24RequestResponseAppPacketEEPT_NS_7any_ptrE @4660
    _ZN7omnetpp10fromAnyPtrI25D2DModeSwitchNotificationEEPT_NS_7any_ptrE @4661
    _ZN7omnetpp10fromAnyPtrI25X2InformationElement_BaseEEPT_NS_7any_ptrE @4662
    _ZN7omnetpp10fromAnyPtrI26DeleteContextAppAckMessageEEPT_NS_7any_ptrE @4663
    _ZN7omnetpp10fromAnyPtrI28AperiodicSubscriptionTimer_mEEPT_NS_7any_ptrE @4664
    _ZN7omnetpp10fromAnyPtrI31RealTimeVideoStreamingAppPacketEEPT_NS_7any_ptrE @4665
    _ZN7omnetpp10fromAnyPtrI36StartRealTimeVideoStreamingAppPacketEEPT_NS_7any_ptrE @4666
    _ZN7omnetpp10fromAnyPtrI38RealTimeVideoStreamingAppSegmentHeaderEEPT_NS_7any_ptrE @4667
    _ZN7omnetpp10fromAnyPtrI42StopSessionRealTimeVideoStreamingAppPacketEEPT_NS_7any_ptrE @4668
    _ZN7omnetpp10fromAnyPtrI43StartSessionRealTimeVideoStreamingAppPacketEEPT_NS_7any_ptrE @4669
    _ZN7omnetpp10fromAnyPtrI6LteRacEEPT_NS_7any_ptrE @4670
    _ZN7omnetpp10fromAnyPtrI6MacBsrEEPT_NS_7any_ptrE @4671
    _ZN7omnetpp10fromAnyPtrI7MrwDescEEPT_NS_7any_ptrE @4672
    _ZN7omnetpp10fromAnyPtrI8AirFrameEEPT_NS_7any_ptrE @4673
    _ZN7omnetpp10fromAnyPtrI9CbrPacketEEPT_NS_7any_ptrE @4674
    _ZN7omnetpp10fromAnyPtrI9LteRlcPduEEPT_NS_7any_ptrE @4675
    _ZN7omnetpp10fromAnyPtrI9LteRlcSduEEPT_NS_7any_ptrE @4676
    _ZN7omnetpp10fromAnyPtrI9M1MessageEEPT_NS_7any_ptrE @4677
    _ZN7omnetpp10fromAnyPtrI9MECPacketEEPT_NS_7any_ptrE @4678
    _ZN7omnetpp10fromAnyPtrI9TTimerMsgEEPT_NS_7any_ptrE @4679
    _ZN7omnetpp10fromAnyPtrI9VoDPacketEEPT_NS_7any_ptrE @4680
    _ZN7omnetpp10fromAnyPtrINSt7__cxx114listItSaItEEEEEPT_NS_7any_ptrE @4681
    _ZN7omnetpp10getThisPtrEv @4682
    _ZN7omnetpp10opp_string10opp_strcmpEPKcS2_ @4683
    _ZN7omnetpp10opp_string10opp_strdupEPKc @4684
    _ZN7omnetpp10opp_stringC2EPKc @4685
    _ZN7omnetpp10opp_stringC2Ev @4686
    _ZN7omnetpp10opp_stringD2Ev @4687
    _ZN7omnetpp10opp_stringaSEPKc @4688
    _ZN7omnetpp10opp_stringaSERKNSt7__cxx1112basic_stringIcSt11char_traitsIcESaIcEEE @4689
    _ZN7omnetpp10opp_stringaSERKS0_ @4690
    _ZN7omnetpp10opp_stringpLEPKc @4691
    _ZN7omnetpp10opp_stringpLERKNSt7__cxx1112basic_stringIcSt11char_traitsIcESaIcEEE @4692
    _ZN7omnetpp11SendOptions5afterENS_7SimTimeE @4693
    _ZN7omnetpp11SendOptionsC2Ev @4694
    _ZN7omnetpp11cLineFigureC2EPKc @4695
    _ZN7omnetpp11cOvalFigureC2EPKc @4696
    _ZN7omnetpp11cSimulation14getActiveEnvirEv @4697
    _ZN7omnetpp11cSimulation19getActiveSimulationEv @4698
    _ZN7omnetpp11cWatch_bool6assignEPKc @4699
    _ZN7omnetpp11cWatch_boolC2EPKcRb @4700
    _ZN7omnetpp11cWatch_boolD0Ev @4701
    _ZN7omnetpp11cWatch_boolD2Ev @4702
    _ZN7omnetpp11createWatchEPKcRb @4703
    _ZN7omnetpp11createWatchEPKcRd @4704
    _ZN7omnetpp11createWatchEPKcRi @4705
    _ZN7omnetpp11createWatchEPKcRj @4706
    _ZN7omnetpp11createWatchEPKcRt @4707
    _ZN7omnetpp11createWatchI11RanNodeTypeEEPNS_10cWatchBaseEPKcRT_ @4708
    _ZN7omnetpp11createWatchI12FeedbackTypeEEPNS_10cWatchBaseEPKcRT_ @4709
    _ZN7omnetpp11createWatchI16RbAllocationTypeEEPNS_10cWatchBaseEPKcRT_ @4710
    _ZN7omnetpp11createWatchI6TxModeEEPNS_10cWatchBaseEPKcRT_ @4711
    _ZN7omnetpp11createWatchIN4inet5units5valueIxNS2_8intscaleINS2_5units1bELi1ELi8EEEEEEEPNS_10cWatchBaseEPKcRT_ @4712
    _ZN7omnetpp11createWatchINS_7SimTimeEEEPNS_10cWatchBaseEPKcRT_ @4713
    _ZN7omnetpp11noncopyableC2Ev @4714
    _ZN7omnetpp11noncopyableD2Ev @4715
    _ZN7omnetpp12cNamedObject14getNamePoolingEv @4716
    _ZN7omnetpp12cNamedObject7setFlagEib @4717
    _ZN7omnetpp12cPacketQueueC2EPKcPNS_6cQueue10ComparatorE @4718
    _ZN7omnetpp12cPacketQueueD2Ev @4719
    _ZN7omnetpp13CodeFragmentsD2Ev @4720
    _ZN7omnetpp13cRuntimeErrorD2Ev @4721
    _ZN7omnetpp13cSimpleModule10sendDirectEPNS_8cMessageENS_7SimTimeES3_PNS_5cGateE @4722
    _ZN7omnetpp13cSimpleModule10sendDirectEPNS_8cMessageENS_7SimTimeES3_PNS_7cModuleEPKci @4723
    _ZN7omnetpp13cSimpleModule10sendDirectEPNS_8cMessageENS_7SimTimeES3_PNS_7cModuleEi @4724
    _ZN7omnetpp13cSimpleModule10sendDirectEPNS_8cMessageEPNS_5cGateE @4725
    _ZN7omnetpp13cSimpleModule10sendDirectEPNS_8cMessageEPNS_7cModuleEPKci @4726
    _ZN7omnetpp13cSimpleModule10sendDirectEPNS_8cMessageEPNS_7cModuleEi @4727
    _ZN7omnetpp13cSimpleModule10sendDirectEPNS_8cMessageERKNS_11SendOptionsEPNS_7cModuleEPKci @4728
    _ZN7omnetpp13cSimpleModule10sendDirectEPNS_8cMessageERKNS_11SendOptionsEPNS_7cModuleEi @4729
    _ZN7omnetpp13cSimpleModule11sendDelayedEPNS_8cMessageENS_7SimTimeEPKci @4730
    _ZN7omnetpp13cSimpleModule11sendDelayedEPNS_8cMessageENS_7SimTimeEPNS_5cGateE @4731
    _ZN7omnetpp13cSimpleModule11sendDelayedEPNS_8cMessageENS_7SimTimeEi @4732
    _ZN7omnetpp13cSimpleModule4sendEPNS_8cMessageEPKci @4733
    _ZN7omnetpp13cSimpleModule4sendEPNS_8cMessageEPNS_5cGateE @4734
    _ZN7omnetpp13cSimpleModule4sendEPNS_8cMessageERKNS_11SendOptionsEPKci @4735
    _ZN7omnetpp13cSimpleModule4sendEPNS_8cMessageERKNS_11SendOptionsEi @4736
    _ZN7omnetpp13cSimpleModule4sendEPNS_8cMessageEi @4737
    _ZN7omnetpp13getSimulationEv @4738
    _ZN7omnetpp14cStdMapWatcherIjP10UmRxEntitySt4lessIjEEC2EPKcRSt3mapIjS2_S4_SaISt4pairIKjS2_EEE @4739
    _ZN7omnetpp14cStdMapWatcherIjP10UmRxEntitySt4lessIjEED0Ev @4740
    _ZN7omnetpp14cStdMapWatcherIjP10UmRxEntitySt4lessIjEED2Ev @4741
    _ZN7omnetpp14cStdMapWatcherIjP10UmTxEntitySt4lessIjEEC2EPKcRSt3mapIjS2_S4_SaISt4pairIKjS2_EEE @4742
    _ZN7omnetpp14cStdMapWatcherIjP10UmTxEntitySt4lessIjEED0Ev @4743
    _ZN7omnetpp14cStdMapWatcherIjP10UmTxEntitySt4lessIjEED2Ev @4744
    _ZN7omnetpp14cStdMapWatcherIjP11LteMacQueueSt4lessIjEEC2EPKcRSt3mapIjS2_S4_SaISt4pairIKjS2_EEE @4745
    _ZN7omnetpp14cStdMapWatcherIjP11LteMacQueueSt4lessIjEED0Ev @4746
    _ZN7omnetpp14cStdMapWatcherIjP11LteMacQueueSt4lessIjEED2Ev @4747
    _ZN7omnetpp14cStdMapWatcherIjP12LteMacBufferSt4lessIjEEC2EPKcRSt3mapIjS2_S4_SaISt4pairIKjS2_EEE @4748
    _ZN7omnetpp14cStdMapWatcherIjP12LteMacBufferSt4lessIjEED0Ev @4749
    _ZN7omnetpp14cStdMapWatcherIjP12LteMacBufferSt4lessIjEED2Ev @4750
    _ZN7omnetpp14check_and_castIP10GtpUserMsgNS_7cObjectEEET_PT0_ @4751
    _ZN7omnetpp14check_and_castIP10LteMacBaseNS_7cModuleEEET_PT0_ @4752
    _ZN7omnetpp14check_and_castIP10LtePdcpPduNS_7cObjectEEET_PT0_ @4753
    _ZN7omnetpp14check_and_castIP10LtePhyBaseNS_7cModuleEEET_PT0_ @4754
    _ZN7omnetpp14check_and_castIP10LteRohcPduNS_7cObjectEEET_PT0_ @4755
    _ZN7omnetpp14check_and_castIP10UmRxEntityNS_7cModuleEEET_PT0_ @4756
    _ZN7omnetpp14check_and_castIP10UmTxEntityNS_7cModuleEEET_PT0_ @4757
    _ZN7omnetpp14check_and_castIP10VoipPacketNS_7cObjectEEET_PT0_ @4758
    _ZN7omnetpp14check_and_castIP11AlertPacketNS_7cObjectEEET_PT0_ @4759
    _ZN7omnetpp14check_and_castIP11AmcPilotD2D8AmcPilotEET_PT0_ @4760
    _ZN7omnetpp14check_and_castIP11BurstPacketNS_7cObjectEEET_PT0_ @4761
    _ZN7omnetpp14check_and_castIP11LteAirFrameNS_8cMessageEEET_PT0_ @4762
    _ZN7omnetpp14check_and_castIP11LteMacUeD2D10LteMacBaseEET_PT0_ @4763
    _ZN7omnetpp14check_and_castIP11LteRlcAmSduNS_7cObjectEEET_PT0_ @4764
    _ZN7omnetpp14check_and_castIP11MEAppPacketNS_7cObjectEEET_PT0_ @4765
    _ZN7omnetpp14check_and_castIP11X2AppClientNS_7cModuleEEET_PT0_ @4766
    _ZN7omnetpp14check_and_castIP12LteMacEnbD2D10LteMacBaseEET_PT0_ @4767
    _ZN7omnetpp14check_and_castIP12LteMacEnbD2D9LteMacEnbEET_PT0_ @4768
    _ZN7omnetpp14check_and_castIP12LteMacEnbD2DNS_7cModuleEEET_PT0_ @4769
    _ZN7omnetpp14check_and_castIP12NRPdcpRrcEnbNS_7cModuleEEET_PT0_ @4770
    _ZN7omnetpp14check_and_castIP13LtePdcpRrcEnbNS_7cModuleEEET_PT0_ @4771
    _ZN7omnetpp14check_and_castIP13SocketManagerNS_7cModuleEEET_PT0_ @4772
    _ZN7omnetpp14check_and_castIP13UALCMPMessageNS_7cObjectEEET_PT0_ @4773
    _ZN7omnetpp14check_and_castIP13UALCMPMessageNS_8cMessageEEET_PT0_ @4774
    _ZN7omnetpp14check_and_castIP14EventGeneratorNS_7cModuleEEET_PT0_ @4775
    _ZN7omnetpp14check_and_castIP14LteControlInfoNS_7cObjectEEET_PT0_ @4776
    _ZN7omnetpp14check_and_castIP14LteMacPdu_BaseNS_7cObjectEEET_PT0_ @4777
    _ZN7omnetpp14check_and_castIP14LtePdcpRrcBaseNS_7cModuleEEET_PT0_ @4778
    _ZN7omnetpp14check_and_castIP14MigrationTimerNS_7cObjectEEET_PT0_ @4779
    _ZN7omnetpp14check_and_castIP14MigrationTimerNS_8cMessageEEET_PT0_ @4780
    _ZN7omnetpp14check_and_castIP14NRRxPdcpEntityNS_7cModuleEEET_PT0_ @4781
    _ZN7omnetpp14check_and_castIP14NRTxPdcpEntityNS_7cModuleEEET_PT0_ @4782
    _ZN7omnetpp14check_and_castIP14TMultiTimerMsg9TTimerMsgEET_PT0_ @4783
    _ZN7omnetpp14check_and_castIP14TMultiTimerMsgNS_7cObjectEEET_PT0_ @4784
    _ZN7omnetpp14check_and_castIP14TftControlInfoNS_7cObjectEEET_PT0_ @4785
    _ZN7omnetpp14check_and_castIP15DeviceAppPacketNS_7cObjectEEET_PT0_ @4786
    _ZN7omnetpp14check_and_castIP15FlowControlInfoNS_7cObjectEEET_PT0_ @4787
    _ZN7omnetpp14check_and_castIP15FlowControlInfoS1_EET_PT0_ @4788
    _ZN7omnetpp14check_and_castIP15HttpBaseMessageNS_7cObjectEEET_PT0_ @4789
    _ZN7omnetpp14check_and_castIP15LteChannelModelNS_7cModuleEEET_PT0_ @4790
    _ZN7omnetpp14check_and_castIP15LteHarqFeedbackNS_7cObjectEEET_PT0_ @4791
    _ZN7omnetpp14check_and_castIP15LteRlcUmDataPduN4inet6PacketEEET_PT0_ @4792
    _ZN7omnetpp14check_and_castIP15LteRxPdcpEntityNS_7cModuleEEET_PT0_ @4793
    _ZN7omnetpp14check_and_castIP15LteTxPdcpEntityNS_7cModuleEEET_PT0_ @4794
    _ZN7omnetpp14check_and_castIP15MecOrchestratorNS_7cModuleEEET_PT0_ @4795
    _ZN7omnetpp14check_and_castIP15RtxNotificationNS_7cObjectEEET_PT0_ @4796
    _ZN7omnetpp14check_and_castIP15RtxNotificationNS_8cMessageEEET_PT0_ @4797
    _ZN7omnetpp14check_and_castIP15ServiceRegistryNS_7cModuleEEET_PT0_ @4798
    _ZN7omnetpp14check_and_castIP15TrickleTimerMsgNS_7cObjectEEET_PT0_ @4799
    _ZN7omnetpp14check_and_castIP15TrickleTimerMsgNS_8cMessageEEET_PT0_ @4800
    _ZN7omnetpp14check_and_castIP15UserControlInfoNS_7cObjectEEET_PT0_ @4801
    _ZN7omnetpp14check_and_castIP16ComponentCarrierNS_7cModuleEEET_PT0_ @4802
    _ZN7omnetpp14check_and_castIP16CreateAppMessageNS_7cObjectEEET_PT0_ @4803
    _ZN7omnetpp14check_and_castIP16CreateContextAppNS_7cObjectEEET_PT0_ @4804
    _ZN7omnetpp14check_and_castIP16DeleteAppMessageNS_7cObjectEEET_PT0_ @4805
    _ZN7omnetpp14check_and_castIP16LteAirFrame_BaseNS_7cObjectEEET_PT0_ @4806
    _ZN7omnetpp14check_and_castIP16LteRlcAmPdu_BaseNS_7cObjectEEET_PT0_ @4807
    _ZN7omnetpp14check_and_castIP16LteRlcPduNewDataNS_7cObjectEEET_PT0_ @4808
    _ZN7omnetpp14check_and_castIP16UeStatsCollectorNS_7cModuleEEET_PT0_ @4809
    _ZN7omnetpp14check_and_castIP16WarningAppPacketNS_7cObjectEEET_PT0_ @4810
    _ZN7omnetpp14check_and_castIP16X2ControlInfoTagNS_7cObjectEEET_PT0_ @4811
    _ZN7omnetpp14check_and_castIP17LteX2Message_BaseNS_7cObjectEEET_PT0_ @4812
    _ZN7omnetpp14check_and_castIP17MultihopD2DPacketNS_7cObjectEEET_PT0_ @4813
    _ZN7omnetpp14check_and_castIP17WarningStopPacketNS_7cObjectEEET_PT0_ @4814
    _ZN7omnetpp14check_and_castIP18HttpRequestMessage15HttpBaseMessageEET_PT0_ @4815
    _ZN7omnetpp14check_and_castIP18HttpRequestMessageNS_7cObjectEEET_PT0_ @4816
    _ZN7omnetpp14check_and_castIP18LteHandoverManagerNS_7cModuleEEET_PT0_ @4817
    _ZN7omnetpp14check_and_castIP18LteRlcDataPdu_BaseNS_7cObjectEEET_PT0_ @4818
    _ZN7omnetpp14check_and_castIP18MecPlatformManagerNS_7cModuleEEET_PT0_ @4819
    _ZN7omnetpp14check_and_castIP18WarningAlertPacketNS_7cObjectEEET_PT0_ @4820
    _ZN7omnetpp14check_and_castIP18WarningStartPacketNS_7cObjectEEET_PT0_ @4821
    _ZN7omnetpp14check_and_castIP19BackgroundSchedulerNS_7cModuleEEET_PT0_ @4822
    _ZN7omnetpp14check_and_castIP19CreateContextAppAckNS_7cObjectEEET_PT0_ @4823
    _ZN7omnetpp14check_and_castIP19DeviceAppStopPacketNS_7cObjectEEET_PT0_ @4824
    _ZN7omnetpp14check_and_castIP19LteFeedbackPkt_BaseNS_7cObjectEEET_PT0_ @4825
    _ZN7omnetpp14check_and_castIP19LteHarqProcessRxD2D16LteHarqProcessRxEET_PT0_ @4826
    _ZN7omnetpp14check_and_castIP19PacketFlowManagerUeNS_7cModuleEEET_PT0_ @4827
    _ZN7omnetpp14check_and_castIP19X2HandoverCommandIE20X2InformationElementEET_PT0_ @4828
    _ZN7omnetpp14check_and_castIP20ActiveUeNotificationNS_7cObjectEEET_PT0_ @4829
    _ZN7omnetpp14check_and_castIP20ActiveUeNotificationNS_8cMessageEEET_PT0_ @4830
    _ZN7omnetpp14check_and_castIP20D2DModeSelectionBaseNS_7cModuleEEET_PT0_ @4831
    _ZN7omnetpp14check_and_castIP20DeviceAppStartPacketNS_7cObjectEEET_PT0_ @4832
    _ZN7omnetpp14check_and_castIP20HttpRequestMessage_mNS_7cObjectEEET_PT0_ @4833
    _ZN7omnetpp14check_and_castIP20PacketFlowManagerEnbNS_7cModuleEEET_PT0_ @4834
    _ZN7omnetpp14check_and_castIP20TrafficGeneratorBaseNS_7cModuleEEET_PT0_ @4835
    _ZN7omnetpp14check_and_castIP20TrafficGeneratorBaseS1_EET_PT0_ @4836
    _ZN7omnetpp14check_and_castIP20UserControlInfo_BaseNS_7cObjectEEET_PT0_ @4837
    _ZN7omnetpp14check_and_castIP20X2HandoverControlMsg12LteX2MessageEET_PT0_ @4838
    _ZN7omnetpp14check_and_castIP21HttpResponseMessage_mNS_7cObjectEEET_PT0_ @4839
    _ZN7omnetpp14check_and_castIP21LteHarqFeedbackMirrorNS_7cObjectEEET_PT0_ @4840
    _ZN7omnetpp14check_and_castIP21LteMacSduRequest_BaseNS_7cObjectEEET_PT0_ @4841
    _ZN7omnetpp14check_and_castIP21MultihopD2DStatisticsNS_7cModuleEEET_PT0_ @4842
    _ZN7omnetpp14check_and_castIP21PacketFlowManagerBaseNS_7cModuleEEET_PT0_ @4843
    _ZN7omnetpp14check_and_castIP21ProcessingTimeMessageNS_7cObjectEEET_PT0_ @4844
    _ZN7omnetpp14check_and_castIP21ProcessingTimeMessageNS_8cMessageEEET_PT0_ @4845
    _ZN7omnetpp14check_and_castIP22DeviceAppStopAckPacketNS_7cObjectEEET_PT0_ @4846
    _ZN7omnetpp14check_and_castIP22LteDlFeedbackGeneratorNS_7cModuleEEET_PT0_ @4847
    _ZN7omnetpp14check_and_castIP22MECOrchestratorMessageNS_7cObjectEEET_PT0_ @4848
    _ZN7omnetpp14check_and_castIP22MECOrchestratorMessageNS_8cMessageEEET_PT0_ @4849
    _ZN7omnetpp14check_and_castIP22TrafficLightControllerNS_7cModuleEEET_PT0_ @4850
    _ZN7omnetpp14check_and_castIP23CircleNotificationEvent17EventNotificationEET_PT0_ @4851
    _ZN7omnetpp14check_and_castIP23CreateContextAppMessage13UALCMPMessageEET_PT0_ @4852
    _ZN7omnetpp14check_and_castIP23DeleteContextAppMessage13UALCMPMessageEET_PT0_ @4853
    _ZN7omnetpp14check_and_castIP23DeleteContextAppMessageNS_7cObjectEEET_PT0_ @4854
    _ZN7omnetpp14check_and_castIP23DeviceAppStartAckPacketNS_7cObjectEEET_PT0_ @4855
    _ZN7omnetpp14check_and_castIP23DualConnectivityManagerNS_7cModuleEEET_PT0_ @4856
    _ZN7omnetpp14check_and_castIP23LteSchedulingGrant_BaseNS_7cObjectEEET_PT0_ @4857
    _ZN7omnetpp14check_and_castIP24BackgroundTrafficManagerNS_7cModuleEEET_PT0_ @4858
    _ZN7omnetpp14check_and_castIP24MecRequestResponsePacketNS_7cObjectEEET_PT0_ @4859
    _ZN7omnetpp14check_and_castIP24RequestResponseAppPacketNS_7cObjectEEET_PT0_ @4860
    _ZN7omnetpp14check_and_castIP25BaseStationStatsCollectorNS_7cModuleEEET_PT0_ @4861
    _ZN7omnetpp14check_and_castIP25D2DModeSwitchNotificationNS_7cObjectEEET_PT0_ @4862
    _ZN7omnetpp14check_and_castIP25X2CompProportionalReplyIE20X2InformationElementEET_PT0_ @4863
    _ZN7omnetpp14check_and_castIP26AperiodicSubscriptionTimerNS_8cMessageEEET_PT0_ @4864
    _ZN7omnetpp14check_and_castIP26BackgroundCellChannelModelNS_7cModuleEEET_PT0_ @4865
    _ZN7omnetpp14check_and_castIP26CreateContextAppAckMessage13UALCMPMessageEET_PT0_ @4866
    _ZN7omnetpp14check_and_castIP26DeleteContextAppAckMessage13UALCMPMessageEET_PT0_ @4867
    _ZN7omnetpp14check_and_castIP26DeleteContextAppAckMessageNS_7cObjectEEET_PT0_ @4868
    _ZN7omnetpp14check_and_castIP26DistanceBasedConflictGraph13ConflictGraphEET_PT0_ @4869
    _ZN7omnetpp14check_and_castIP27X2CompProportionalRequestIE20X2InformationElementEET_PT0_ @4870
    _ZN7omnetpp14check_and_castIP28AperiodicSubscriptionTimer_mNS_7cObjectEEET_PT0_ @4871
    _ZN7omnetpp14check_and_castIP31RealTimeVideoStreamingAppPacketNS_7cObjectEEET_PT0_ @4872
    _ZN7omnetpp14check_and_castIP35VirtualisationInfrastructureManagerNS_7cModuleEEET_PT0_ @4873
    _ZN7omnetpp14check_and_castIP36StartRealTimeVideoStreamingAppPacketNS_7cObjectEEET_PT0_ @4874
    _ZN7omnetpp14check_and_castIP38RealTimeVideoStreamingAppSegmentHeaderNS_7cObjectEEET_PT0_ @4875
    _ZN7omnetpp14check_and_castIP42StopSessionRealTimeVideoStreamingAppPacketNS_7cObjectEEET_PT0_ @4876
    _ZN7omnetpp14check_and_castIP43StartSessionRealTimeVideoStreamingAppPacketNS_7cObjectEEET_PT0_ @4877
    _ZN7omnetpp14check_and_castIP6BinderNS_7cModuleEEET_PT0_ @4878
    _ZN7omnetpp14check_and_castIP6IP2NicNS_7cModuleEEET_PT0_ @4879
    _ZN7omnetpp14check_and_castIP6LteRacNS_7cObjectEEET_PT0_ @4880
    _ZN7omnetpp14check_and_castIP6MacBsr17MacControlElementEET_PT0_ @4881
    _ZN7omnetpp14check_and_castIP7NRPhyUeNS_7cModuleEEET_PT0_ @4882
    _ZN7omnetpp14check_and_castIP8AirFrameNS_7cObjectEEET_PT0_ @4883
    _ZN7omnetpp14check_and_castIP8CellInfoNS_7cModuleEEET_PT0_ @4884
    _ZN7omnetpp14check_and_castIP8LteMacUeNS_7cModuleEEET_PT0_ @4885
    _ZN7omnetpp14check_and_castIP8LtePhyUe10LtePhyBaseEET_PT0_ @4886
    _ZN7omnetpp14check_and_castIP8LtePhyUeNS_7cModuleEEET_PT0_ @4887
    _ZN7omnetpp14check_and_castIP8LteRlcAmNS_7cModuleEEET_PT0_ @4888
    _ZN7omnetpp14check_and_castIP8LteRlcUmNS_7cModuleEEET_PT0_ @4889
    _ZN7omnetpp14check_and_castIP9AmRxQueueNS_7cModuleEEET_PT0_ @4890
    _ZN7omnetpp14check_and_castIP9AmTxQueueNS_7cModuleEEET_PT0_ @4891
    _ZN7omnetpp14check_and_castIP9CbrPacketNS_7cObjectEEET_PT0_ @4892
    _ZN7omnetpp14check_and_castIP9LteMacEnb10LteMacBaseEET_PT0_ @4893
    _ZN7omnetpp14check_and_castIP9LteMacEnbNS_7cModuleEEET_PT0_ @4894
    _ZN7omnetpp14check_and_castIP9LteMacEnbS1_EET_PT0_ @4895
    _ZN7omnetpp14check_and_castIP9LtePhyEnbNS_7cModuleEEET_PT0_ @4896
    _ZN7omnetpp14check_and_castIP9LteRlcPduNS_7cObjectEEET_PT0_ @4897
    _ZN7omnetpp14check_and_castIP9LteRlcSduNS_7cObjectEEET_PT0_ @4898
    _ZN7omnetpp14check_and_castIP9M1MessageNS_7cObjectEEET_PT0_ @4899
    _ZN7omnetpp14check_and_castIP9MECPacketNS_7cObjectEEET_PT0_ @4900
    _ZN7omnetpp14check_and_castIP9TTimerMsgNS_7cObjectEEET_PT0_ @4901
    _ZN7omnetpp14check_and_castIP9TTimerMsgNS_8cMessageEEET_PT0_ @4902
    _ZN7omnetpp14check_and_castIP9VoDPacketNS_7cObjectEEET_PT0_ @4903
    _ZN7omnetpp14check_and_castIPK12UserTxParamsS2_EET_PT0_ @4904
    _ZN7omnetpp14check_and_castIPN4inet14InterfaceTableENS_7cModuleEEET_PT0_ @4905
    _ZN7omnetpp14check_and_castIPN4inet18StationaryMobilityENS_7cModuleEEET_PT0_ @4906
    _ZN7omnetpp14check_and_castIPN4inet23Ipv4NetworkConfiguratorENS_7cModuleEEET_PT0_ @4907
    _ZN7omnetpp14check_and_castIPN4inet6PacketENS_7cObjectEEET_PT0_ @4908
    _ZN7omnetpp14check_and_castIPN4inet6PacketENS_7cPacketEEET_PT0_ @4909
    _ZN7omnetpp14check_and_castIPN4inet6PacketENS_8cMessageEEET_PT0_ @4910
    _ZN7omnetpp14check_and_castIPN4inet6PacketES2_EET_PT0_ @4911
    _ZN7omnetpp14check_and_castIPN4inet9IMobilityENS_7cModuleEEET_PT0_ @4912
    _ZN7omnetpp14check_and_castIPN4inet9IMobilityENS_7cObjectEEET_PT0_ @4913
    _ZN7omnetpp14check_and_castIPN4inet9TcpSocketENS1_7ISocketEEET_PT0_ @4914
    _ZN7omnetpp14check_and_castIPNS_13cSimpleModuleENS_7cModuleEEET_PT0_ @4915
    _ZN7omnetpp14check_and_castIPNS_7cModuleEN4inet20LifecycleUnsupportedEEET_PT0_ @4916
    _ZN7omnetpp14check_and_castIPNS_7cPacketEN4inet6PacketEEET_PT0_ @4917
    _ZN7omnetpp14check_and_castIPNS_7cPacketENS_7cObjectEEET_PT0_ @4918
    _ZN7omnetpp14check_and_castIPNS_7cPacketENS_8cMessageEEET_PT0_ @4919
    _ZN7omnetpp14check_and_castIPNS_7cPacketES1_EET_PT0_ @4920
    _ZN7omnetpp15cMessagePrinterC2Ev @4921
    _ZN7omnetpp15cMessagePrinterD0Ev @4922
    _ZN7omnetpp15cMessagePrinterD2Ev @4923
    _ZN7omnetpp15doParsimPackingEPNS_11cCommBufferERKNS_10opp_stringE @4924
    _ZN7omnetpp15doParsimPackingEPNS_11cCommBufferERKNS_7SimTimeE @4925
    _ZN7omnetpp15doParsimPackingEPNS_11cCommBufferEb @4926
    _ZN7omnetpp15doParsimPackingEPNS_11cCommBufferEd @4927
    _ZN7omnetpp15doParsimPackingEPNS_11cCommBufferEh @4928
    _ZN7omnetpp15doParsimPackingEPNS_11cCommBufferEi @4929
    _ZN7omnetpp15doParsimPackingEPNS_11cCommBufferEj @4930
    _ZN7omnetpp15doParsimPackingEPNS_11cCommBufferEl @4931
    _ZN7omnetpp15doParsimPackingEPNS_11cCommBufferEm @4932
    _ZN7omnetpp15doParsimPackingEPNS_11cCommBufferEt @4933
    _ZN7omnetpp15doParsimPackingI14ModulationTypeEEvPNS_11cCommBufferERKT_ @4934
    _ZN7omnetpp15doParsimPackingI17MacControlElementEEvPNS_11cCommBufferERKT_ @4935
    _ZN7omnetpp15doParsimPackingIN4inet5CoordEEEvPNS_11cCommBufferERKT_ @4936
    _ZN7omnetpp15doParsimPackingItSaItEEEvPNS_11cCommBufferERKNSt7__cxx114listIT_T0_EE @4937
    _ZN7omnetpp16cClassDescriptor14simtime2stringB5cxx11ENS_7SimTimeE @4938
    _ZN7omnetpp16cClassDescriptor14string2simtimeEPKc @4939
    _ZN7omnetpp16cClassDescriptor16oppstring2stringB5cxx11EPKc @4940
    _ZN7omnetpp16cClassDescriptorD2Ev @4941
    _ZN7omnetpp16cRectangleFigureC2EPKc @4942
    _ZN7omnetpp16cStringTokenizerC2EPKcS2_ @4943
    _ZN7omnetpp16checked_int_castIhxEET_T0_PKNS_7cObjectEPKc @4944
    _ZN7omnetpp16checked_int_castIhxEET_T0_PKc @4945
    _ZN7omnetpp16checked_int_castIixEET_T0_PKNS_7cObjectEPKc @4946
    _ZN7omnetpp16checked_int_castIixEET_T0_PKc @4947
    _ZN7omnetpp16checked_int_castIjxEET_T0_PKNS_7cObjectEPKc @4948
    _ZN7omnetpp16checked_int_castIjxEET_T0_PKc @4949
    _ZN7omnetpp16checked_int_castIlxEET_T0_PKc @4950
    _ZN7omnetpp16checked_int_castImxEET_T0_PKc @4951
    _ZN7omnetpp16checked_int_castItxEET_T0_PKNS_7cObjectEPKc @4952
    _ZN7omnetpp16checked_int_castItxEET_T0_PKc @4953
    _ZN7omnetpp16checked_int_castIxmEET_T0_PKc @4954
    _ZN7omnetpp16checked_int_castIxxEET_T0_PKNS_7cObjectEPKc @4955
    _ZN7omnetpp17doParsimUnpackingEPNS_11cCommBufferERNS_10opp_stringE @4956
    _ZN7omnetpp17doParsimUnpackingEPNS_11cCommBufferERNS_7SimTimeE @4957
    _ZN7omnetpp17doParsimUnpackingEPNS_11cCommBufferERb @4958
    _ZN7omnetpp17doParsimUnpackingEPNS_11cCommBufferERd @4959
    _ZN7omnetpp17doParsimUnpackingEPNS_11cCommBufferERh @4960
    _ZN7omnetpp17doParsimUnpackingEPNS_11cCommBufferERi @4961
    _ZN7omnetpp17doParsimUnpackingEPNS_11cCommBufferERj @4962
    _ZN7omnetpp17doParsimUnpackingEPNS_11cCommBufferERl @4963
    _ZN7omnetpp17doParsimUnpackingEPNS_11cCommBufferERm @4964
    _ZN7omnetpp17doParsimUnpackingEPNS_11cCommBufferERt @4965
    _ZN7omnetpp17doParsimUnpackingI14ModulationTypeEEvPNS_11cCommBufferERT_ @4966
    _ZN7omnetpp17doParsimUnpackingI17MacControlElementEEvPNS_11cCommBufferERT_ @4967
    _ZN7omnetpp17doParsimUnpackingIN4inet5CoordEEEvPNS_11cCommBufferERT_ @4968
    _ZN7omnetpp17doParsimUnpackingItSaItEEEvPNS_11cCommBufferERNSt7__cxx114listIT_T0_EE @4969
    _ZN7omnetpp19cAbstractLineFigureC2EPKc @4970
    _ZN7omnetpp19cAbstractLineFigureD2Ev @4971
    _ZN7omnetpp19createStdMapWatcherIjP10UmRxEntitySt4lessIjEEEvPKcRSt3mapIT_T0_T1_SaISt4pairIKS8_S9_EEE @4972
    _ZN7omnetpp19createStdMapWatcherIjP10UmTxEntitySt4lessIjEEEvPKcRSt3mapIT_T0_T1_SaISt4pairIKS8_S9_EEE @4973
    _ZN7omnetpp19createStdMapWatcherIjP11LteMacQueueSt4lessIjEEEvPKcRSt3mapIT_T0_T1_SaISt4pairIKS8_S9_EEE @4974
    _ZN7omnetpp19createStdMapWatcherIjP12LteMacBufferSt4lessIjEEEvPKcRSt3mapIT_T0_T1_SaISt4pairIKS8_S9_EEE @4975
    _ZN7omnetpp20cAbstractShapeFigureC2EPKc @4976
    _ZN7omnetpp20cAbstractShapeFigureD2Ev @4977
    _ZN7omnetpp21cGenericReadonlyWatchI11RanNodeTypeEC2EPKcRKS1_ @4978
    _ZN7omnetpp21cGenericReadonlyWatchI11RanNodeTypeED0Ev @4979
    _ZN7omnetpp21cGenericReadonlyWatchI11RanNodeTypeED2Ev @4980
    _ZN7omnetpp21cGenericReadonlyWatchI12FeedbackTypeEC2EPKcRKS1_ @4981
    _ZN7omnetpp21cGenericReadonlyWatchI12FeedbackTypeED0Ev @4982
    _ZN7omnetpp21cGenericReadonlyWatchI12FeedbackTypeED2Ev @4983
    _ZN7omnetpp21cGenericReadonlyWatchI16RbAllocationTypeEC2EPKcRKS1_ @4984
    _ZN7omnetpp21cGenericReadonlyWatchI16RbAllocationTypeED0Ev @4985
    _ZN7omnetpp21cGenericReadonlyWatchI16RbAllocationTypeED2Ev @4986
    _ZN7omnetpp21cGenericReadonlyWatchI6TxModeEC2EPKcRKS1_ @4987
    _ZN7omnetpp21cGenericReadonlyWatchI6TxModeED0Ev @4988
    _ZN7omnetpp21cGenericReadonlyWatchI6TxModeED2Ev @4989
    _ZN7omnetpp21cGenericReadonlyWatchIN4inet5units5valueIxNS2_8intscaleINS2_5units1bELi1ELi8EEEEEEC2EPKcRKS8_ @4990
    _ZN7omnetpp21cGenericReadonlyWatchIN4inet5units5valueIxNS2_8intscaleINS2_5units1bELi1ELi8EEEEEED0Ev @4991
    _ZN7omnetpp21cGenericReadonlyWatchIN4inet5units5valueIxNS2_8intscaleINS2_5units1bELi1ELi8EEEEEED2Ev @4992
    _ZN7omnetpp21cGenericReadonlyWatchINS_7SimTimeEEC2EPKcRKS1_ @4993
    _ZN7omnetpp21cGenericReadonlyWatchINS_7SimTimeEED0Ev @4994
    _ZN7omnetpp21cGenericReadonlyWatchINS_7SimTimeEED2Ev @4995
    _ZN7omnetpp21cStdVectorWatcherBaseC2EPKc @4996
    _ZN7omnetpp21cStdVectorWatcherBaseD2Ev @4997
    _ZN7omnetpp22check_and_cast_failureIP10GtpUserMsgNS_7cObjectEEEvPT0_T_ @4998
    _ZN7omnetpp22check_and_cast_failureIP10LteMacBaseNS_7cModuleEEEvPT0_T_ @4999
    _ZN7omnetpp22check_and_cast_failureIP10LtePdcpPduNS_7cObjectEEEvPT0_T_ @5000
    _ZN7omnetpp22check_and_cast_failureIP10LtePhyBaseNS_7cModuleEEEvPT0_T_ @5001
    _ZN7omnetpp22check_and_cast_failureIP10LteRohcPduNS_7cObjectEEEvPT0_T_ @5002
    _ZN7omnetpp22check_and_cast_failureIP10UmRxEntityNS_7cModuleEEEvPT0_T_ @5003
    _ZN7omnetpp22check_and_cast_failureIP10UmTxEntityNS_7cModuleEEEvPT0_T_ @5004
    _ZN7omnetpp22check_and_cast_failureIP10VoipPacketNS_7cObjectEEEvPT0_T_ @5005
    _ZN7omnetpp22check_and_cast_failureIP11AlertPacketNS_7cObjectEEEvPT0_T_ @5006
    _ZN7omnetpp22check_and_cast_failureIP11AmcPilotD2D8AmcPilotEEvPT0_T_ @5007
    _ZN7omnetpp22check_and_cast_failureIP11BurstPacketNS_7cObjectEEEvPT0_T_ @5008
    _ZN7omnetpp22check_and_cast_failureIP11LteAirFrameNS_8cMessageEEEvPT0_T_ @5009
    _ZN7omnetpp22check_and_cast_failureIP11LteMacUeD2D10LteMacBaseEEvPT0_T_ @5010
    _ZN7omnetpp22check_and_cast_failureIP11LteRlcAmSduNS_7cObjectEEEvPT0_T_ @5011
    _ZN7omnetpp22check_and_cast_failureIP11MEAppPacketNS_7cObjectEEEvPT0_T_ @5012
    _ZN7omnetpp22check_and_cast_failureIP11X2AppClientNS_7cModuleEEEvPT0_T_ @5013
    _ZN7omnetpp22check_and_cast_failureIP12LteMacEnbD2D10LteMacBaseEEvPT0_T_ @5014
    _ZN7omnetpp22check_and_cast_failureIP12LteMacEnbD2D9LteMacEnbEEvPT0_T_ @5015
    _ZN7omnetpp22check_and_cast_failureIP12LteMacEnbD2DNS_7cModuleEEEvPT0_T_ @5016
    _ZN7omnetpp22check_and_cast_failureIP12NRPdcpRrcEnbNS_7cModuleEEEvPT0_T_ @5017
    _ZN7omnetpp22check_and_cast_failureIP13LtePdcpRrcEnbNS_7cModuleEEEvPT0_T_ @5018
    _ZN7omnetpp22check_and_cast_failureIP13SocketManagerNS_7cModuleEEEvPT0_T_ @5019
    _ZN7omnetpp22check_and_cast_failureIP13UALCMPMessageNS_7cObjectEEEvPT0_T_ @5020
    _ZN7omnetpp22check_and_cast_failureIP13UALCMPMessageNS_8cMessageEEEvPT0_T_ @5021
    _ZN7omnetpp22check_and_cast_failureIP14EventGeneratorNS_7cModuleEEEvPT0_T_ @5022
    _ZN7omnetpp22check_and_cast_failureIP14LteControlInfoNS_7cObjectEEEvPT0_T_ @5023
    _ZN7omnetpp22check_and_cast_failureIP14LteMacPdu_BaseNS_7cObjectEEEvPT0_T_ @5024
    _ZN7omnetpp22check_and_cast_failureIP14LtePdcpRrcBaseNS_7cModuleEEEvPT0_T_ @5025
    _ZN7omnetpp22check_and_cast_failureIP14MigrationTimerNS_7cObjectEEEvPT0_T_ @5026
    _ZN7omnetpp22check_and_cast_failureIP14MigrationTimerNS_8cMessageEEEvPT0_T_ @5027
    _ZN7omnetpp22check_and_cast_failureIP14NRRxPdcpEntityNS_7cModuleEEEvPT0_T_ @5028
    _ZN7omnetpp22check_and_cast_failureIP14NRTxPdcpEntityNS_7cModuleEEEvPT0_T_ @5029
    _ZN7omnetpp22check_and_cast_failureIP14TMultiTimerMsg9TTimerMsgEEvPT0_T_ @5030
    _ZN7omnetpp22check_and_cast_failureIP14TMultiTimerMsgNS_7cObjectEEEvPT0_T_ @5031
    _ZN7omnetpp22check_and_cast_failureIP14TftControlInfoNS_7cObjectEEEvPT0_T_ @5032
    _ZN7omnetpp22check_and_cast_failureIP15DeviceAppPacketNS_7cObjectEEEvPT0_T_ @5033
    _ZN7omnetpp22check_and_cast_failureIP15FlowControlInfoNS_7cObjectEEEvPT0_T_ @5034
    _ZN7omnetpp22check_and_cast_failureIP15FlowControlInfoS1_EEvPT0_T_ @5035
    _ZN7omnetpp22check_and_cast_failureIP15HttpBaseMessageNS_7cObjectEEEvPT0_T_ @5036
    _ZN7omnetpp22check_and_cast_failureIP15LteChannelModelNS_7cModuleEEEvPT0_T_ @5037
    _ZN7omnetpp22check_and_cast_failureIP15LteHarqFeedbackNS_7cObjectEEEvPT0_T_ @5038
    _ZN7omnetpp22check_and_cast_failureIP15LteRlcUmDataPduN4inet6PacketEEEvPT0_T_ @5039
    _ZN7omnetpp22check_and_cast_failureIP15LteRxPdcpEntityNS_7cModuleEEEvPT0_T_ @5040
    _ZN7omnetpp22check_and_cast_failureIP15LteTxPdcpEntityNS_7cModuleEEEvPT0_T_ @5041
    _ZN7omnetpp22check_and_cast_failureIP15MecOrchestratorNS_7cModuleEEEvPT0_T_ @5042
    _ZN7omnetpp22check_and_cast_failureIP15RtxNotificationNS_7cObjectEEEvPT0_T_ @5043
    _ZN7omnetpp22check_and_cast_failureIP15RtxNotificationNS_8cMessageEEEvPT0_T_ @5044
    _ZN7omnetpp22check_and_cast_failureIP15ServiceRegistryNS_7cModuleEEEvPT0_T_ @5045
    _ZN7omnetpp22check_and_cast_failureIP15TrickleTimerMsgNS_7cObjectEEEvPT0_T_ @5046
    _ZN7omnetpp22check_and_cast_failureIP15TrickleTimerMsgNS_8cMessageEEEvPT0_T_ @5047
    _ZN7omnetpp22check_and_cast_failureIP15UserControlInfoNS_7cObjectEEEvPT0_T_ @5048
    _ZN7omnetpp22check_and_cast_failureIP16ComponentCarrierNS_7cModuleEEEvPT0_T_ @5049
    _ZN7omnetpp22check_and_cast_failureIP16CreateAppMessageNS_7cObjectEEEvPT0_T_ @5050
    _ZN7omnetpp22check_and_cast_failureIP16CreateContextAppNS_7cObjectEEEvPT0_T_ @5051
    _ZN7omnetpp22check_and_cast_failureIP16DeleteAppMessageNS_7cObjectEEEvPT0_T_ @5052
    _ZN7omnetpp22check_and_cast_failureIP16LteAirFrame_BaseNS_7cObjectEEEvPT0_T_ @5053
    _ZN7omnetpp22check_and_cast_failureIP16LteRlcAmPdu_BaseNS_7cObjectEEEvPT0_T_ @5054
    _ZN7omnetpp22check_and_cast_failureIP16LteRlcPduNewDataNS_7cObjectEEEvPT0_T_ @5055
    _ZN7omnetpp22check_and_cast_failureIP16UeStatsCollectorNS_7cModuleEEEvPT0_T_ @5056
    _ZN7omnetpp22check_and_cast_failureIP16WarningAppPacketNS_7cObjectEEEvPT0_T_ @5057
    _ZN7omnetpp22check_and_cast_failureIP16X2ControlInfoTagNS_7cObjectEEEvPT0_T_ @5058
    _ZN7omnetpp22check_and_cast_failureIP17LteX2Message_BaseNS_7cObjectEEEvPT0_T_ @5059
    _ZN7omnetpp22check_and_cast_failureIP17MultihopD2DPacketNS_7cObjectEEEvPT0_T_ @5060
    _ZN7omnetpp22check_and_cast_failureIP17WarningStopPacketNS_7cObjectEEEvPT0_T_ @5061
    _ZN7omnetpp22check_and_cast_failureIP18HttpRequestMessage15HttpBaseMessageEEvPT0_T_ @5062
    _ZN7omnetpp22check_and_cast_failureIP18HttpRequestMessageNS_7cObjectEEEvPT0_T_ @5063
    _ZN7omnetpp22check_and_cast_failureIP18LteHandoverManagerNS_7cModuleEEEvPT0_T_ @5064
    _ZN7omnetpp22check_and_cast_failureIP18LteRlcDataPdu_BaseNS_7cObjectEEEvPT0_T_ @5065
    _ZN7omnetpp22check_and_cast_failureIP18MecPlatformManagerNS_7cModuleEEEvPT0_T_ @5066
    _ZN7omnetpp22check_and_cast_failureIP18WarningAlertPacketNS_7cObjectEEEvPT0_T_ @5067
    _ZN7omnetpp22check_and_cast_failureIP18WarningStartPacketNS_7cObjectEEEvPT0_T_ @5068
    _ZN7omnetpp22check_and_cast_failureIP19BackgroundSchedulerNS_7cModuleEEEvPT0_T_ @5069
    _ZN7omnetpp22check_and_cast_failureIP19CreateContextAppAckNS_7cObjectEEEvPT0_T_ @5070
    _ZN7omnetpp22check_and_cast_failureIP19DeviceAppStopPacketNS_7cObjectEEEvPT0_T_ @5071
    _ZN7omnetpp22check_and_cast_failureIP19LteFeedbackPkt_BaseNS_7cObjectEEEvPT0_T_ @5072
    _ZN7omnetpp22check_and_cast_failureIP19LteHarqProcessRxD2D16LteHarqProcessRxEEvPT0_T_ @5073
    _ZN7omnetpp22check_and_cast_failureIP19PacketFlowManagerUeNS_7cModuleEEEvPT0_T_ @5074
    _ZN7omnetpp22check_and_cast_failureIP19X2HandoverCommandIE20X2InformationElementEEvPT0_T_ @5075
    _ZN7omnetpp22check_and_cast_failureIP20ActiveUeNotificationNS_7cObjectEEEvPT0_T_ @5076
    _ZN7omnetpp22check_and_cast_failureIP20ActiveUeNotificationNS_8cMessageEEEvPT0_T_ @5077
    _ZN7omnetpp22check_and_cast_failureIP20D2DModeSelectionBaseNS_7cModuleEEEvPT0_T_ @5078
    _ZN7omnetpp22check_and_cast_failureIP20DeviceAppStartPacketNS_7cObjectEEEvPT0_T_ @5079
    _ZN7omnetpp22check_and_cast_failureIP20HttpRequestMessage_mNS_7cObjectEEEvPT0_T_ @5080
    _ZN7omnetpp22check_and_cast_failureIP20PacketFlowManagerEnbNS_7cModuleEEEvPT0_T_ @5081
    _ZN7omnetpp22check_and_cast_failureIP20TrafficGeneratorBaseNS_7cModuleEEEvPT0_T_ @5082
    _ZN7omnetpp22check_and_cast_failureIP20TrafficGeneratorBaseS1_EEvPT0_T_ @5083
    _ZN7omnetpp22check_and_cast_failureIP20UserControlInfo_BaseNS_7cObjectEEEvPT0_T_ @5084
    _ZN7omnetpp22check_and_cast_failureIP20X2HandoverControlMsg12LteX2MessageEEvPT0_T_ @5085
    _ZN7omnetpp22check_and_cast_failureIP21HttpResponseMessage_mNS_7cObjectEEEvPT0_T_ @5086
    _ZN7omnetpp22check_and_cast_failureIP21LteHarqFeedbackMirrorNS_7cObjectEEEvPT0_T_ @5087
    _ZN7omnetpp22check_and_cast_failureIP21LteMacSduRequest_BaseNS_7cObjectEEEvPT0_T_ @5088
    _ZN7omnetpp22check_and_cast_failureIP21MultihopD2DStatisticsNS_7cModuleEEEvPT0_T_ @5089
    _ZN7omnetpp22check_and_cast_failureIP21PacketFlowManagerBaseNS_7cModuleEEEvPT0_T_ @5090
    _ZN7omnetpp22check_and_cast_failureIP21ProcessingTimeMessageNS_7cObjectEEEvPT0_T_ @5091
    _ZN7omnetpp22check_and_cast_failureIP21ProcessingTimeMessageNS_8cMessageEEEvPT0_T_ @5092
    _ZN7omnetpp22check_and_cast_failureIP22DeviceAppStopAckPacketNS_7cObjectEEEvPT0_T_ @5093
    _ZN7omnetpp22check_and_cast_failureIP22LteDlFeedbackGeneratorNS_7cModuleEEEvPT0_T_ @5094
    _ZN7omnetpp22check_and_cast_failureIP22MECOrchestratorMessageNS_7cObjectEEEvPT0_T_ @5095
    _ZN7omnetpp22check_and_cast_failureIP22MECOrchestratorMessageNS_8cMessageEEEvPT0_T_ @5096
    _ZN7omnetpp22check_and_cast_failureIP22TrafficLightControllerNS_7cModuleEEEvPT0_T_ @5097
    _ZN7omnetpp22check_and_cast_failureIP23CircleNotificationEvent17EventNotificationEEvPT0_T_ @5098
    _ZN7omnetpp22check_and_cast_failureIP23CreateContextAppMessage13UALCMPMessageEEvPT0_T_ @5099
    _ZN7omnetpp22check_and_cast_failureIP23DeleteContextAppMessage13UALCMPMessageEEvPT0_T_ @5100
    _ZN7omnetpp22check_and_cast_failureIP23DeleteContextAppMessageNS_7cObjectEEEvPT0_T_ @5101
    _ZN7omnetpp22check_and_cast_failureIP23DeviceAppStartAckPacketNS_7cObjectEEEvPT0_T_ @5102
    _ZN7omnetpp22check_and_cast_failureIP23DualConnectivityManagerNS_7cModuleEEEvPT0_T_ @5103
    _ZN7omnetpp22check_and_cast_failureIP23LteSchedulingGrant_BaseNS_7cObjectEEEvPT0_T_ @5104
    _ZN7omnetpp22check_and_cast_failureIP24BackgroundTrafficManagerNS_7cModuleEEEvPT0_T_ @5105
    _ZN7omnetpp22check_and_cast_failureIP24MecRequestResponsePacketNS_7cObjectEEEvPT0_T_ @5106
    _ZN7omnetpp22check_and_cast_failureIP24RequestResponseAppPacketNS_7cObjectEEEvPT0_T_ @5107
    _ZN7omnetpp22check_and_cast_failureIP25BaseStationStatsCollectorNS_7cModuleEEEvPT0_T_ @5108
    _ZN7omnetpp22check_and_cast_failureIP25D2DModeSwitchNotificationNS_7cObjectEEEvPT0_T_ @5109
    _ZN7omnetpp22check_and_cast_failureIP25X2CompProportionalReplyIE20X2InformationElementEEvPT0_T_ @5110
    _ZN7omnetpp22check_and_cast_failureIP26AperiodicSubscriptionTimerNS_8cMessageEEEvPT0_T_ @5111
    _ZN7omnetpp22check_and_cast_failureIP26BackgroundCellChannelModelNS_7cModuleEEEvPT0_T_ @5112
    _ZN7omnetpp22check_and_cast_failureIP26CreateContextAppAckMessage13UALCMPMessageEEvPT0_T_ @5113
    _ZN7omnetpp22check_and_cast_failureIP26DeleteContextAppAckMessage13UALCMPMessageEEvPT0_T_ @5114
    _ZN7omnetpp22check_and_cast_failureIP26DeleteContextAppAckMessageNS_7cObjectEEEvPT0_T_ @5115
    _ZN7omnetpp22check_and_cast_failureIP26DistanceBasedConflictGraph13ConflictGraphEEvPT0_T_ @5116
    _ZN7omnetpp22check_and_cast_failureIP27X2CompProportionalRequestIE20X2InformationElementEEvPT0_T_ @5117
    _ZN7omnetpp22check_and_cast_failureIP28AperiodicSubscriptionTimer_mNS_7cObjectEEEvPT0_T_ @5118
    _ZN7omnetpp22check_and_cast_failureIP31RealTimeVideoStreamingAppPacketNS_7cObjectEEEvPT0_T_ @5119
    _ZN7omnetpp22check_and_cast_failureIP35VirtualisationInfrastructureManagerNS_7cModuleEEEvPT0_T_ @5120
    _ZN7omnetpp22check_and_cast_failureIP36StartRealTimeVideoStreamingAppPacketNS_7cObjectEEEvPT0_T_ @5121
    _ZN7omnetpp22check_and_cast_failureIP38RealTimeVideoStreamingAppSegmentHeaderNS_7cObjectEEEvPT0_T_ @5122
    _ZN7omnetpp22check_and_cast_failureIP42StopSessionRealTimeVideoStreamingAppPacketNS_7cObjectEEEvPT0_T_ @5123
    _ZN7omnetpp22check_and_cast_failureIP43StartSessionRealTimeVideoStreamingAppPacketNS_7cObjectEEEvPT0_T_ @5124
    _ZN7omnetpp22check_and_cast_failureIP6BinderNS_7cModuleEEEvPT0_T_ @5125
    _ZN7omnetpp22check_and_cast_failureIP6IP2NicNS_7cModuleEEEvPT0_T_ @5126
    _ZN7omnetpp22check_and_cast_failureIP6LteRacNS_7cObjectEEEvPT0_T_ @5127
    _ZN7omnetpp22check_and_cast_failureIP6MacBsr17MacControlElementEEvPT0_T_ @5128
    _ZN7omnetpp22check_and_cast_failureIP7NRPhyUeNS_7cModuleEEEvPT0_T_ @5129
    _ZN7omnetpp22check_and_cast_failureIP8AirFrameNS_7cObjectEEEvPT0_T_ @5130
    _ZN7omnetpp22check_and_cast_failureIP8CellInfoNS_7cModuleEEEvPT0_T_ @5131
    _ZN7omnetpp22check_and_cast_failureIP8LteMacUeNS_7cModuleEEEvPT0_T_ @5132
    _ZN7omnetpp22check_and_cast_failureIP8LtePhyUe10LtePhyBaseEEvPT0_T_ @5133
    _ZN7omnetpp22check_and_cast_failureIP8LtePhyUeNS_7cModuleEEEvPT0_T_ @5134
    _ZN7omnetpp22check_and_cast_failureIP8LteRlcAmNS_7cModuleEEEvPT0_T_ @5135
    _ZN7omnetpp22check_and_cast_failureIP8LteRlcUmNS_7cModuleEEEvPT0_T_ @5136
    _ZN7omnetpp22check_and_cast_failureIP9AmRxQueueNS_7cModuleEEEvPT0_T_ @5137
    _ZN7omnetpp22check_and_cast_failureIP9AmTxQueueNS_7cModuleEEEvPT0_T_ @5138
    _ZN7omnetpp22check_and_cast_failureIP9CbrPacketNS_7cObjectEEEvPT0_T_ @5139
    _ZN7omnetpp22check_and_cast_failureIP9LteMacEnb10LteMacBaseEEvPT0_T_ @5140
    _ZN7omnetpp22check_and_cast_failureIP9LteMacEnbNS_7cModuleEEEvPT0_T_ @5141
    _ZN7omnetpp22check_and_cast_failureIP9LteMacEnbS1_EEvPT0_T_ @5142
    _ZN7omnetpp22check_and_cast_failureIP9LtePhyEnbNS_7cModuleEEEvPT0_T_ @5143
    _ZN7omnetpp22check_and_cast_failureIP9LteRlcPduNS_7cObjectEEEvPT0_T_ @5144
    _ZN7omnetpp22check_and_cast_failureIP9LteRlcSduNS_7cObjectEEEvPT0_T_ @5145
    _ZN7omnetpp22check_and_cast_failureIP9M1MessageNS_7cObjectEEEvPT0_T_ @5146
    _ZN7omnetpp22check_and_cast_failureIP9MECPacketNS_7cObjectEEEvPT0_T_ @5147
    _ZN7omnetpp22check_and_cast_failureIP9TTimerMsgNS_7cObjectEEEvPT0_T_ @5148
    _ZN7omnetpp22check_and_cast_failureIP9TTimerMsgNS_8cMessageEEEvPT0_T_ @5149
    _ZN7omnetpp22check_and_cast_failureIP9VoDPacketNS_7cObjectEEEvPT0_T_ @5150
    _ZN7omnetpp22check_and_cast_failureIPK12UserTxParamsS2_EEvPT0_T_ @5151
    _ZN7omnetpp22check_and_cast_failureIPN4inet14InterfaceTableENS_7cModuleEEEvPT0_T_ @5152
    _ZN7omnetpp22check_and_cast_failureIPN4inet18StationaryMobilityENS_7cModuleEEEvPT0_T_ @5153
    _ZN7omnetpp22check_and_cast_failureIPN4inet23Ipv4NetworkConfiguratorENS_7cModuleEEEvPT0_T_ @5154
    _ZN7omnetpp22check_and_cast_failureIPN4inet6PacketENS_7cObjectEEEvPT0_T_ @5155
    _ZN7omnetpp22check_and_cast_failureIPN4inet6PacketENS_7cPacketEEEvPT0_T_ @5156
    _ZN7omnetpp22check_and_cast_failureIPN4inet6PacketENS_8cMessageEEEvPT0_T_ @5157
    _ZN7omnetpp22check_and_cast_failureIPN4inet6PacketES2_EEvPT0_T_ @5158
    _ZN7omnetpp22check_and_cast_failureIPN4inet9IMobilityENS_7cModuleEEEvPT0_T_ @5159
    _ZN7omnetpp22check_and_cast_failureIPN4inet9IMobilityENS_7cObjectEEEvPT0_T_ @5160
    _ZN7omnetpp22check_and_cast_failureIPN4inet9TcpSocketENS1_7ISocketEEEvPT0_T_ @5161
    _ZN7omnetpp22check_and_cast_failureIPNS_13cSimpleModuleENS_7cModuleEEEvPT0_T_ @5162
    _ZN7omnetpp22check_and_cast_failureIPNS_7cModuleEN4inet20LifecycleUnsupportedEEEvPT0_T_ @5163
    _ZN7omnetpp22check_and_cast_failureIPNS_7cPacketEN4inet6PacketEEEvPT0_T_ @5164
    _ZN7omnetpp22check_and_cast_failureIPNS_7cPacketENS_7cObjectEEEvPT0_T_ @5165
    _ZN7omnetpp22check_and_cast_failureIPNS_7cPacketENS_8cMessageEEEvPT0_T_ @5166
    _ZN7omnetpp22check_and_cast_failureIPNS_7cPacketES1_EEvPT0_T_ @5167
    _ZN7omnetpp23cGenericAssignableWatchIdE6assignEPKc @5168
    _ZN7omnetpp23cGenericAssignableWatchIdEC2EPKcRd @5169
    _ZN7omnetpp23cGenericAssignableWatchIdED0Ev @5170
    _ZN7omnetpp23cGenericAssignableWatchIdED2Ev @5171
    _ZN7omnetpp23cGenericAssignableWatchIiE6assignEPKc @5172
    _ZN7omnetpp23cGenericAssignableWatchIiEC2EPKcRi @5173
    _ZN7omnetpp23cGenericAssignableWatchIiED0Ev @5174
    _ZN7omnetpp23cGenericAssignableWatchIiED2Ev @5175
    _ZN7omnetpp23cGenericAssignableWatchIjE6assignEPKc @5176
    _ZN7omnetpp23cGenericAssignableWatchIjEC2EPKcRj @5177
    _ZN7omnetpp23cGenericAssignableWatchIjED0Ev @5178
    _ZN7omnetpp23cGenericAssignableWatchIjED2Ev @5179
    _ZN7omnetpp23cGenericAssignableWatchItE6assignEPKc @5180
    _ZN7omnetpp23cGenericAssignableWatchItEC2EPKcRt @5181
    _ZN7omnetpp23cGenericAssignableWatchItED0Ev @5182
    _ZN7omnetpp23cGenericAssignableWatchItED2Ev @5183
    _ZN7omnetpp23cNoncopyableOwnedObject12parsimUnpackEPNS_11cCommBufferE @5184
    _ZN7omnetpp23cNoncopyableOwnedObjectC2EPKcb @5185
    _ZN7omnetpp23cNoncopyableOwnedObjectD2Ev @5186
    _ZN7omnetpp23check_and_cast_nullableIPN4inet9TcpSocketENS1_7ISocketEEET_PT0_ @5187
    _ZN7omnetpp4cLog19runtimeLogPredicateEPKNS_10cComponentENS_8LogLevelEPKc @5188
    _ZN7omnetpp4cLog19runtimeLogPredicateEPKvNS_8LogLevelEPKc @5189
    _ZN7omnetpp4cPar14setStringValueERKNSt7__cxx1112basic_stringIcSt11char_traitsIcESaIcEEE @5190
    _ZN7omnetpp4cParaSERKNSt7__cxx1112basic_stringIcSt11char_traitsIcESaIcEEE @5191
    _ZN7omnetpp4cParaSEd @5192
    _ZN7omnetpp4cParaSEi @5193
    _ZN7omnetpp4cParaSEt @5194
    _ZN7omnetpp6cEvent21setSchedulingPriorityEs @5195
    _ZN7omnetpp6cQueue8Iterator4initERKS0_b @5196
    _ZN7omnetpp6cQueue8IteratorC2ERKS0_b @5197
    _ZN7omnetpp6cQueue8IteratorppEi @5198
    _ZN7omnetpp6cValue3setENS_7any_ptrE @5199
    _ZN7omnetpp6cValue3setEPKc @5200
    _ZN7omnetpp6cValue3setEb @5201
    _ZN7omnetpp6cValue3setEdPKc @5202
    _ZN7omnetpp6cValue3setExPKc @5203
    _ZN7omnetpp6cValueC2ENS_7any_ptrE @5204
    _ZN7omnetpp6cValueC2EPKc @5205
    _ZN7omnetpp6cValueC2Eb @5206
    _ZN7omnetpp6cValueC2Ed @5207
    _ZN7omnetpp6cValueC2Ei @5208
    _ZN7omnetpp6cValueC2Ex @5209
    _ZN7omnetpp6cValueC2ExPKc @5210
    _ZN7omnetpp7SimTime10checkedAddERKS0_ @5211
    _ZN7omnetpp7SimTime10checkedSubERKS0_ @5212
    _ZN7omnetpp7SimTime10setSecondsEx @5213
    _ZN7omnetpp7SimTime11getScaleExpEv @5214
    _ZN7omnetpp7SimTime12assertInitedIdEEvT_ @5215
    _ZN7omnetpp7SimTime12assertInitedIiEEvT_ @5216
    _ZN7omnetpp7SimTime12haveSameSignExx @5217
    _ZN7omnetpp7SimTime6setRawEx @5218
    _ZN7omnetpp7SimTime7toInt64Ed @5219
    _ZN7omnetpp7SimTimeC2ERKS0_ @5220
    _ZN7omnetpp7SimTimeC2ERNS_4cParE @5221
    _ZN7omnetpp7SimTimeC2Ed @5222
    _ZN7omnetpp7SimTimeC2Ev @5223
    _ZN7omnetpp7SimTimeaSEd @5224
    _ZN7omnetpp7SimTimeaSEi @5225
    _ZN7omnetpp7SimTimedVEi @5226
    _ZN7omnetpp7SimTimedVEl @5227
    _ZN7omnetpp7SimTimemIERKS0_ @5228
    _ZN7omnetpp7SimTimemLEj @5229
    _ZN7omnetpp7SimTimepLERKS0_ @5230
    _ZN7omnetpp7any_ptr3getI11RlcFragDescEEPT_v @5231
    _ZN7omnetpp7any_ptr3getI13RlcWindowDescEEPT_v @5232
    _ZN7omnetpp7any_ptr3getI14ModulationTypeEEPT_v @5233
    _ZN7omnetpp7any_ptr3getI17MacControlElementEEPT_v @5234
    _ZN7omnetpp7any_ptr3getI17RlcUmRxWindowDescEEPT_v @5235
    _ZN7omnetpp7any_ptr3getI25X2InformationElement_BaseEEPT_v @5236
    _ZN7omnetpp7any_ptr3getI7MrwDescEEPT_v @5237
    _ZN7omnetpp7any_ptr3getINS_7cObjectEEEPT_v @5238
    _ZN7omnetpp7any_ptr3getINSt7__cxx114listItSaItEEEEEPT_v @5239
    _ZN7omnetpp7any_ptrC2EDn @5240
    _ZN7omnetpp7any_ptrC2ERKS0_ @5241
    _ZN7omnetpp7any_ptrC2Ev @5242
    _ZN7omnetpp7any_ptrC2I14ModulationTypeEEPKT_ @5243
    _ZN7omnetpp7any_ptrC2I14ModulationTypeEEPT_ @5244
    _ZN7omnetpp7any_ptrC2IN4inet5CoordEEEPKT_ @5245
    _ZN7omnetpp7any_ptrC2IN4inet5CoordEEEPT_ @5246
    _ZN7omnetpp7any_ptrC2IN4inet9L3AddressEEEPKT_ @5247
    _ZN7omnetpp7any_ptrC2IN4inet9L3AddressEEEPT_ @5248
    _ZN7omnetpp7any_ptrC2INS_7cObjectEEEPKT_ @5249
    _ZN7omnetpp7any_ptrC2INS_7cObjectEEEPT_ @5250
    _ZN7omnetpp7any_ptrC2INSt7__cxx114listItSaItEEEEEPKT_ @5251
    _ZN7omnetpp7any_ptrC2INSt7__cxx114listItSaItEEEEEPT_ @5252
    _ZN7omnetpp7any_ptraSERKS0_ @5253
    _ZN7omnetpp7cFigure5PointC2Edd @5254
    _ZN7omnetpp7cFigure5PointC2Ev @5255
    _ZN7omnetpp7cFigure9RectangleC2Edddd @5256
    _ZN7omnetpp7cFigure9RectangleC2Ev @5257
    _ZN7omnetpp7cModule12GateIteratorC2EPKS0_ @5258
    _ZN7omnetpp7cModule12GateIteratorppEi @5259
    _ZN7omnetpp7cModule17SubmoduleIteratorC2EPKS0_ @5260
    _ZN7omnetpp7cModule17SubmoduleIteratorppEi @5261
    _ZN7omnetpp7cModule27setBuiltinAnimationsAllowedEb @5262
    _ZN7omnetpp7cObjectC2ERKS0_ @5263
    _ZN7omnetpp7cObjectC2Ev @5264
    _ZN7omnetpp7cObjectaSERKS0_ @5265
    _ZN7omnetpp7cPacket11setBitErrorEb @5266
    _ZN7omnetpp7simTimeEv @5267
    _ZN7omnetpp8cMessage10getParListEv @5268
    _ZN7omnetpp8cMessage12removeObjectEPKc @5269
    _ZN7omnetpp8cMessage12removeObjectEPNS_7cObjectE @5270
    _ZN7omnetpp8cMessage12setTimestampENS_7SimTimeE @5271
    _ZN7omnetpp8cMessage12setTimestampEv @5272
    _ZN7omnetpp8cMessage6addParEPKc @5273
    _ZN7omnetpp8cMessage6addParEPNS_7cMsgParE @5274
    _ZN7omnetpp8cMessage7setKindEs @5275
    _ZN7omnetpp8cMessage9addObjectEPNS_7cObjectE @5276
    _ZN7omnetpp8cMessage9getObjectEPKc @5277
    _ZN7omnetpp8cMessage9hasObjectEPKc @5278
    _ZN7omnetpp8getEnvirEv @5279
    _ZN7omnetpp8internal9cLogProxy9getStreamEv @5280
    _ZN7omnetpp8toAnyPtrEPK14ModulationType @5281
    _ZN7omnetpp8toAnyPtrEPKN4inet5CoordE @5282
    _ZN7omnetpp8toAnyPtrEPKN4inet9L3AddressE @5283
    _ZN7omnetpp8toAnyPtrEPKNS_7cObjectE @5284
    _ZN7omnetpp8toAnyPtrEPKNSt7__cxx114listItSaItEEE @5285
    _ZN7omnetpp9bernoulliEPNS_4cRNGEd @5286
    _ZN7omnetpp9cListenerC2Ev @5287
    _ZN7omnetpp9cListenerD2Ev @5288
    _ZN7omnetpp9lognormalEPNS_4cRNGEdd @5289
    _ZN7omnetppdvERKNS_7SimTimeES2_ @5290
    _ZN7omnetppdvERKNS_7SimTimeEi @5291
    _ZN7omnetppdvERKNS_7SimTimeEl @5292
    _ZN7omnetppdvEdRKNS_7SimTimeE @5293
    _ZN7omnetpplsERSoRKNS_7SimTimeE @5294
    _ZN7omnetpplsI10UmRxEntityEENSt9enable_ifIXsr3std10is_base_ofINS_7cObjectET_EE5valueERSoE4typeES5_PKS4_ @5295
    _ZN7omnetpplsI10UmTxEntityEENSt9enable_ifIXsr3std10is_base_ofINS_7cObjectET_EE5valueERSoE4typeES5_PKS4_ @5296
    _ZN7omnetpplsI8AirFrameEENSt9enable_ifIXsr3std10is_base_ofINS_7cObjectET_EE5valueERSoE4typeES5_PKS4_ @5297
    _ZN7omnetpplsIN4inet6PacketEEENSt9enable_ifIXsr3std10is_base_ofINS_7cObjectET_EE5valueERSoE4typeES6_RKS5_ @5298
    _ZN7omnetpplsINS_7cModuleEEENSt9enable_ifIXsr3std10is_base_ofINS_7cObjectET_EE5valueERSoE4typeES5_PKS4_ @5299
    _ZN7omnetppmiERKNS_7SimTimeES2_ @5300
    _ZN7omnetppmlEjRKNS_7SimTimeE @5301
    _ZN7omnetppplERKNS_7SimTimeES2_ @5302
    _ZN8AirFrame10setBitrateEd @5303
    _ZN8AirFrame11setDurationEN7omnetpp7SimTimeE @5304
    _ZN8AirFrame11setLossRateEd @5305
    _ZN8AirFrame12parsimUnpackEPN7omnetpp11cCommBufferE @5306
    _ZN8AirFrame12setBandwidthEd @5307
    _ZN8AirFrame12setSenderPosERKN4inet5CoordE @5308
    _ZN8AirFrame16setChannelNumberEi @5309
    _ZN8AirFrame17setModulationTypeERK14ModulationType @5310
    _ZN8AirFrame19setCarrierFrequencyEd @5311
    _ZN8AirFrame21getSenderPosForUpdateEv @5312
    _ZN8AirFrame26getModulationTypeForUpdateEv @5313
    _ZN8AirFrame4copyERKS_ @5314
    _ZN8AirFrame6setSnrEd @5315
    _ZN8AirFrame8setPSendEd @5316
    _ZN8AirFrame9setPowRecEd @5317
    _ZN8AirFrameC1EPKcs @5318
    _ZN8AirFrameC1ERKS_ @5319
    _ZN8AirFrameC2EPKcs @5320
    _ZN8AirFrameC2ERKS_ @5321
    _ZN8AirFrameD0Ev @5322
    _ZN8AirFrameD1Ev @5323
    _ZN8AirFrameD2Ev @5324
    _ZN8AirFrameaSERKS_ @5325
    _ZN8AmcPilot7getNameB5cxx11Ev @5326
    _ZN8AmcPilot7setModeE21PilotComputationModes @5327
    _ZN8AmcPilotC2EP6LteAmc @5328
    _ZN8AmcPilotD0Ev @5329
    _ZN8AmcPilotD2Ev @5330
    _ZN8CGVertexC2Ett @5331
    _ZN8CellInfo10attachUserEt @5332
    _ZN8CellInfo10detachUserEt @5333
    _ZN8CellInfo10getEnbTypeEv @5334
    _ZN8CellInfo10initializeEi @5335
    _ZN8CellInfo10lambdaInitEtj @5336
    _ZN8CellInfo11getCarriersEv @5337
    _ZN8CellInfo11getNumBandsEv @5338
    _ZN8CellInfo12getMacCellIdEv @5339
    _ZN8CellInfo12lambdaUpdateEtj @5340
    _ZN8CellInfo13channelUpdateEtj @5341
    _ZN8CellInfo13getAntennaCwsEv @5342
    _ZN8CellInfo13getMcsScaleDlEv @5343
    _ZN8CellInfo13getMcsScaleUlEv @5344
    _ZN8CellInfo13getUePositionEt @5345
    _ZN8CellInfo13setUePositionEtN4inet5CoordE @5346
    _ZN8CellInfo14updateMCSScaleEPddd9Direction @5347
    _ZN8CellInfo15getCellwiseBandEdt @5348
    _ZN8CellInfo15registerCarrierEdjjbjj @5349
    _ZN8CellInfo17calculateMCSScaleEPdS0_ @5350
    _ZN8CellInfo17computeSlotFormatEbjj @5351
    _ZN8CellInfo17getCarrierInfoMapEv @5352
    _ZN8CellInfo17getUePositionListEv @5353
    _ZN8CellInfo18createAntennaCwMapEv @5354
    _ZN8CellInfo18getCarrierLastBandEd @5355
    _ZN8CellInfo18getCarrierNumBandsEd @5356
    _ZN8CellInfo19getCarrierBandLimitEd @5357
    _ZN8CellInfo19getRemoteAntennaSetEv @5358
    _ZN8CellInfo20getNumPreferredBandsEv @5359
    _ZN8CellInfo21calculateNodePositionEddiiidPdS0_ @5360
    _ZN8CellInfo21getMaxNumerologyIndexEv @5361
    _ZN8CellInfo22getCarrierStartingBandEd @5362
    _ZN8CellInfo25getPrimaryCarrierNumBandsEv @5363
    _ZN8CellInfo26getPrimaryCarrierFrequencyEv @5364
    _ZN8CellInfo8deployRuEddii @5365
    _ZN8CellInfo9getLambdaEt @5366
    _ZN8CellInfo9getLambdaEv @5367
    _ZN8CellInfo9getNumRusEv @5368
    _ZN8CellInfoC1Ev @5369
    _ZN8CellInfoC2Ev @5370
    _ZN8CellInfoD0Ev @5371
    _ZN8CellInfoD1Ev @5372
    _ZN8CellInfoD2Ev @5373
    _ZN8LteMacUe10doHandoverEt @5374
    _ZN8LteMacUe10initializeEi @5375
    _ZN8LteMacUe10macPduMakeEj @5376
    _ZN8LteMacUe12deleteQueuesEt @5377
    _ZN8LteMacUe12macHandleRacEPN7omnetpp7cPacketE @5378
    _ZN8LteMacUe12macPduUnmakeEPN7omnetpp7cPacketE @5379
    _ZN8LteMacUe13handleMessageEPN7omnetpp8cMessageE @5380
    _ZN8LteMacUe13macSduRequestEv @5381
    _ZN8LteMacUe14macHandleGrantEPN7omnetpp7cPacketE @5382
    _ZN8LteMacUe15bufferizePacketEPN7omnetpp7cPacketE @5383
    _ZN8LteMacUe16flushHarqBuffersEv @5384
    _ZN8LteMacUe17handleSelfMessageEv @5385
    _ZN8LteMacUe17updateUserTxParamEPN7omnetpp7cPacketE @5386
    _ZN8LteMacUe18handleUpperMessageEPN7omnetpp7cPacketE @5387
    _ZN8LteMacUe23getLowestBackloggedFlowERjS0_ @5388
    _ZN8LteMacUe24getHighestBackloggedFlowERjS0_ @5389
    _ZN8LteMacUe8checkRACEv @5390
    _ZN8LteMacUeC1Ev @5391
    _ZN8LteMacUeC2Ev @5392
    _ZN8LteMacUeD0Ev @5393
    _ZN8LteMacUeD1Ev @5394
    _ZN8LteMacUeD2Ev @5395
    _ZN8LteMaxCi14commitScheduleEv @5396
    _ZN8LteMaxCi15prepareScheduleEv @5397
    _ZN8LteMaxCiC1Ev @5398
    _ZN8LteMaxCiD0Ev @5399
    _ZN8LteMaxCiD1Ev @5400
    _ZN8LteMaxCiD2Ev @5401
    _ZN8LtePhyUe10doHandoverEv @5402
    _ZN8LtePhyUe10initializeEi @5403
    _ZN8LtePhyUe12getDasFilterEv @5404
    _ZN8LtePhyUe12sendFeedbackESt6vectorIS0_I11LteFeedbackSaIS1_EESaIS3_EES5_15FeedbackRequest @5405
    _ZN8LtePhyUe13getAverageCqiE9Direction @5406
    _ZN8LtePhyUe14getVarianceCqiE9Direction @5407
    _ZN8LtePhyUe14handleAirFrameEPN7omnetpp8cMessageE @5408
    _ZN8LtePhyUe15handoverHandlerEP11LteAirFrameP15UserControlInfo @5409
    _ZN8LtePhyUe15triggerHandoverEv @5410
    _ZN8LtePhyUe16deleteOldBuffersEt @5411
    _ZN8LtePhyUe17handleSelfMessageEPN7omnetpp8cMessageE @5412
    _ZN8LtePhyUe18handleUpperMessageEPN7omnetpp8cMessageE @5413
    _ZN8LtePhyUe18updateHysteresisThEd @5414
    _ZN8LtePhyUe6finishEPN7omnetpp10cComponentEi @5415
    _ZN8LtePhyUe6finishEv @5416
    _ZN8LtePhyUe9recordCqiEj9Direction @5417
    _ZN8LtePhyUeC1Ev @5418
    _ZN8LtePhyUeC2Ev @5419
    _ZN8LtePhyUeD0Ev @5420
    _ZN8LtePhyUeD1Ev @5421
    _ZN8LtePhyUeD2Ev @5422
    _ZN8LteRlcAm10initializeEv @5423
    _ZN8LteRlcAm11getRxBufferEtt @5424
    _ZN8LteRlcAm11getTxBufferEtt @5425
    _ZN8LteRlcAm12deleteQueuesEt @5426
    _ZN8LteRlcAm13handleMessageEPN7omnetpp8cMessageE @5427
    _ZN8LteRlcAm14sendFragmentedEPN7omnetpp7cPacketE @5428
    _ZN8LteRlcAm16bufferControlPduEPN7omnetpp7cPacketE @5429
    _ZN8LteRlcAm16sendDefragmentedEPN7omnetpp7cPacketE @5430
    _ZN8LteRlcAm18handleLowerMessageEPN7omnetpp7cPacketE @5431
    _ZN8LteRlcAm18handleUpperMessageEPN7omnetpp7cPacketE @5432
    _ZN8LteRlcAm19routeControlMessageEPN7omnetpp7cPacketE @5433
    _ZN8LteRlcAm20indicateNewDataToMacEPN7omnetpp7cPacketE @5434
    _ZN8LteRlcAm6finishEv @5435
    _ZN8LteRlcAmC2Ev @5436
    _ZN8LteRlcAmD0Ev @5437
    _ZN8LteRlcAmD2Ev @5438
    _ZN8LteRlcTm10initializeEv @5439
    _ZN8LteRlcTm13handleMessageEPN7omnetpp8cMessageE @5440
    _ZN8LteRlcTm18handleLowerMessageEPN7omnetpp7cPacketE @5441
    _ZN8LteRlcTm18handleUpperMessageEPN7omnetpp7cPacketE @5442
    _ZN8LteRlcTm6finishEv @5443
    _ZN8LteRlcTmC2Ev @5444
    _ZN8LteRlcTmD0Ev @5445
    _ZN8LteRlcTmD2Ev @5446
    _ZN8LteRlcUm10activeUeULEPSt3setItSt4lessItESaItEE @5447
    _ZN8LteRlcUm10initializeEi @5448
    _ZN8LteRlcUm11getRxBufferEN4inet12IntrusivePtrI15FlowControlInfoEE @5449
    _ZN8LteRlcUm11getTxBufferEN4inet12IntrusivePtrI15FlowControlInfoEE @5450
    _ZN8LteRlcUm12deleteQueuesEt @5451
    _ZN8LteRlcUm13handleMessageEPN7omnetpp8cMessageE @5452
    _ZN8LteRlcUm15addUeThroughputEt10Throughput @5453
    _ZN8LteRlcUm15getUeThroughputEt @5454
    _ZN8LteRlcUm16sendDefragmentedEPN7omnetpp7cPacketE @5455
    _ZN8LteRlcUm16sendToLowerLayerEPN7omnetpp7cPacketE @5456
    _ZN8LteRlcUm18dropBufferOverflowEPN7omnetpp7cPacketE @5457
    _ZN8LteRlcUm18handleLowerMessageEPN7omnetpp7cPacketE @5458
    _ZN8LteRlcUm18handleUpperMessageEPN7omnetpp7cPacketE @5459
    _ZN8LteRlcUm18isEmptyingTxBufferEt @5460
    _ZN8LteRlcUm20resetThroughputStatsEt @5461
    _ZN8LteRlcUm25resumeDownstreamInPacketsEt @5462
    _ZN8LteRlcUm6finishEv @5463
    _ZN8LteRlcUmC2Ev @5464
    _ZN8LteRlcUmD0Ev @5465
    _ZN8LteRlcUmD2Ev @5466
    _ZN8McsTable2atEt @5467
    _ZN8McsTable7rescaleEd @5468
    _ZN8McsTableC1Ev @5469
    _ZN8McsTableC2Ev @5470
    _ZN8McsTableD2Ev @5471
    _ZN8NRMacGnb10initializeEi @5472
    _ZN8NRMacGnbC1Ev @5473
    _ZN8NRMacGnbC2Ev @5474
    _ZN8NRMacGnbD0Ev @5475
    _ZN8NRMacGnbD1Ev @5476
    _ZN8NRMacGnbD2Ev @5477
    _ZN8SockAddrC2Ev @5478
    _ZN8UserInfoC1ERK12LocationInfoRKN4inet11Ipv4AddressEtRKNSt7__cxx1112basic_stringIcSt11char_traitsIcESaIcEEEi @5479
    _ZN8UserInfoC1ERKN4inet5CoordES3_RKNS0_11Ipv4AddressEtRKNSt7__cxx1112basic_stringIcSt11char_traitsIcESaIcEEEi @5480
    _ZN8UserInfoC1Ev @5481
    _ZN8UserInfoC2ERK12LocationInfoRKN4inet11Ipv4AddressEtRKNSt7__cxx1112basic_stringIcSt11char_traitsIcESaIcEEEi @5482
    _ZN8UserInfoC2ERKN4inet5CoordES3_RKNS0_11Ipv4AddressEtRKNSt7__cxx1112basic_stringIcSt11char_traitsIcESaIcEEEi @5483
    _ZN8UserInfoC2Ev @5484
    _ZN8UserInfoD0Ev @5485
    _ZN8UserInfoD2Ev @5486
    _ZN8nlohmann10basic_jsonINS_11ordered_mapESt6vectorNSt7__cxx1112basic_stringIcSt11char_traitsIcESaIcEEEbxydSaNS_14adl_serializerES2_IhSaIhEEE10json_value7destroyENS_6detail7value_tE @5487
    _ZN8nlohmann10basic_jsonINS_11ordered_mapESt6vectorNSt7__cxx1112basic_stringIcSt11char_traitsIcESaIcEEEbxydSaNS_14adl_serializerES2_IhSaIhEEE10json_valueC2ENS_6detail7value_tE @5488
    _ZN8nlohmann10basic_jsonINS_11ordered_mapESt6vectorNSt7__cxx1112basic_stringIcSt11char_traitsIcESaIcEEEbxydSaNS_14adl_serializerES2_IhSaIhEEE10json_valueC2EOS8_ @5489
    _ZN8nlohmann10basic_jsonINS_11ordered_mapESt6vectorNSt7__cxx1112basic_stringIcSt11char_traitsIcESaIcEEEbxydSaNS_14adl_serializerES2_IhSaIhEEE10json_valueC2ERKNS1_IS8_SC_St4lessIvESaISt4pairIKS8_SC_EEEE @5490
    _ZN8nlohmann10basic_jsonINS_11ordered_mapESt6vectorNSt7__cxx1112basic_stringIcSt11char_traitsIcESaIcEEEbxydSaNS_14adl_serializerES2_IhSaIhEEE10json_valueC2ERKNS_27byte_container_with_subtypeISB_EE @5491
    _ZN8nlohmann10basic_jsonINS_11ordered_mapESt6vectorNSt7__cxx1112basic_stringIcSt11char_traitsIcESaIcEEEbxydSaNS_14adl_serializerES2_IhSaIhEEE10json_valueC2ERKS2_ISC_SaISC_EE @5492
    _ZN8nlohmann10basic_jsonINS_11ordered_mapESt6vectorNSt7__cxx1112basic_stringIcSt11char_traitsIcESaIcEEEbxydSaNS_14adl_serializerES2_IhSaIhEEE10json_valueC2ERKS8_ @5493
    _ZN8nlohmann10basic_jsonINS_11ordered_mapESt6vectorNSt7__cxx1112basic_stringIcSt11char_traitsIcESaIcEEEbxydSaNS_14adl_serializerES2_IhSaIhEEE10json_valueC2Eb @5494
    _ZN8nlohmann10basic_jsonINS_11ordered_mapESt6vectorNSt7__cxx1112basic_stringIcSt11char_traitsIcESaIcEEEbxydSaNS_14adl_serializerES2_IhSaIhEEE10json_valueC2Ed @5495
    _ZN8nlohmann10basic_jsonINS_11ordered_mapESt6vectorNSt7__cxx1112basic_stringIcSt11char_traitsIcESaIcEEEbxydSaNS_14adl_serializerES2_IhSaIhEEE10json_valueC2Ex @5496
    _ZN8nlohmann10basic_jsonINS_11ordered_mapESt6vectorNSt7__cxx1112basic_stringIcSt11char_traitsIcESaIcEEEbxydSaNS_14adl_serializerES2_IhSaIhEEE10json_valueC2Ey @5497
    _ZN8nlohmann10basic_jsonINS_11ordered_mapESt6vectorNSt7__cxx1112basic_stringIcSt11char_traitsIcESaIcEEEbxydSaNS_14adl_serializerES2_IhSaIhEEE12get_ref_implIRKNS1_IS8_SC_St4lessIvESaISt4pairIKS8_SC_EEEEKSC_EET_RT0_ @5498
    _ZN8nlohmann10basic_jsonINS_11ordered_mapESt6vectorNSt7__cxx1112basic_stringIcSt11char_traitsIcESaIcEEEbxydSaNS_14adl_serializerES2_IhSaIhEEE12get_ref_implIRKNS_27byte_container_with_subtypeISB_EEKSC_EET_RT0_ @5499
    _ZN8nlohmann10basic_jsonINS_11ordered_mapESt6vectorNSt7__cxx1112basic_stringIcSt11char_traitsIcESaIcEEEbxydSaNS_14adl_serializerES2_IhSaIhEEE12get_ref_implIRKS2_ISC_SaISC_EEKSC_EET_RT0_ @5500
    _ZN8nlohmann10basic_jsonINS_11ordered_mapESt6vectorNSt7__cxx1112basic_stringIcSt11char_traitsIcESaIcEEEbxydSaNS_14adl_serializerES2_IhSaIhEEE12get_ref_implIRKS8_KSC_EET_RT0_ @5501
    _ZN8nlohmann10basic_jsonINS_11ordered_mapESt6vectorNSt7__cxx1112basic_stringIcSt11char_traitsIcESaIcEEEbxydSaNS_14adl_serializerES2_IhSaIhEEE6createINS1_IS8_SC_St4lessIvESaISt4pairIKS8_SC_EEEEJEEEPT_DpOT0_ @5502
    _ZN8nlohmann10basic_jsonINS_11ordered_mapESt6vectorNSt7__cxx1112basic_stringIcSt11char_traitsIcESaIcEEEbxydSaNS_14adl_serializerES2_IhSaIhEEE6createINS1_IS8_SC_St4lessIvESaISt4pairIKS8_SC_EEEEJRKSK_EEEPT_DpOT0_ @5503
    _ZN8nlohmann10basic_jsonINS_11ordered_mapESt6vectorNSt7__cxx1112basic_stringIcSt11char_traitsIcESaIcEEEbxydSaNS_14adl_serializerES2_IhSaIhEEE6createINS1_IS8_SC_St4lessIvESaISt4pairIKS8_SC_EEEEJSt23_Rb_tree_const_iteratorISG_ISH_NS0_ISt3mapS2_S8_bxydSaS9_SB_EEEESP_EEEPT_DpOT0_ @5504
    _ZN8nlohmann10basic_jsonINS_11ordered_mapESt6vectorNSt7__cxx1112basic_stringIcSt11char_traitsIcESaIcEEEbxydSaNS_14adl_serializerES2_IhSaIhEEE6createINS_27byte_container_with_subtypeISB_EEJEEEPT_DpOT0_ @5505
    _ZN8nlohmann10basic_jsonINS_11ordered_mapESt6vectorNSt7__cxx1112basic_stringIcSt11char_traitsIcESaIcEEEbxydSaNS_14adl_serializerES2_IhSaIhEEE6createINS_27byte_container_with_subtypeISB_EEJRKSF_EEEPT_DpOT0_ @5506
    _ZN8nlohmann10basic_jsonINS_11ordered_mapESt6vectorNSt7__cxx1112basic_stringIcSt11char_traitsIcESaIcEEEbxydSaNS_14adl_serializerES2_IhSaIhEEE6createIS2_ISC_SaISC_EEJEEEPT_DpOT0_ @5507
    _ZN8nlohmann10basic_jsonINS_11ordered_mapESt6vectorNSt7__cxx1112basic_stringIcSt11char_traitsIcESaIcEEEbxydSaNS_14adl_serializerES2_IhSaIhEEE6createIS2_ISC_SaISC_EEJN9__gnu_cxx17__normal_iteratorIPKNS0_ISt3mapS2_S8_bxydSaS9_SB_EES2_ISJ_SaISJ_EEEESO_EEEPT_DpOT0_ @5508
    _ZN8nlohmann10basic_jsonINS_11ordered_mapESt6vectorNSt7__cxx1112basic_stringIcSt11char_traitsIcESaIcEEEbxydSaNS_14adl_serializerES2_IhSaIhEEE6createIS2_ISC_SaISC_EEJRKSF_EEEPT_DpOT0_ @5509
    _ZN8nlohmann10basic_jsonINS_11ordered_mapESt6vectorNSt7__cxx1112basic_stringIcSt11char_traitsIcESaIcEEEbxydSaNS_14adl_serializerES2_IhSaIhEEE6createIS8_JRA1_KcEEEPT_DpOT0_ @5510
    _ZN8nlohmann10basic_jsonINS_11ordered_mapESt6vectorNSt7__cxx1112basic_stringIcSt11char_traitsIcESaIcEEEbxydSaNS_14adl_serializerES2_IhSaIhEEE6createIS8_JRA6_KcEEEPT_DpOT0_ @5511
    _ZN8nlohmann10basic_jsonINS_11ordered_mapESt6vectorNSt7__cxx1112basic_stringIcSt11char_traitsIcESaIcEEEbxydSaNS_14adl_serializerES2_IhSaIhEEE6createIS8_JRKPKcEEEPT_DpOT0_ @5512
    _ZN8nlohmann10basic_jsonINS_11ordered_mapESt6vectorNSt7__cxx1112basic_stringIcSt11char_traitsIcESaIcEEEbxydSaNS_14adl_serializerES2_IhSaIhEEE6createIS8_JRKS8_EEEPT_DpOT0_ @5513
    _ZN8nlohmann10basic_jsonINS_11ordered_mapESt6vectorNSt7__cxx1112basic_stringIcSt11char_traitsIcESaIcEEEbxydSaNS_14adl_serializerES2_IhSaIhEEE6createIS8_JS8_EEEPT_DpOT0_ @5514
    _ZN8nlohmann10basic_jsonINS_11ordered_mapESt6vectorNSt7__cxx1112basic_stringIcSt11char_traitsIcESaIcEEEbxydSaNS_14adl_serializerES2_IhSaIhEEE9push_backEOSC_ @5515
    _ZN8nlohmann10basic_jsonINS_11ordered_mapESt6vectorNSt7__cxx1112basic_stringIcSt11char_traitsIcESaIcEEEbxydSaNS_14adl_serializerES2_IhSaIhEEEC2EDn @5516
    _ZN8nlohmann10basic_jsonINS_11ordered_mapESt6vectorNSt7__cxx1112basic_stringIcSt11char_traitsIcESaIcEEEbxydSaNS_14adl_serializerES2_IhSaIhEEEC2ENS_6detail7value_tE @5517
    _ZN8nlohmann10basic_jsonINS_11ordered_mapESt6vectorNSt7__cxx1112basic_stringIcSt11char_traitsIcESaIcEEEbxydSaNS_14adl_serializerES2_IhSaIhEEEC2EOSC_ @5518
    _ZN8nlohmann10basic_jsonINS_11ordered_mapESt6vectorNSt7__cxx1112basic_stringIcSt11char_traitsIcESaIcEEEbxydSaNS_14adl_serializerES2_IhSaIhEEEC2ERKSC_ @5519
    _ZN8nlohmann10basic_jsonINS_11ordered_mapESt6vectorNSt7__cxx1112basic_stringIcSt11char_traitsIcESaIcEEEbxydSaNS_14adl_serializerES2_IhSaIhEEEC2INS0_ISt3mapS2_S8_bxydSaS9_SB_EELi0EEERKT_ @5520
    _ZN8nlohmann10basic_jsonINS_11ordered_mapESt6vectorNSt7__cxx1112basic_stringIcSt11char_traitsIcESaIcEEEbxydSaNS_14adl_serializerES2_IhSaIhEEEC2IPKcSF_Li0EEEOT_ @5521
    _ZN8nlohmann10basic_jsonINS_11ordered_mapESt6vectorNSt7__cxx1112basic_stringIcSt11char_traitsIcESaIcEEEbxydSaNS_14adl_serializerES2_IhSaIhEEEC2IRA6_KcA6_cLi0EEEOT_ @5522
    _ZN8nlohmann10basic_jsonINS_11ordered_mapESt6vectorNSt7__cxx1112basic_stringIcSt11char_traitsIcESaIcEEEbxydSaNS_14adl_serializerES2_IhSaIhEEEC2IRKS8_S8_Li0EEEOT_ @5523
    _ZN8nlohmann10basic_jsonINS_11ordered_mapESt6vectorNSt7__cxx1112basic_stringIcSt11char_traitsIcESaIcEEEbxydSaNS_14adl_serializerES2_IhSaIhEEEC2IRKddLi0EEEOT_ @5524
    _ZN8nlohmann10basic_jsonINS_11ordered_mapESt6vectorNSt7__cxx1112basic_stringIcSt11char_traitsIcESaIcEEEbxydSaNS_14adl_serializerES2_IhSaIhEEEC2IRKiiLi0EEEOT_ @5525
    _ZN8nlohmann10basic_jsonINS_11ordered_mapESt6vectorNSt7__cxx1112basic_stringIcSt11char_traitsIcESaIcEEEbxydSaNS_14adl_serializerES2_IhSaIhEEEC2IRKttLi0EEEOT_ @5526
    _ZN8nlohmann10basic_jsonINS_11ordered_mapESt6vectorNSt7__cxx1112basic_stringIcSt11char_traitsIcESaIcEEEbxydSaNS_14adl_serializerES2_IhSaIhEEEC2IRS8_S8_Li0EEEOT_ @5527
    _ZN8nlohmann10basic_jsonINS_11ordered_mapESt6vectorNSt7__cxx1112basic_stringIcSt11char_traitsIcESaIcEEEbxydSaNS_14adl_serializerES2_IhSaIhEEEC2IRiiLi0EEEOT_ @5528
    _ZN8nlohmann10basic_jsonINS_11ordered_mapESt6vectorNSt7__cxx1112basic_stringIcSt11char_traitsIcESaIcEEEbxydSaNS_14adl_serializerES2_IhSaIhEEEC2IS8_S8_Li0EEEOT_ @5529
    _ZN8nlohmann10basic_jsonINS_11ordered_mapESt6vectorNSt7__cxx1112basic_stringIcSt11char_traitsIcESaIcEEEbxydSaNS_14adl_serializerES2_IhSaIhEEEC2IddLi0EEEOT_ @5530
    _ZN8nlohmann10basic_jsonINS_11ordered_mapESt6vectorNSt7__cxx1112basic_stringIcSt11char_traitsIcESaIcEEEbxydSaNS_14adl_serializerES2_IhSaIhEEEC2IiiLi0EEEOT_ @5531
    _ZN8nlohmann10basic_jsonINS_11ordered_mapESt6vectorNSt7__cxx1112basic_stringIcSt11char_traitsIcESaIcEEEbxydSaNS_14adl_serializerES2_IhSaIhEEED2Ev @5532
    _ZN8nlohmann10basic_jsonINS_11ordered_mapESt6vectorNSt7__cxx1112basic_stringIcSt11char_traitsIcESaIcEEEbxydSaNS_14adl_serializerES2_IhSaIhEEEaSESC_ @5533
    _ZN8nlohmann10basic_jsonINS_11ordered_mapESt6vectorNSt7__cxx1112basic_stringIcSt11char_traitsIcESaIcEEEbxydSaNS_14adl_serializerES2_IhSaIhEEEixERKS8_ @5534
    _ZN8nlohmann10basic_jsonINS_11ordered_mapESt6vectorNSt7__cxx1112basic_stringIcSt11char_traitsIcESaIcEEEbxydSaNS_14adl_serializerES2_IhSaIhEEEixEy @5535
    _ZN8nlohmann10basic_jsonINS_11ordered_mapESt6vectorNSt7__cxx1112basic_stringIcSt11char_traitsIcESaIcEEEbxydSaNS_14adl_serializerES2_IhSaIhEEEixIKcEERSC_PT_ @5536
    _ZN8nlohmann10basic_jsonISt3mapSt6vectorNSt7__cxx1112basic_stringIcSt11char_traitsIcESaIcEEEbxydSaNS_14adl_serializerES2_IhSaIhEEE10json_value7destroyENS_6detail7value_tE @5537
    _ZN8nlohmann10basic_jsonISt3mapSt6vectorNSt7__cxx1112basic_stringIcSt11char_traitsIcESaIcEEEbxydSaNS_14adl_serializerES2_IhSaIhEEE10json_valueC2ENS_6detail7value_tE @5538
    _ZN8nlohmann10basic_jsonISt3mapSt6vectorNSt7__cxx1112basic_stringIcSt11char_traitsIcESaIcEEEbxydSaNS_14adl_serializerES2_IhSaIhEEE10json_valueC2EOS8_ @5539
    _ZN8nlohmann10basic_jsonISt3mapSt6vectorNSt7__cxx1112basic_stringIcSt11char_traitsIcESaIcEEEbxydSaNS_14adl_serializerES2_IhSaIhEEE10json_valueC2ERKNS_27byte_container_with_subtypeISB_EE @5540
    _ZN8nlohmann10basic_jsonISt3mapSt6vectorNSt7__cxx1112basic_stringIcSt11char_traitsIcESaIcEEEbxydSaNS_14adl_serializerES2_IhSaIhEEE10json_valueC2ERKS1_IS8_SC_St4lessIvESaISt4pairIKS8_SC_EEE @5541
    _ZN8nlohmann10basic_jsonISt3mapSt6vectorNSt7__cxx1112basic_stringIcSt11char_traitsIcESaIcEEEbxydSaNS_14adl_serializerES2_IhSaIhEEE10json_valueC2ERKS2_ISC_SaISC_EE @5542
    _ZN8nlohmann10basic_jsonISt3mapSt6vectorNSt7__cxx1112basic_stringIcSt11char_traitsIcESaIcEEEbxydSaNS_14adl_serializerES2_IhSaIhEEE10json_valueC2ERKS8_ @5543
    _ZN8nlohmann10basic_jsonISt3mapSt6vectorNSt7__cxx1112basic_stringIcSt11char_traitsIcESaIcEEEbxydSaNS_14adl_serializerES2_IhSaIhEEE10json_valueC2Eb @5544
    _ZN8nlohmann10basic_jsonISt3mapSt6vectorNSt7__cxx1112basic_stringIcSt11char_traitsIcESaIcEEEbxydSaNS_14adl_serializerES2_IhSaIhEEE10json_valueC2Ed @5545
    _ZN8nlohmann10basic_jsonISt3mapSt6vectorNSt7__cxx1112basic_stringIcSt11char_traitsIcESaIcEEEbxydSaNS_14adl_serializerES2_IhSaIhEEE10json_valueC2Ex @5546
    _ZN8nlohmann10basic_jsonISt3mapSt6vectorNSt7__cxx1112basic_stringIcSt11char_traitsIcESaIcEEEbxydSaNS_14adl_serializerES2_IhSaIhEEE10json_valueC2Ey @5547
    _ZN8nlohmann10basic_jsonISt3mapSt6vectorNSt7__cxx1112basic_stringIcSt11char_traitsIcESaIcEEEbxydSaNS_14adl_serializerES2_IhSaIhEEE12get_ref_implIRKNS_27byte_container_with_subtypeISB_EEKSC_EET_RT0_ @5548
    _ZN8nlohmann10basic_jsonISt3mapSt6vectorNSt7__cxx1112basic_stringIcSt11char_traitsIcESaIcEEEbxydSaNS_14adl_serializerES2_IhSaIhEEE12get_ref_implIRKS1_IS8_SC_St4lessIvESaISt4pairIKS8_SC_EEEKSC_EET_RT0_ @5549
    _ZN8nlohmann10basic_jsonISt3mapSt6vectorNSt7__cxx1112basic_stringIcSt11char_traitsIcESaIcEEEbxydSaNS_14adl_serializerES2_IhSaIhEEE12get_ref_implIRKS2_ISC_SaISC_EEKSC_EET_RT0_ @5550
    _ZN8nlohmann10basic_jsonISt3mapSt6vectorNSt7__cxx1112basic_stringIcSt11char_traitsIcESaIcEEEbxydSaNS_14adl_serializerES2_IhSaIhEEE12get_ref_implIRKS8_KSC_EET_RT0_ @5551
    _ZN8nlohmann10basic_jsonISt3mapSt6vectorNSt7__cxx1112basic_stringIcSt11char_traitsIcESaIcEEEbxydSaNS_14adl_serializerES2_IhSaIhEEE2atEy @5552
    _ZN8nlohmann10basic_jsonISt3mapSt6vectorNSt7__cxx1112basic_stringIcSt11char_traitsIcESaIcEEEbxydSaNS_14adl_serializerES2_IhSaIhEEE3endEv @5553
    _ZN8nlohmann10basic_jsonISt3mapSt6vectorNSt7__cxx1112basic_stringIcSt11char_traitsIcESaIcEEEbxydSaNS_14adl_serializerES2_IhSaIhEEE5beginEv @5554
    _ZN8nlohmann10basic_jsonISt3mapSt6vectorNSt7__cxx1112basic_stringIcSt11char_traitsIcESaIcEEEbxydSaNS_14adl_serializerES2_IhSaIhEEE5eraseINS_6detail9iter_implISC_EELi0EEET_SH_ @5555
    _ZN8nlohmann10basic_jsonISt3mapSt6vectorNSt7__cxx1112basic_stringIcSt11char_traitsIcESaIcEEEbxydSaNS_14adl_serializerES2_IhSaIhEEE5parseIPKcEESC_OT_St8functionIFbiNS_6detail13parse_event_tERSC_EEbb @5556
    _ZN8nlohmann10basic_jsonISt3mapSt6vectorNSt7__cxx1112basic_stringIcSt11char_traitsIcESaIcEEEbxydSaNS_14adl_serializerES2_IhSaIhEEE5parseIRS8_EESC_OT_St8functionIFbiNS_6detail13parse_event_tERSC_EEbb @5557
    _ZN8nlohmann10basic_jsonISt3mapSt6vectorNSt7__cxx1112basic_stringIcSt11char_traitsIcESaIcEEEbxydSaNS_14adl_serializerES2_IhSaIhEEE6createINS_27byte_container_with_subtypeISB_EEJEEEPT_DpOT0_ @5558
    _ZN8nlohmann10basic_jsonISt3mapSt6vectorNSt7__cxx1112basic_stringIcSt11char_traitsIcESaIcEEEbxydSaNS_14adl_serializerES2_IhSaIhEEE6createINS_27byte_container_with_subtypeISB_EEJRKSF_EEEPT_DpOT0_ @5559
    _ZN8nlohmann10basic_jsonISt3mapSt6vectorNSt7__cxx1112basic_stringIcSt11char_traitsIcESaIcEEEbxydSaNS_14adl_serializerES2_IhSaIhEEE6createIS1_IS8_SC_St4lessIvESaISt4pairIKS8_SC_EEEJEEEPT_DpOT0_ @5560
    _ZN8nlohmann10basic_jsonISt3mapSt6vectorNSt7__cxx1112basic_stringIcSt11char_traitsIcESaIcEEEbxydSaNS_14adl_serializerES2_IhSaIhEEE6createIS1_IS8_SC_St4lessIvESaISt4pairIKS8_SC_EEEJN9__gnu_cxx17__normal_iteratorIPKSG_ISH_NS0_INS_11ordered_mapES2_S8_bxydSaS9_SB_EEES2_ISP_SaISP_EEEESU_EEEPT_DpOT0_ @5561
    _ZN8nlohmann10basic_jsonISt3mapSt6vectorNSt7__cxx1112basic_stringIcSt11char_traitsIcESaIcEEEbxydSaNS_14adl_serializerES2_IhSaIhEEE6createIS1_IS8_SC_St4lessIvESaISt4pairIKS8_SC_EEEJRKSK_EEEPT_DpOT0_ @5562
    _ZN8nlohmann10basic_jsonISt3mapSt6vectorNSt7__cxx1112basic_stringIcSt11char_traitsIcESaIcEEEbxydSaNS_14adl_serializerES2_IhSaIhEEE6createIS2_ISC_SaISC_EEJEEEPT_DpOT0_ @5563
    _ZN8nlohmann10basic_jsonISt3mapSt6vectorNSt7__cxx1112basic_stringIcSt11char_traitsIcESaIcEEEbxydSaNS_14adl_serializerES2_IhSaIhEEE6createIS2_ISC_SaISC_EEJN9__gnu_cxx17__normal_iteratorIPKNS0_INS_11ordered_mapES2_S8_bxydSaS9_SB_EES2_ISJ_SaISJ_EEEESO_EEEPT_DpOT0_ @5564
    _ZN8nlohmann10basic_jsonISt3mapSt6vectorNSt7__cxx1112basic_stringIcSt11char_traitsIcESaIcEEEbxydSaNS_14adl_serializerES2_IhSaIhEEE6createIS2_ISC_SaISC_EEJRKSF_EEEPT_DpOT0_ @5565
    _ZN8nlohmann10basic_jsonISt3mapSt6vectorNSt7__cxx1112basic_stringIcSt11char_traitsIcESaIcEEEbxydSaNS_14adl_serializerES2_IhSaIhEEE6createIS8_JRA1_KcEEEPT_DpOT0_ @5566
    _ZN8nlohmann10basic_jsonISt3mapSt6vectorNSt7__cxx1112basic_stringIcSt11char_traitsIcESaIcEEEbxydSaNS_14adl_serializerES2_IhSaIhEEE6createIS8_JRKPKcEEEPT_DpOT0_ @5567
    _ZN8nlohmann10basic_jsonISt3mapSt6vectorNSt7__cxx1112basic_stringIcSt11char_traitsIcESaIcEEEbxydSaNS_14adl_serializerES2_IhSaIhEEE6createIS8_JRKS8_EEEPT_DpOT0_ @5568
    _ZN8nlohmann10basic_jsonISt3mapSt6vectorNSt7__cxx1112basic_stringIcSt11char_traitsIcESaIcEEEbxydSaNS_14adl_serializerES2_IhSaIhEEE6createIS8_JS8_EEEPT_DpOT0_ @5569
    _ZN8nlohmann10basic_jsonISt3mapSt6vectorNSt7__cxx1112basic_stringIcSt11char_traitsIcESaIcEEEbxydSaNS_14adl_serializerES2_IhSaIhEEE6parserINS_6detail20input_stream_adapterEEENSE_6parserISC_T_EESH_St8functionIFbiNSE_13parse_event_tERSC_EEbb @5570
    _ZN8nlohmann10basic_jsonISt3mapSt6vectorNSt7__cxx1112basic_stringIcSt11char_traitsIcESaIcEEEbxydSaNS_14adl_serializerES2_IhSaIhEEE6parserINS_6detail22iterator_input_adapterIN9__gnu_cxx17__normal_iteratorIPKcS8_EEEEEENSE_6parserISC_T_EESN_St8functionIFbiNSE_13parse_event_tERSC_EEbb @5571
    _ZN8nlohmann10basic_jsonISt3mapSt6vectorNSt7__cxx1112basic_stringIcSt11char_traitsIcESaIcEEEbxydSaNS_14adl_serializerES2_IhSaIhEEE6parserINS_6detail22iterator_input_adapterIPKcEEEENSE_6parserISC_T_EESK_St8functionIFbiNSE_13parse_event_tERSC_EEbb @5572
    _ZN8nlohmann10basic_jsonISt3mapSt6vectorNSt7__cxx1112basic_stringIcSt11char_traitsIcESaIcEEEbxydSaNS_14adl_serializerES2_IhSaIhEEEC2EDn @5573
    _ZN8nlohmann10basic_jsonISt3mapSt6vectorNSt7__cxx1112basic_stringIcSt11char_traitsIcESaIcEEEbxydSaNS_14adl_serializerES2_IhSaIhEEEC2ENS_6detail7value_tE @5574
    _ZN8nlohmann10basic_jsonISt3mapSt6vectorNSt7__cxx1112basic_stringIcSt11char_traitsIcESaIcEEEbxydSaNS_14adl_serializerES2_IhSaIhEEEC2EOSC_ @5575
    _ZN8nlohmann10basic_jsonISt3mapSt6vectorNSt7__cxx1112basic_stringIcSt11char_traitsIcESaIcEEEbxydSaNS_14adl_serializerES2_IhSaIhEEEC2ERKSC_ @5576
    _ZN8nlohmann10basic_jsonISt3mapSt6vectorNSt7__cxx1112basic_stringIcSt11char_traitsIcESaIcEEEbxydSaNS_14adl_serializerES2_IhSaIhEEEC2INS0_INS_11ordered_mapES2_S8_bxydSaS9_SB_EELi0EEERKT_ @5577
    _ZN8nlohmann10basic_jsonISt3mapSt6vectorNSt7__cxx1112basic_stringIcSt11char_traitsIcESaIcEEEbxydSaNS_14adl_serializerES2_IhSaIhEEEC2IPKcSF_Li0EEEOT_ @5578
    _ZN8nlohmann10basic_jsonISt3mapSt6vectorNSt7__cxx1112basic_stringIcSt11char_traitsIcESaIcEEEbxydSaNS_14adl_serializerES2_IhSaIhEEEC2IRKPKcSF_Li0EEEOT_ @5579
    _ZN8nlohmann10basic_jsonISt3mapSt6vectorNSt7__cxx1112basic_stringIcSt11char_traitsIcESaIcEEEbxydSaNS_14adl_serializerES2_IhSaIhEEEC2IRS8_S8_Li0EEEOT_ @5580
    _ZN8nlohmann10basic_jsonISt3mapSt6vectorNSt7__cxx1112basic_stringIcSt11char_traitsIcESaIcEEEbxydSaNS_14adl_serializerES2_IhSaIhEEEC2IRbbLi0EEEOT_ @5581
    _ZN8nlohmann10basic_jsonISt3mapSt6vectorNSt7__cxx1112basic_stringIcSt11char_traitsIcESaIcEEEbxydSaNS_14adl_serializerES2_IhSaIhEEEC2IRddLi0EEEOT_ @5582
    _ZN8nlohmann10basic_jsonISt3mapSt6vectorNSt7__cxx1112basic_stringIcSt11char_traitsIcESaIcEEEbxydSaNS_14adl_serializerES2_IhSaIhEEEC2IRxxLi0EEEOT_ @5583
    _ZN8nlohmann10basic_jsonISt3mapSt6vectorNSt7__cxx1112basic_stringIcSt11char_traitsIcESaIcEEEbxydSaNS_14adl_serializerES2_IhSaIhEEEC2IRyyLi0EEEOT_ @5584
    _ZN8nlohmann10basic_jsonISt3mapSt6vectorNSt7__cxx1112basic_stringIcSt11char_traitsIcESaIcEEEbxydSaNS_14adl_serializerES2_IhSaIhEEEC2IS8_S8_Li0EEEOT_ @5585
    _ZN8nlohmann10basic_jsonISt3mapSt6vectorNSt7__cxx1112basic_stringIcSt11char_traitsIcESaIcEEEbxydSaNS_14adl_serializerES2_IhSaIhEEED2Ev @5586
    _ZN8nlohmann10basic_jsonISt3mapSt6vectorNSt7__cxx1112basic_stringIcSt11char_traitsIcESaIcEEEbxydSaNS_14adl_serializerES2_IhSaIhEEEaSESC_ @5587
    _ZN8nlohmann10basic_jsonISt3mapSt6vectorNSt7__cxx1112basic_stringIcSt11char_traitsIcESaIcEEEbxydSaNS_14adl_serializerES2_IhSaIhEEEixEy @5588
    _ZN8nlohmann10basic_jsonISt3mapSt6vectorNSt7__cxx1112basic_stringIcSt11char_traitsIcESaIcEEEbxydSaNS_14adl_serializerES2_IhSaIhEEEixIKcEERSC_PT_ @5589
    _ZN8nlohmann11ordered_mapINSt7__cxx1112basic_stringIcSt11char_traitsIcESaIcEEENS_10basic_jsonIS0_St6vectorS6_bxydSaNS_14adl_serializerES8_IhSaIhEEEESt4lessIvESaISt4pairIKS6_SC_EEE4findERSG_ @5590
    _ZN8nlohmann11ordered_mapINSt7__cxx1112basic_stringIcSt11char_traitsIcESaIcEEENS_10basic_jsonIS0_St6vectorS6_bxydSaNS_14adl_serializerES8_IhSaIhEEEESt4lessIvESaISt4pairIKS6_SC_EEE7emplaceERSG_OSC_ @5591
    _ZN8nlohmann11ordered_mapINSt7__cxx1112basic_stringIcSt11char_traitsIcESaIcEEENS_10basic_jsonIS0_St6vectorS6_bxydSaNS_14adl_serializerES8_IhSaIhEEEESt4lessIvESaISt4pairIKS6_SC_EEEC2ERKSI_ @5592
    _ZN8nlohmann11ordered_mapINSt7__cxx1112basic_stringIcSt11char_traitsIcESaIcEEENS_10basic_jsonIS0_St6vectorS6_bxydSaNS_14adl_serializerES8_IhSaIhEEEESt4lessIvESaISt4pairIKS6_SC_EEEC2ERKSJ_ @5593
    _ZN8nlohmann11ordered_mapINSt7__cxx1112basic_stringIcSt11char_traitsIcESaIcEEENS_10basic_jsonIS0_St6vectorS6_bxydSaNS_14adl_serializerES8_IhSaIhEEEESt4lessIvESaISt4pairIKS6_SC_EEEC2ISt23_Rb_tree_const_iteratorISF_ISG_NS7_ISt3mapS8_S6_bxydSaS9_SB_EEEEEET_SQ_RKSI_ @5594
    _ZN8nlohmann11ordered_mapINSt7__cxx1112basic_stringIcSt11char_traitsIcESaIcEEENS_10basic_jsonIS0_St6vectorS6_bxydSaNS_14adl_serializerES8_IhSaIhEEEESt4lessIvESaISt4pairIKS6_SC_EEED2Ev @5595
    _ZN8nlohmann11ordered_mapINSt7__cxx1112basic_stringIcSt11char_traitsIcESaIcEEENS_10basic_jsonIS0_St6vectorS6_bxydSaNS_14adl_serializerES8_IhSaIhEEEESt4lessIvESaISt4pairIKS6_SC_EEEixERSG_ @5596
    _ZN8nlohmann14adl_serializerIA6_cvE7to_jsonINS_10basic_jsonINS_11ordered_mapESt6vectorNSt7__cxx1112basic_stringIcSt11char_traitsIcESaIcEEEbxydSaS0_S6_IhSaIhEEEERA6_KcEEDTcmclL_ZNS_12_GLOBAL__N_17to_jsonEEfp_clsr3stdE7forwardIT0_Efp0_EEcvv_EERT_OSK_ @5597
    _ZN8nlohmann14adl_serializerINS_11ordered_mapINSt7__cxx1112basic_stringIcSt11char_traitsIcESaIcEEENS_10basic_jsonIS1_St6vectorS7_bxydSaS0_S9_IhSaIhEEEESt4lessIvESaISt4pairIKS7_SC_EEEEvE7to_jsonINS8_ISt3mapS9_S7_bxydSaS0_SB_EERKSJ_EEDTcmclL_ZNS_12_GLOBAL__N_17to_jsonEEfp_clsr3stdE7forwardIT0_Efp0_EEcvv_EERT_OSR_ @5598
    _ZN8nlohmann14adl_serializerINS_27byte_container_with_subtypeISt6vectorIhSaIhEEEEvE7to_jsonINS_10basic_jsonINS_11ordered_mapES2_NSt7__cxx1112basic_stringIcSt11char_traitsIcESaIcEEEbxydSaS0_S4_EERKS5_EEDTcmclL_ZNS_12_GLOBAL__N_17to_jsonEEfp_clsr3stdE7forwardIT0_Efp0_EEcvv_EERT_OSK_ @5599
    _ZN8nlohmann14adl_serializerINS_27byte_container_with_subtypeISt6vectorIhSaIhEEEEvE7to_jsonINS_10basic_jsonISt3mapS2_NSt7__cxx1112basic_stringIcSt11char_traitsIcESaIcEEEbxydSaS0_S4_EERKS5_EEDTcmclL_ZNS_12_GLOBAL__N_17to_jsonEEfp_clsr3stdE7forwardIT0_Efp0_EEcvv_EERT_OSK_ @5600
    _ZN8nlohmann14adl_serializerINSt7__cxx1112basic_stringIcSt11char_traitsIcESaIcEEEvE7to_jsonINS_10basic_jsonINS_11ordered_mapESt6vectorS6_bxydSaS0_SB_IhSaIhEEEERKS6_EEDTcmclL_ZNS_12_GLOBAL__N_17to_jsonEEfp_clsr3stdE7forwardIT0_Efp0_EEcvv_EERT_OSI_ @5601
    _ZN8nlohmann14adl_serializerINSt7__cxx1112basic_stringIcSt11char_traitsIcESaIcEEEvE7to_jsonINS_10basic_jsonINS_11ordered_mapESt6vectorS6_bxydSaS0_SB_IhSaIhEEEERS6_EEDTcmclL_ZNS_12_GLOBAL__N_17to_jsonEEfp_clsr3stdE7forwardIT0_Efp0_EEcvv_EERT_OSH_ @5602
    _ZN8nlohmann14adl_serializerINSt7__cxx1112basic_stringIcSt11char_traitsIcESaIcEEEvE7to_jsonINS_10basic_jsonINS_11ordered_mapESt6vectorS6_bxydSaS0_SB_IhSaIhEEEES6_EEDTcmclL_ZNS_12_GLOBAL__N_17to_jsonEEfp_clsr3stdE7forwardIT0_Efp0_EEcvv_EERT_OSG_ @5603
    _ZN8nlohmann14adl_serializerINSt7__cxx1112basic_stringIcSt11char_traitsIcESaIcEEEvE7to_jsonINS_10basic_jsonISt3mapSt6vectorS6_bxydSaS0_SB_IhSaIhEEEERKS6_EEDTcmclL_ZNS_12_GLOBAL__N_17to_jsonEEfp_clsr3stdE7forwardIT0_Efp0_EEcvv_EERT_OSI_ @5604
    _ZN8nlohmann14adl_serializerINSt7__cxx1112basic_stringIcSt11char_traitsIcESaIcEEEvE7to_jsonINS_10basic_jsonISt3mapSt6vectorS6_bxydSaS0_SB_IhSaIhEEEERS6_EEDTcmclL_ZNS_12_GLOBAL__N_17to_jsonEEfp_clsr3stdE7forwardIT0_Efp0_EEcvv_EERT_OSH_ @5605
    _ZN8nlohmann14adl_serializerINSt7__cxx1112basic_stringIcSt11char_traitsIcESaIcEEEvE7to_jsonINS_10basic_jsonISt3mapSt6vectorS6_bxydSaS0_SB_IhSaIhEEEES6_EEDTcmclL_ZNS_12_GLOBAL__N_17to_jsonEEfp_clsr3stdE7forwardIT0_Efp0_EEcvv_EERT_OSG_ @5606
    _ZN8nlohmann14adl_serializerINSt7__cxx1112basic_stringIcSt11char_traitsIcESaIcEEEvE9from_jsonIRKNS_10basic_jsonINS_11ordered_mapESt6vectorS6_bxydSaS0_SB_IhSaIhEEEES6_EEDTcmclL_ZNS_12_GLOBAL__N_19from_jsonEEclsr3stdE7forwardIT_Efp_Efp0_Ecvv_EEOSI_RT0_ @5607
    _ZN8nlohmann14adl_serializerINSt7__cxx1112basic_stringIcSt11char_traitsIcESaIcEEEvE9from_jsonIRKNS_10basic_jsonISt3mapSt6vectorS6_bxydSaS0_SB_IhSaIhEEEES6_EEDTcmclL_ZNS_12_GLOBAL__N_19from_jsonEEclsr3stdE7forwardIT_Efp_Efp0_Ecvv_EEOSI_RT0_ @5608
    _ZN8nlohmann14adl_serializerIPKcvE7to_jsonINS_10basic_jsonINS_11ordered_mapESt6vectorNSt7__cxx1112basic_stringIcSt11char_traitsIcESaIcEEEbxydSaS0_S7_IhSaIhEEEES2_EEDTcmclL_ZNS_12_GLOBAL__N_17to_jsonEEfp_clsr3stdE7forwardIT0_Efp0_EEcvv_EERT_OSI_ @5609
    _ZN8nlohmann14adl_serializerIPKcvE7to_jsonINS_10basic_jsonISt3mapSt6vectorNSt7__cxx1112basic_stringIcSt11char_traitsIcESaIcEEEbxydSaS0_S7_IhSaIhEEEERKS2_EEDTcmclL_ZNS_12_GLOBAL__N_17to_jsonEEfp_clsr3stdE7forwardIT0_Efp0_EEcvv_EERT_OSK_ @5610
    _ZN8nlohmann14adl_serializerIPKcvE7to_jsonINS_10basic_jsonISt3mapSt6vectorNSt7__cxx1112basic_stringIcSt11char_traitsIcESaIcEEEbxydSaS0_S7_IhSaIhEEEES2_EEDTcmclL_ZNS_12_GLOBAL__N_17to_jsonEEfp_clsr3stdE7forwardIT0_Efp0_EEcvv_EERT_OSI_ @5611
    _ZN8nlohmann14adl_serializerISt3mapINSt7__cxx1112basic_stringIcSt11char_traitsIcESaIcEEENS_10basic_jsonIS1_St6vectorS7_bxydSaS0_S9_IhSaIhEEEESt4lessIvESaISt4pairIKS7_SC_EEEvE7to_jsonINS8_INS_11ordered_mapES9_S7_bxydSaS0_SB_EERKSJ_EEDTcmclL_ZNS_12_GLOBAL__N_17to_jsonEEfp_clsr3stdE7forwardIT0_Efp0_EEcvv_EERT_OSR_ @5612
    _ZN8nlohmann14adl_serializerISt6vectorINS_10basic_jsonINS_11ordered_mapES1_NSt7__cxx1112basic_stringIcSt11char_traitsIcESaIcEEEbxydSaS0_S1_IhSaIhEEEESaISC_EEvE7to_jsonINS2_ISt3mapS1_S9_bxydSaS0_SB_EERKSE_EEDTcmclL_ZNS_12_GLOBAL__N_17to_jsonEEfp_clsr3stdE7forwardIT0_Efp0_EEcvv_EERT_OSM_ @5613
    _ZN8nlohmann14adl_serializerISt6vectorINS_10basic_jsonISt3mapS1_NSt7__cxx1112basic_stringIcSt11char_traitsIcESaIcEEEbxydSaS0_S1_IhSaIhEEEESaISC_EEvE7to_jsonINS2_INS_11ordered_mapES1_S9_bxydSaS0_SB_EERKSE_EEDTcmclL_ZNS_12_GLOBAL__N_17to_jsonEEfp_clsr3stdE7forwardIT0_Efp0_EEcvv_EERT_OSM_ @5614
    _ZN8nlohmann14adl_serializerIbvE7to_jsonINS_10basic_jsonINS_11ordered_mapESt6vectorNSt7__cxx1112basic_stringIcSt11char_traitsIcESaIcEEEbxydSaS0_S5_IhSaIhEEEEbEEDTcmclL_ZNS_12_GLOBAL__N_17to_jsonEEfp_clsr3stdE7forwardIT0_Efp0_EEcvv_EERT_OSG_ @5615
    _ZN8nlohmann14adl_serializerIbvE7to_jsonINS_10basic_jsonISt3mapSt6vectorNSt7__cxx1112basic_stringIcSt11char_traitsIcESaIcEEEbxydSaS0_S5_IhSaIhEEEERbEEDTcmclL_ZNS_12_GLOBAL__N_17to_jsonEEfp_clsr3stdE7forwardIT0_Efp0_EEcvv_EERT_OSH_ @5616
    _ZN8nlohmann14adl_serializerIbvE7to_jsonINS_10basic_jsonISt3mapSt6vectorNSt7__cxx1112basic_stringIcSt11char_traitsIcESaIcEEEbxydSaS0_S5_IhSaIhEEEEbEEDTcmclL_ZNS_12_GLOBAL__N_17to_jsonEEfp_clsr3stdE7forwardIT0_Efp0_EEcvv_EERT_OSG_ @5617
    _ZN8nlohmann14adl_serializerIbvE9from_jsonIRKNS_10basic_jsonINS_11ordered_mapESt6vectorNSt7__cxx1112basic_stringIcSt11char_traitsIcESaIcEEEbxydSaS0_S5_IhSaIhEEEEbEEDTcmclL_ZNS_12_GLOBAL__N_19from_jsonEEclsr3stdE7forwardIT_Efp_Efp0_Ecvv_EEOSI_RT0_ @5618
    _ZN8nlohmann14adl_serializerIbvE9from_jsonIRKNS_10basic_jsonISt3mapSt6vectorNSt7__cxx1112basic_stringIcSt11char_traitsIcESaIcEEEbxydSaS0_S5_IhSaIhEEEEbEEDTcmclL_ZNS_12_GLOBAL__N_19from_jsonEEclsr3stdE7forwardIT_Efp_Efp0_Ecvv_EEOSI_RT0_ @5619
    _ZN8nlohmann14adl_serializerIdvE7to_jsonINS_10basic_jsonINS_11ordered_mapESt6vectorNSt7__cxx1112basic_stringIcSt11char_traitsIcESaIcEEEbxydSaS0_S5_IhSaIhEEEERKdEEDTcmclL_ZNS_12_GLOBAL__N_17to_jsonEEfp_clsr3stdE7forwardIT0_Efp0_EEcvv_EERT_OSI_ @5620
    _ZN8nlohmann14adl_serializerIdvE7to_jsonINS_10basic_jsonINS_11ordered_mapESt6vectorNSt7__cxx1112basic_stringIcSt11char_traitsIcESaIcEEEbxydSaS0_S5_IhSaIhEEEEdEEDTcmclL_ZNS_12_GLOBAL__N_17to_jsonEEfp_clsr3stdE7forwardIT0_Efp0_EEcvv_EERT_OSG_ @5621
    _ZN8nlohmann14adl_serializerIdvE7to_jsonINS_10basic_jsonISt3mapSt6vectorNSt7__cxx1112basic_stringIcSt11char_traitsIcESaIcEEEbxydSaS0_S5_IhSaIhEEEERdEEDTcmclL_ZNS_12_GLOBAL__N_17to_jsonEEfp_clsr3stdE7forwardIT0_Efp0_EEcvv_EERT_OSH_ @5622
    _ZN8nlohmann14adl_serializerIdvE7to_jsonINS_10basic_jsonISt3mapSt6vectorNSt7__cxx1112basic_stringIcSt11char_traitsIcESaIcEEEbxydSaS0_S5_IhSaIhEEEEdEEDTcmclL_ZNS_12_GLOBAL__N_17to_jsonEEfp_clsr3stdE7forwardIT0_Efp0_EEcvv_EERT_OSG_ @5623
    _ZN8nlohmann14adl_serializerIdvE9from_jsonIRKNS_10basic_jsonINS_11ordered_mapESt6vectorNSt7__cxx1112basic_stringIcSt11char_traitsIcESaIcEEEbxydSaS0_S5_IhSaIhEEEEdEEDTcmclL_ZNS_12_GLOBAL__N_19from_jsonEEclsr3stdE7forwardIT_Efp_Efp0_Ecvv_EEOSI_RT0_ @5624
    _ZN8nlohmann14adl_serializerIdvE9from_jsonIRKNS_10basic_jsonISt3mapSt6vectorNSt7__cxx1112basic_stringIcSt11char_traitsIcESaIcEEEbxydSaS0_S5_IhSaIhEEEEdEEDTcmclL_ZNS_12_GLOBAL__N_19from_jsonEEclsr3stdE7forwardIT_Efp_Efp0_Ecvv_EEOSI_RT0_ @5625
    _ZN8nlohmann14adl_serializerIivE7to_jsonINS_10basic_jsonINS_11ordered_mapESt6vectorNSt7__cxx1112basic_stringIcSt11char_traitsIcESaIcEEEbxydSaS0_S5_IhSaIhEEEERKiEEDTcmclL_ZNS_12_GLOBAL__N_17to_jsonEEfp_clsr3stdE7forwardIT0_Efp0_EEcvv_EERT_OSI_ @5626
    _ZN8nlohmann14adl_serializerIivE7to_jsonINS_10basic_jsonINS_11ordered_mapESt6vectorNSt7__cxx1112basic_stringIcSt11char_traitsIcESaIcEEEbxydSaS0_S5_IhSaIhEEEERiEEDTcmclL_ZNS_12_GLOBAL__N_17to_jsonEEfp_clsr3stdE7forwardIT0_Efp0_EEcvv_EERT_OSH_ @5627
    _ZN8nlohmann14adl_serializerIivE7to_jsonINS_10basic_jsonINS_11ordered_mapESt6vectorNSt7__cxx1112basic_stringIcSt11char_traitsIcESaIcEEEbxydSaS0_S5_IhSaIhEEEEiEEDTcmclL_ZNS_12_GLOBAL__N_17to_jsonEEfp_clsr3stdE7forwardIT0_Efp0_EEcvv_EERT_OSG_ @5628
    _ZN8nlohmann14adl_serializerIivE9from_jsonIRKNS_10basic_jsonINS_11ordered_mapESt6vectorNSt7__cxx1112basic_stringIcSt11char_traitsIcESaIcEEEbxydSaS0_S5_IhSaIhEEEEiEEDTcmclL_ZNS_12_GLOBAL__N_19from_jsonEEclsr3stdE7forwardIT_Efp_Efp0_Ecvv_EEOSI_RT0_ @5629
    _ZN8nlohmann14adl_serializerIivE9from_jsonIRKNS_10basic_jsonISt3mapSt6vectorNSt7__cxx1112basic_stringIcSt11char_traitsIcESaIcEEEbxydSaS0_S5_IhSaIhEEEEiEEDTcmclL_ZNS_12_GLOBAL__N_19from_jsonEEclsr3stdE7forwardIT_Efp_Efp0_Ecvv_EEOSI_RT0_ @5630
    _ZN8nlohmann14adl_serializerItvE7to_jsonINS_10basic_jsonINS_11ordered_mapESt6vectorNSt7__cxx1112basic_stringIcSt11char_traitsIcESaIcEEEbxydSaS0_S5_IhSaIhEEEERKtEEDTcmclL_ZNS_12_GLOBAL__N_17to_jsonEEfp_clsr3stdE7forwardIT0_Efp0_EEcvv_EERT_OSI_ @5631
    _ZN8nlohmann14adl_serializerIxvE7to_jsonINS_10basic_jsonINS_11ordered_mapESt6vectorNSt7__cxx1112basic_stringIcSt11char_traitsIcESaIcEEEbxydSaS0_S5_IhSaIhEEEExEEDTcmclL_ZNS_12_GLOBAL__N_17to_jsonEEfp_clsr3stdE7forwardIT0_Efp0_EEcvv_EERT_OSG_ @5632
    _ZN8nlohmann14adl_serializerIxvE7to_jsonINS_10basic_jsonISt3mapSt6vectorNSt7__cxx1112basic_stringIcSt11char_traitsIcESaIcEEEbxydSaS0_S5_IhSaIhEEEERxEEDTcmclL_ZNS_12_GLOBAL__N_17to_jsonEEfp_clsr3stdE7forwardIT0_Efp0_EEcvv_EERT_OSH_ @5633
    _ZN8nlohmann14adl_serializerIxvE7to_jsonINS_10basic_jsonISt3mapSt6vectorNSt7__cxx1112basic_stringIcSt11char_traitsIcESaIcEEEbxydSaS0_S5_IhSaIhEEEExEEDTcmclL_ZNS_12_GLOBAL__N_17to_jsonEEfp_clsr3stdE7forwardIT0_Efp0_EEcvv_EERT_OSG_ @5634
    _ZN8nlohmann14adl_serializerIxvE9from_jsonIRKNS_10basic_jsonINS_11ordered_mapESt6vectorNSt7__cxx1112basic_stringIcSt11char_traitsIcESaIcEEEbxydSaS0_S5_IhSaIhEEEExEEDTcmclL_ZNS_12_GLOBAL__N_19from_jsonEEclsr3stdE7forwardIT_Efp_Efp0_Ecvv_EEOSI_RT0_ @5635
    _ZN8nlohmann14adl_serializerIxvE9from_jsonIRKNS_10basic_jsonISt3mapSt6vectorNSt7__cxx1112basic_stringIcSt11char_traitsIcESaIcEEEbxydSaS0_S5_IhSaIhEEEExEEDTcmclL_ZNS_12_GLOBAL__N_19from_jsonEEclsr3stdE7forwardIT_Efp_Efp0_Ecvv_EEOSI_RT0_ @5636
    _ZN8nlohmann14adl_serializerIyvE7to_jsonINS_10basic_jsonINS_11ordered_mapESt6vectorNSt7__cxx1112basic_stringIcSt11char_traitsIcESaIcEEEbxydSaS0_S5_IhSaIhEEEEyEEDTcmclL_ZNS_12_GLOBAL__N_17to_jsonEEfp_clsr3stdE7forwardIT0_Efp0_EEcvv_EERT_OSG_ @5637
    _ZN8nlohmann14adl_serializerIyvE7to_jsonINS_10basic_jsonISt3mapSt6vectorNSt7__cxx1112basic_stringIcSt11char_traitsIcESaIcEEEbxydSaS0_S5_IhSaIhEEEERyEEDTcmclL_ZNS_12_GLOBAL__N_17to_jsonEEfp_clsr3stdE7forwardIT0_Efp0_EEcvv_EERT_OSH_ @5638
    _ZN8nlohmann14adl_serializerIyvE7to_jsonINS_10basic_jsonISt3mapSt6vectorNSt7__cxx1112basic_stringIcSt11char_traitsIcESaIcEEEbxydSaS0_S5_IhSaIhEEEEyEEDTcmclL_ZNS_12_GLOBAL__N_17to_jsonEEfp_clsr3stdE7forwardIT0_Efp0_EEcvv_EERT_OSG_ @5639
    _ZN8nlohmann14adl_serializerIyvE9from_jsonIRKNS_10basic_jsonINS_11ordered_mapESt6vectorNSt7__cxx1112basic_stringIcSt11char_traitsIcESaIcEEEbxydSaS0_S5_IhSaIhEEEEyEEDTcmclL_ZNS_12_GLOBAL__N_19from_jsonEEclsr3stdE7forwardIT_Efp_Efp0_Ecvv_EEOSI_RT0_ @5640
    _ZN8nlohmann14adl_serializerIyvE9from_jsonIRKNS_10basic_jsonISt3mapSt6vectorNSt7__cxx1112basic_stringIcSt11char_traitsIcESaIcEEEbxydSaS0_S5_IhSaIhEEEEyEEDTcmclL_ZNS_12_GLOBAL__N_19from_jsonEEclsr3stdE7forwardIT_Efp_Efp0_Ecvv_EEOSI_RT0_ @5641
    _ZN8nlohmann27byte_container_with_subtypeISt6vectorIhSaIhEEEC2ERKS4_ @5642
    _ZN8nlohmann27byte_container_with_subtypeISt6vectorIhSaIhEEEC2Ev @5643
    _ZN8nlohmann27byte_container_with_subtypeISt6vectorIhSaIhEEED2Ev @5644
    _ZN8nlohmann6detail10lexer_baseINS_10basic_jsonISt3mapSt6vectorNSt7__cxx1112basic_stringIcSt11char_traitsIcESaIcEEEbxydSaNS_14adl_serializerES4_IhSaIhEEEEE15token_type_nameENSF_10token_typeE @5645
    _ZN8nlohmann6detail10serializerINS_10basic_jsonINS_11ordered_mapESt6vectorNSt7__cxx1112basic_stringIcSt11char_traitsIcESaIcEEEbxydSaNS_14adl_serializerES4_IhSaIhEEEEE10dump_floatEd @5646
    _ZN8nlohmann6detail10serializerINS_10basic_jsonINS_11ordered_mapESt6vectorNSt7__cxx1112basic_stringIcSt11char_traitsIcESaIcEEEbxydSaNS_14adl_serializerES4_IhSaIhEEEEE10dump_floatEdSt17integral_constantIbLb1EE @5647
    _ZN8nlohmann6detail10serializerINS_10basic_jsonINS_11ordered_mapESt6vectorNSt7__cxx1112basic_stringIcSt11char_traitsIcESaIcEEEbxydSaNS_14adl_serializerES4_IhSaIhEEEEE11remove_signEx @5648
    _ZN8nlohmann6detail10serializerINS_10basic_jsonINS_11ordered_mapESt6vectorNSt7__cxx1112basic_stringIcSt11char_traitsIcESaIcEEEbxydSaNS_14adl_serializerES4_IhSaIhEEEEE12count_digitsEy @5649
    _ZN8nlohmann6detail10serializerINS_10basic_jsonINS_11ordered_mapESt6vectorNSt7__cxx1112basic_stringIcSt11char_traitsIcESaIcEEEbxydSaNS_14adl_serializerES4_IhSaIhEEEEE12dump_escapedERKSA_b @5650
    _ZN8nlohmann6detail10serializerINS_10basic_jsonINS_11ordered_mapESt6vectorNSt7__cxx1112basic_stringIcSt11char_traitsIcESaIcEEEbxydSaNS_14adl_serializerES4_IhSaIhEEEEE12dump_integerIhLi0EEEvT_ @5651
    _ZN8nlohmann6detail10serializerINS_10basic_jsonINS_11ordered_mapESt6vectorNSt7__cxx1112basic_stringIcSt11char_traitsIcESaIcEEEbxydSaNS_14adl_serializerES4_IhSaIhEEEEE12dump_integerIxLi0EEEvT_ @5652
    _ZN8nlohmann6detail10serializerINS_10basic_jsonINS_11ordered_mapESt6vectorNSt7__cxx1112basic_stringIcSt11char_traitsIcESaIcEEEbxydSaNS_14adl_serializerES4_IhSaIhEEEEE12dump_integerIyLi0EEEvT_ @5653
    _ZN8nlohmann6detail10serializerINS_10basic_jsonINS_11ordered_mapESt6vectorNSt7__cxx1112basic_stringIcSt11char_traitsIcESaIcEEEbxydSaNS_14adl_serializerES4_IhSaIhEEEEE4dumpERKSE_bbjj @5654
    _ZN8nlohmann6detail10serializerINS_10basic_jsonINS_11ordered_mapESt6vectorNSt7__cxx1112basic_stringIcSt11char_traitsIcESaIcEEEbxydSaNS_14adl_serializerES4_IhSaIhEEEEE6decodeERhRjh @5655
    _ZN8nlohmann6detail10serializerINS_10basic_jsonINS_11ordered_mapESt6vectorNSt7__cxx1112basic_stringIcSt11char_traitsIcESaIcEEEbxydSaNS_14adl_serializerES4_IhSaIhEEEEEC2ESt10shared_ptrINS0_23output_adapter_protocolIcEEEcNS0_15error_handler_tE @5656
    _ZN8nlohmann6detail10serializerINS_10basic_jsonINS_11ordered_mapESt6vectorNSt7__cxx1112basic_stringIcSt11char_traitsIcESaIcEEEbxydSaNS_14adl_serializerES4_IhSaIhEEEEED2Ev @5657
    _ZN8nlohmann6detail10serializerINS_10basic_jsonISt3mapSt6vectorNSt7__cxx1112basic_stringIcSt11char_traitsIcESaIcEEEbxydSaNS_14adl_serializerES4_IhSaIhEEEEE10dump_floatEd @5658
    _ZN8nlohmann6detail10serializerINS_10basic_jsonISt3mapSt6vectorNSt7__cxx1112basic_stringIcSt11char_traitsIcESaIcEEEbxydSaNS_14adl_serializerES4_IhSaIhEEEEE10dump_floatEdSt17integral_constantIbLb1EE @5659
    _ZN8nlohmann6detail10serializerINS_10basic_jsonISt3mapSt6vectorNSt7__cxx1112basic_stringIcSt11char_traitsIcESaIcEEEbxydSaNS_14adl_serializerES4_IhSaIhEEEEE11remove_signEx @5660
    _ZN8nlohmann6detail10serializerINS_10basic_jsonISt3mapSt6vectorNSt7__cxx1112basic_stringIcSt11char_traitsIcESaIcEEEbxydSaNS_14adl_serializerES4_IhSaIhEEEEE12count_digitsEy @5661
    _ZN8nlohmann6detail10serializerINS_10basic_jsonISt3mapSt6vectorNSt7__cxx1112basic_stringIcSt11char_traitsIcESaIcEEEbxydSaNS_14adl_serializerES4_IhSaIhEEEEE12dump_escapedERKSA_b @5662
    _ZN8nlohmann6detail10serializerINS_10basic_jsonISt3mapSt6vectorNSt7__cxx1112basic_stringIcSt11char_traitsIcESaIcEEEbxydSaNS_14adl_serializerES4_IhSaIhEEEEE12dump_integerIhLi0EEEvT_ @5663
    _ZN8nlohmann6detail10serializerINS_10basic_jsonISt3mapSt6vectorNSt7__cxx1112basic_stringIcSt11char_traitsIcESaIcEEEbxydSaNS_14adl_serializerES4_IhSaIhEEEEE12dump_integerIxLi0EEEvT_ @5664
    _ZN8nlohmann6detail10serializerINS_10basic_jsonISt3mapSt6vectorNSt7__cxx1112basic_stringIcSt11char_traitsIcESaIcEEEbxydSaNS_14adl_serializerES4_IhSaIhEEEEE12dump_integerIyLi0EEEvT_ @5665
    _ZN8nlohmann6detail10serializerINS_10basic_jsonISt3mapSt6vectorNSt7__cxx1112basic_stringIcSt11char_traitsIcESaIcEEEbxydSaNS_14adl_serializerES4_IhSaIhEEEEE4dumpERKSE_bbjj @5666
    _ZN8nlohmann6detail10serializerINS_10basic_jsonISt3mapSt6vectorNSt7__cxx1112basic_stringIcSt11char_traitsIcESaIcEEEbxydSaNS_14adl_serializerES4_IhSaIhEEEEE6decodeERhRjh @5667
    _ZN8nlohmann6detail10serializerINS_10basic_jsonISt3mapSt6vectorNSt7__cxx1112basic_stringIcSt11char_traitsIcESaIcEEEbxydSaNS_14adl_serializerES4_IhSaIhEEEEEC2ESt10shared_ptrINS0_23output_adapter_protocolIcEEEcNS0_15error_handler_tE @5668
    _ZN8nlohmann6detail10serializerINS_10basic_jsonISt3mapSt6vectorNSt7__cxx1112basic_stringIcSt11char_traitsIcESaIcEEEbxydSaNS_14adl_serializerES4_IhSaIhEEEEED2Ev @5669
    _ZN8nlohmann6detail10type_error6createEiRKNSt7__cxx1112basic_stringIcSt11char_traitsIcESaIcEEE @5670
    _ZN8nlohmann6detail10type_errorC2EiPKc @5671
    _ZN8nlohmann6detail10type_errorD0Ev @5672
    _ZN8nlohmann6detail10type_errorD2Ev @5673
    _ZN8nlohmann6detail11other_error6createEiRKNSt7__cxx1112basic_stringIcSt11char_traitsIcESaIcEEE @5674
    _ZN8nlohmann6detail11other_errorC2EiPKc @5675
    _ZN8nlohmann6detail11other_errorD0Ev @5676
    _ZN8nlohmann6detail11other_errorD2Ev @5677
    _ZN8nlohmann6detail11parse_error15position_stringB5cxx11ERKNS0_10position_tE @5678
    _ZN8nlohmann6detail11parse_error6createEiRKNS0_10position_tERKNSt7__cxx1112basic_stringIcSt11char_traitsIcESaIcEEE @5679
    _ZN8nlohmann6detail11parse_errorC2ERKS1_ @5680
    _ZN8nlohmann6detail11parse_errorC2EiyPKc @5681
    _ZN8nlohmann6detail11parse_errorD0Ev @5682
    _ZN8nlohmann6detail11parse_errorD2Ev @5683
    _ZN8nlohmann6detail12out_of_range6createEiRKNSt7__cxx1112basic_stringIcSt11char_traitsIcESaIcEEE @5684
    _ZN8nlohmann6detail12out_of_rangeC2ERKS1_ @5685
    _ZN8nlohmann6detail12out_of_rangeC2EiPKc @5686
    _ZN8nlohmann6detail12out_of_rangeD0Ev @5687
    _ZN8nlohmann6detail12out_of_rangeD2Ev @5688
    _ZN8nlohmann6detail12static_constINS0_10to_json_fnEE5valueE @5689 DATA
    _ZN8nlohmann6detail12static_constINS0_12from_json_fnEE5valueE @5690 DATA
    _ZN8nlohmann6detail13binary_writerINS_10basic_jsonINS_11ordered_mapESt6vectorNSt7__cxx1112basic_stringIcSt11char_traitsIcESaIcEEEbxydSaNS_14adl_serializerES4_IhSaIhEEEEcE12to_char_typeIccLPv0EEEcT_ @5691
    _ZN8nlohmann6detail13binary_writerINS_10basic_jsonISt3mapSt6vectorNSt7__cxx1112basic_stringIcSt11char_traitsIcESaIcEEEbxydSaNS_14adl_serializerES4_IhSaIhEEEEcE12to_char_typeIccLPv0EEEcT_ @5692
    _ZN8nlohmann6detail13input_adapterERSi @5693
    _ZN8nlohmann6detail13input_adapterIN9__gnu_cxx17__normal_iteratorIPKcNSt7__cxx1112basic_stringIcSt11char_traitsIcESaIcEEEEEEENS0_30iterator_input_adapter_factoryIT_vE12adapter_typeESE_SE_ @5694
    _ZN8nlohmann6detail13input_adapterINSt7__cxx1112basic_stringIcSt11char_traitsIcESaIcEEEEEDTcl13input_adaptercl5beginfp_Ecl3endfp_EEERKT_ @5695
    _ZN8nlohmann6detail13input_adapterIPKcEENS0_30iterator_input_adapter_factoryIT_vE12adapter_typeES5_S5_ @5696
    _ZN8nlohmann6detail13input_adapterIPKcLi0EEENS0_22iterator_input_adapterIS3_EET_ @5697
    _ZN8nlohmann6detail14output_adapterIcNSt7__cxx1112basic_stringIcSt11char_traitsIcESaIcEEEEC2ERS7_ @5698
    _ZN8nlohmann6detail14output_adapterIcNSt7__cxx1112basic_stringIcSt11char_traitsIcESaIcEEEEC2ERSo @5699
    _ZN8nlohmann6detail14output_adapterIcNSt7__cxx1112basic_stringIcSt11char_traitsIcESaIcEEEED2Ev @5700
    _ZN8nlohmann6detail14output_adapterIcNSt7__cxx1112basic_stringIcSt11char_traitsIcESaIcEEEEcvSt10shared_ptrINS0_23output_adapter_protocolIcEEEEv @5701
    _ZN8nlohmann6detail16invalid_iterator6createEiRKNSt7__cxx1112basic_stringIcSt11char_traitsIcESaIcEEE @5702
    _ZN8nlohmann6detail16invalid_iteratorC2EiPKc @5703
    _ZN8nlohmann6detail16invalid_iteratorD0Ev @5704
    _ZN8nlohmann6detail16invalid_iteratorD2Ev @5705
    _ZN8nlohmann6detail19json_sax_dom_parserINS_10basic_jsonISt3mapSt6vectorNSt7__cxx1112basic_stringIcSt11char_traitsIcESaIcEEEbxydSaNS_14adl_serializerES4_IhSaIhEEEEE10end_objectEv @5706
    _ZN8nlohmann6detail19json_sax_dom_parserINS_10basic_jsonISt3mapSt6vectorNSt7__cxx1112basic_stringIcSt11char_traitsIcESaIcEEEbxydSaNS_14adl_serializerES4_IhSaIhEEEEE11parse_errorINS0_11parse_errorEEEbyRKSA_RKT_ @5707
    _ZN8nlohmann6detail19json_sax_dom_parserINS_10basic_jsonISt3mapSt6vectorNSt7__cxx1112basic_stringIcSt11char_traitsIcESaIcEEEbxydSaNS_14adl_serializerES4_IhSaIhEEEEE11parse_errorINS0_12out_of_rangeEEEbyRKSA_RKT_ @5708
    _ZN8nlohmann6detail19json_sax_dom_parserINS_10basic_jsonISt3mapSt6vectorNSt7__cxx1112basic_stringIcSt11char_traitsIcESaIcEEEbxydSaNS_14adl_serializerES4_IhSaIhEEEEE11start_arrayEy @5709
    _ZN8nlohmann6detail19json_sax_dom_parserINS_10basic_jsonISt3mapSt6vectorNSt7__cxx1112basic_stringIcSt11char_traitsIcESaIcEEEbxydSaNS_14adl_serializerES4_IhSaIhEEEEE12handle_valueIDnEEPSE_OT_ @5710
    _ZN8nlohmann6detail19json_sax_dom_parserINS_10basic_jsonISt3mapSt6vectorNSt7__cxx1112basic_stringIcSt11char_traitsIcESaIcEEEbxydSaNS_14adl_serializerES4_IhSaIhEEEEE12handle_valueINS0_7value_tEEEPSE_OT_ @5711
    _ZN8nlohmann6detail19json_sax_dom_parserINS_10basic_jsonISt3mapSt6vectorNSt7__cxx1112basic_stringIcSt11char_traitsIcESaIcEEEbxydSaNS_14adl_serializerES4_IhSaIhEEEEE12handle_valueIRSA_EEPSE_OT_ @5712
    _ZN8nlohmann6detail19json_sax_dom_parserINS_10basic_jsonISt3mapSt6vectorNSt7__cxx1112basic_stringIcSt11char_traitsIcESaIcEEEbxydSaNS_14adl_serializerES4_IhSaIhEEEEE12handle_valueIRbEEPSE_OT_ @5713
    _ZN8nlohmann6detail19json_sax_dom_parserINS_10basic_jsonISt3mapSt6vectorNSt7__cxx1112basic_stringIcSt11char_traitsIcESaIcEEEbxydSaNS_14adl_serializerES4_IhSaIhEEEEE12handle_valueIRdEEPSE_OT_ @5714
    _ZN8nlohmann6detail19json_sax_dom_parserINS_10basic_jsonISt3mapSt6vectorNSt7__cxx1112basic_stringIcSt11char_traitsIcESaIcEEEbxydSaNS_14adl_serializerES4_IhSaIhEEEEE12handle_valueIRxEEPSE_OT_ @5715
    _ZN8nlohmann6detail19json_sax_dom_parserINS_10basic_jsonISt3mapSt6vectorNSt7__cxx1112basic_stringIcSt11char_traitsIcESaIcEEEbxydSaNS_14adl_serializerES4_IhSaIhEEEEE12handle_valueIRyEEPSE_OT_ @5716
    _ZN8nlohmann6detail19json_sax_dom_parserINS_10basic_jsonISt3mapSt6vectorNSt7__cxx1112basic_stringIcSt11char_traitsIcESaIcEEEbxydSaNS_14adl_serializerES4_IhSaIhEEEEE12number_floatEdRKSA_ @5717
    _ZN8nlohmann6detail19json_sax_dom_parserINS_10basic_jsonISt3mapSt6vectorNSt7__cxx1112basic_stringIcSt11char_traitsIcESaIcEEEbxydSaNS_14adl_serializerES4_IhSaIhEEEEE12start_objectEy @5718
    _ZN8nlohmann6detail19json_sax_dom_parserINS_10basic_jsonISt3mapSt6vectorNSt7__cxx1112basic_stringIcSt11char_traitsIcESaIcEEEbxydSaNS_14adl_serializerES4_IhSaIhEEEEE14number_integerEx @5719
    _ZN8nlohmann6detail19json_sax_dom_parserINS_10basic_jsonISt3mapSt6vectorNSt7__cxx1112basic_stringIcSt11char_traitsIcESaIcEEEbxydSaNS_14adl_serializerES4_IhSaIhEEEEE15number_unsignedEy @5720
    _ZN8nlohmann6detail19json_sax_dom_parserINS_10basic_jsonISt3mapSt6vectorNSt7__cxx1112basic_stringIcSt11char_traitsIcESaIcEEEbxydSaNS_14adl_serializerES4_IhSaIhEEEEE3keyERSA_ @5721
    _ZN8nlohmann6detail19json_sax_dom_parserINS_10basic_jsonISt3mapSt6vectorNSt7__cxx1112basic_stringIcSt11char_traitsIcESaIcEEEbxydSaNS_14adl_serializerES4_IhSaIhEEEEE4nullEv @5722
    _ZN8nlohmann6detail19json_sax_dom_parserINS_10basic_jsonISt3mapSt6vectorNSt7__cxx1112basic_stringIcSt11char_traitsIcESaIcEEEbxydSaNS_14adl_serializerES4_IhSaIhEEEEE6stringERSA_ @5723
    _ZN8nlohmann6detail19json_sax_dom_parserINS_10basic_jsonISt3mapSt6vectorNSt7__cxx1112basic_stringIcSt11char_traitsIcESaIcEEEbxydSaNS_14adl_serializerES4_IhSaIhEEEEE7booleanEb @5724
    _ZN8nlohmann6detail19json_sax_dom_parserINS_10basic_jsonISt3mapSt6vectorNSt7__cxx1112basic_stringIcSt11char_traitsIcESaIcEEEbxydSaNS_14adl_serializerES4_IhSaIhEEEEE9end_arrayEv @5725
    _ZN8nlohmann6detail19json_sax_dom_parserINS_10basic_jsonISt3mapSt6vectorNSt7__cxx1112basic_stringIcSt11char_traitsIcESaIcEEEbxydSaNS_14adl_serializerES4_IhSaIhEEEEEC2ERSE_b @5726
    _ZN8nlohmann6detail19json_sax_dom_parserINS_10basic_jsonISt3mapSt6vectorNSt7__cxx1112basic_stringIcSt11char_traitsIcESaIcEEEbxydSaNS_14adl_serializerES4_IhSaIhEEEEED2Ev @5727
    _ZN8nlohmann6detail20external_constructorILNS0_7value_tE1EE9constructINS_10basic_jsonINS_11ordered_mapESt6vectorNSt7__cxx1112basic_stringIcSt11char_traitsIcESaIcEEEbxydSaNS_14adl_serializerES7_IhSaIhEEEESt3mapISD_NS5_ISI_S7_SD_bxydSaSE_SG_EESt4lessIvESaISt4pairIKSD_SJ_EEELi0EEEvRT_RKT0_ @5728
    _ZN8nlohmann6detail20external_constructorILNS0_7value_tE1EE9constructINS_10basic_jsonISt3mapSt6vectorNSt7__cxx1112basic_stringIcSt11char_traitsIcESaIcEEEbxydSaNS_14adl_serializerES7_IhSaIhEEEENS_11ordered_mapISD_NS5_ISI_S7_SD_bxydSaSE_SG_EESt4lessIvESaISt4pairIKSD_SJ_EEEELi0EEEvRT_RKT0_ @5729
    _ZN8nlohmann6detail20external_constructorILNS0_7value_tE2EE9constructINS_10basic_jsonINS_11ordered_mapESt6vectorNSt7__cxx1112basic_stringIcSt11char_traitsIcESaIcEEEbxydSaNS_14adl_serializerES7_IhSaIhEEEES7_INS5_ISt3mapS7_SD_bxydSaSE_SG_EESaISJ_EELi0EEEvRT_RKT0_ @5730
    _ZN8nlohmann6detail20external_constructorILNS0_7value_tE2EE9constructINS_10basic_jsonISt3mapSt6vectorNSt7__cxx1112basic_stringIcSt11char_traitsIcESaIcEEEbxydSaNS_14adl_serializerES7_IhSaIhEEEES7_INS5_INS_11ordered_mapES7_SD_bxydSaSE_SG_EESaISJ_EELi0EEEvRT_RKT0_ @5731
    _ZN8nlohmann6detail20external_constructorILNS0_7value_tE3EE9constructINS_10basic_jsonINS_11ordered_mapESt6vectorNSt7__cxx1112basic_stringIcSt11char_traitsIcESaIcEEEbxydSaNS_14adl_serializerES7_IhSaIhEEEEA6_cLi0EEEvRT_RKT0_ @5732
    _ZN8nlohmann6detail20external_constructorILNS0_7value_tE3EE9constructINS_10basic_jsonINS_11ordered_mapESt6vectorNSt7__cxx1112basic_stringIcSt11char_traitsIcESaIcEEEbxydSaNS_14adl_serializerES7_IhSaIhEEEEEEvRT_ONSI_8string_tE @5733
    _ZN8nlohmann6detail20external_constructorILNS0_7value_tE3EE9constructINS_10basic_jsonINS_11ordered_mapESt6vectorNSt7__cxx1112basic_stringIcSt11char_traitsIcESaIcEEEbxydSaNS_14adl_serializerES7_IhSaIhEEEEEEvRT_RKNSI_8string_tE @5734
    _ZN8nlohmann6detail20external_constructorILNS0_7value_tE3EE9constructINS_10basic_jsonINS_11ordered_mapESt6vectorNSt7__cxx1112basic_stringIcSt11char_traitsIcESaIcEEEbxydSaNS_14adl_serializerES7_IhSaIhEEEEPKcLi0EEEvRT_RKT0_ @5735
    _ZN8nlohmann6detail20external_constructorILNS0_7value_tE3EE9constructINS_10basic_jsonISt3mapSt6vectorNSt7__cxx1112basic_stringIcSt11char_traitsIcESaIcEEEbxydSaNS_14adl_serializerES7_IhSaIhEEEEEEvRT_ONSI_8string_tE @5736
    _ZN8nlohmann6detail20external_constructorILNS0_7value_tE3EE9constructINS_10basic_jsonISt3mapSt6vectorNSt7__cxx1112basic_stringIcSt11char_traitsIcESaIcEEEbxydSaNS_14adl_serializerES7_IhSaIhEEEEEEvRT_RKNSI_8string_tE @5737
    _ZN8nlohmann6detail20external_constructorILNS0_7value_tE3EE9constructINS_10basic_jsonISt3mapSt6vectorNSt7__cxx1112basic_stringIcSt11char_traitsIcESaIcEEEbxydSaNS_14adl_serializerES7_IhSaIhEEEEPKcLi0EEEvRT_RKT0_ @5738
    _ZN8nlohmann6detail20external_constructorILNS0_7value_tE4EE9constructINS_10basic_jsonINS_11ordered_mapESt6vectorNSt7__cxx1112basic_stringIcSt11char_traitsIcESaIcEEEbxydSaNS_14adl_serializerES7_IhSaIhEEEEEEvRT_NSI_9boolean_tE @5739
    _ZN8nlohmann6detail20external_constructorILNS0_7value_tE4EE9constructINS_10basic_jsonISt3mapSt6vectorNSt7__cxx1112basic_stringIcSt11char_traitsIcESaIcEEEbxydSaNS_14adl_serializerES7_IhSaIhEEEEEEvRT_NSI_9boolean_tE @5740
    _ZN8nlohmann6detail20external_constructorILNS0_7value_tE5EE9constructINS_10basic_jsonINS_11ordered_mapESt6vectorNSt7__cxx1112basic_stringIcSt11char_traitsIcESaIcEEEbxydSaNS_14adl_serializerES7_IhSaIhEEEEEEvRT_NSI_16number_integer_tE @5741
    _ZN8nlohmann6detail20external_constructorILNS0_7value_tE5EE9constructINS_10basic_jsonISt3mapSt6vectorNSt7__cxx1112basic_stringIcSt11char_traitsIcESaIcEEEbxydSaNS_14adl_serializerES7_IhSaIhEEEEEEvRT_NSI_16number_integer_tE @5742
    _ZN8nlohmann6detail20external_constructorILNS0_7value_tE6EE9constructINS_10basic_jsonINS_11ordered_mapESt6vectorNSt7__cxx1112basic_stringIcSt11char_traitsIcESaIcEEEbxydSaNS_14adl_serializerES7_IhSaIhEEEEEEvRT_NSI_17number_unsigned_tE @5743
    _ZN8nlohmann6detail20external_constructorILNS0_7value_tE6EE9constructINS_10basic_jsonISt3mapSt6vectorNSt7__cxx1112basic_stringIcSt11char_traitsIcESaIcEEEbxydSaNS_14adl_serializerES7_IhSaIhEEEEEEvRT_NSI_17number_unsigned_tE @5744
    _ZN8nlohmann6detail20external_constructorILNS0_7value_tE7EE9constructINS_10basic_jsonINS_11ordered_mapESt6vectorNSt7__cxx1112basic_stringIcSt11char_traitsIcESaIcEEEbxydSaNS_14adl_serializerES7_IhSaIhEEEEEEvRT_NSI_14number_float_tE @5745
    _ZN8nlohmann6detail20external_constructorILNS0_7value_tE7EE9constructINS_10basic_jsonISt3mapSt6vectorNSt7__cxx1112basic_stringIcSt11char_traitsIcESaIcEEEbxydSaNS_14adl_serializerES7_IhSaIhEEEEEEvRT_NSI_14number_float_tE @5746
    _ZN8nlohmann6detail20external_constructorILNS0_7value_tE8EE9constructINS_10basic_jsonINS_11ordered_mapESt6vectorNSt7__cxx1112basic_stringIcSt11char_traitsIcESaIcEEEbxydSaNS_14adl_serializerES7_IhSaIhEEEEEEvRT_RKNSI_8binary_tE @5747
    _ZN8nlohmann6detail20external_constructorILNS0_7value_tE8EE9constructINS_10basic_jsonISt3mapSt6vectorNSt7__cxx1112basic_stringIcSt11char_traitsIcESaIcEEEbxydSaNS_14adl_serializerES7_IhSaIhEEEEEEvRT_RKNSI_8binary_tE @5748
    _ZN8nlohmann6detail20get_arithmetic_valueINS_10basic_jsonINS_11ordered_mapESt6vectorNSt7__cxx1112basic_stringIcSt11char_traitsIcESaIcEEEbxydSaNS_14adl_serializerES4_IhSaIhEEEEdLi0EEEvRKT_RT0_ @5749
    _ZN8nlohmann6detail20get_arithmetic_valueINS_10basic_jsonINS_11ordered_mapESt6vectorNSt7__cxx1112basic_stringIcSt11char_traitsIcESaIcEEEbxydSaNS_14adl_serializerES4_IhSaIhEEEExLi0EEEvRKT_RT0_ @5750
    _ZN8nlohmann6detail20get_arithmetic_valueINS_10basic_jsonINS_11ordered_mapESt6vectorNSt7__cxx1112basic_stringIcSt11char_traitsIcESaIcEEEbxydSaNS_14adl_serializerES4_IhSaIhEEEEyLi0EEEvRKT_RT0_ @5751
    _ZN8nlohmann6detail20get_arithmetic_valueINS_10basic_jsonISt3mapSt6vectorNSt7__cxx1112basic_stringIcSt11char_traitsIcESaIcEEEbxydSaNS_14adl_serializerES4_IhSaIhEEEEdLi0EEEvRKT_RT0_ @5752
    _ZN8nlohmann6detail20get_arithmetic_valueINS_10basic_jsonISt3mapSt6vectorNSt7__cxx1112basic_stringIcSt11char_traitsIcESaIcEEEbxydSaNS_14adl_serializerES4_IhSaIhEEEExLi0EEEvRKT_RT0_ @5753
    _ZN8nlohmann6detail20get_arithmetic_valueINS_10basic_jsonISt3mapSt6vectorNSt7__cxx1112basic_stringIcSt11char_traitsIcESaIcEEEbxydSaNS_14adl_serializerES4_IhSaIhEEEEyLi0EEEvRKT_RT0_ @5754
    _ZN8nlohmann6detail20input_stream_adapter13get_characterEv @5755
    _ZN8nlohmann6detail20input_stream_adapterC2EOS1_ @5756
    _ZN8nlohmann6detail20input_stream_adapterC2ERSi @5757
    _ZN8nlohmann6detail20input_stream_adapterD2Ev @5758
    _ZN8nlohmann6detail20primitive_iterator_t7set_endEv @5759
    _ZN8nlohmann6detail20primitive_iterator_t9set_beginEv @5760
    _ZN8nlohmann6detail20primitive_iterator_tC2Ev @5761
    _ZN8nlohmann6detail20primitive_iterator_tppEv @5762
    _ZN8nlohmann6detail21output_stream_adapterIcE15write_characterEc @5763
    _ZN8nlohmann6detail21output_stream_adapterIcE16write_charactersEPKcy @5764
    _ZN8nlohmann6detail21output_stream_adapterIcEC2ERSo @5765
    _ZN8nlohmann6detail21output_stream_adapterIcED0Ev @5766
    _ZN8nlohmann6detail21output_stream_adapterIcED2Ev @5767
    _ZN8nlohmann6detail21output_string_adapterIcNSt7__cxx1112basic_stringIcSt11char_traitsIcESaIcEEEE15write_characterEc @5768
    _ZN8nlohmann6detail21output_string_adapterIcNSt7__cxx1112basic_stringIcSt11char_traitsIcESaIcEEEE16write_charactersEPKcy @5769
    _ZN8nlohmann6detail21output_string_adapterIcNSt7__cxx1112basic_stringIcSt11char_traitsIcESaIcEEEEC2ERS7_ @5770
    _ZN8nlohmann6detail21output_string_adapterIcNSt7__cxx1112basic_stringIcSt11char_traitsIcESaIcEEEED0Ev @5771
    _ZN8nlohmann6detail21output_string_adapterIcNSt7__cxx1112basic_stringIcSt11char_traitsIcESaIcEEEED2Ev @5772
    _ZN8nlohmann6detail22iterator_input_adapterIN9__gnu_cxx17__normal_iteratorIPKcNSt7__cxx1112basic_stringIcSt11char_traitsIcESaIcEEEEEE13get_characterEv @5773
    _ZN8nlohmann6detail22iterator_input_adapterIN9__gnu_cxx17__normal_iteratorIPKcNSt7__cxx1112basic_stringIcSt11char_traitsIcESaIcEEEEEEC2ESC_SC_ @5774
    _ZN8nlohmann6detail22iterator_input_adapterIPKcE13get_characterEv @5775
    _ZN8nlohmann6detail22iterator_input_adapterIPKcEC2ES3_S3_ @5776
    _ZN8nlohmann6detail23output_adapter_protocolIcEC2Ev @5777
    _ZN8nlohmann6detail23output_adapter_protocolIcED0Ev @5778
    _ZN8nlohmann6detail23output_adapter_protocolIcED2Ev @5779
    _ZN8nlohmann6detail28json_sax_dom_callback_parserINS_10basic_jsonISt3mapSt6vectorNSt7__cxx1112basic_stringIcSt11char_traitsIcESaIcEEEbxydSaNS_14adl_serializerES4_IhSaIhEEEEE10end_objectEv @5780
    _ZN8nlohmann6detail28json_sax_dom_callback_parserINS_10basic_jsonISt3mapSt6vectorNSt7__cxx1112basic_stringIcSt11char_traitsIcESaIcEEEbxydSaNS_14adl_serializerES4_IhSaIhEEEEE11parse_errorINS0_11parse_errorEEEbyRKSA_RKT_ @5781
    _ZN8nlohmann6detail28json_sax_dom_callback_parserINS_10basic_jsonISt3mapSt6vectorNSt7__cxx1112basic_stringIcSt11char_traitsIcESaIcEEEbxydSaNS_14adl_serializerES4_IhSaIhEEEEE11parse_errorINS0_12out_of_rangeEEEbyRKSA_RKT_ @5782
    _ZN8nlohmann6detail28json_sax_dom_callback_parserINS_10basic_jsonISt3mapSt6vectorNSt7__cxx1112basic_stringIcSt11char_traitsIcESaIcEEEbxydSaNS_14adl_serializerES4_IhSaIhEEEEE11start_arrayEy @5783
    _ZN8nlohmann6detail28json_sax_dom_callback_parserINS_10basic_jsonISt3mapSt6vectorNSt7__cxx1112basic_stringIcSt11char_traitsIcESaIcEEEbxydSaNS_14adl_serializerES4_IhSaIhEEEEE12handle_valueIDnEESt4pairIbPSE_EOT_b @5784
    _ZN8nlohmann6detail28json_sax_dom_callback_parserINS_10basic_jsonISt3mapSt6vectorNSt7__cxx1112basic_stringIcSt11char_traitsIcESaIcEEEbxydSaNS_14adl_serializerES4_IhSaIhEEEEE12handle_valueINS0_7value_tEEESt4pairIbPSE_EOT_b @5785
    _ZN8nlohmann6detail28json_sax_dom_callback_parserINS_10basic_jsonISt3mapSt6vectorNSt7__cxx1112basic_stringIcSt11char_traitsIcESaIcEEEbxydSaNS_14adl_serializerES4_IhSaIhEEEEE12handle_valueIRSA_EESt4pairIbPSE_EOT_b @5786
    _ZN8nlohmann6detail28json_sax_dom_callback_parserINS_10basic_jsonISt3mapSt6vectorNSt7__cxx1112basic_stringIcSt11char_traitsIcESaIcEEEbxydSaNS_14adl_serializerES4_IhSaIhEEEEE12handle_valueIRbEESt4pairIbPSE_EOT_b @5787
    _ZN8nlohmann6detail28json_sax_dom_callback_parserINS_10basic_jsonISt3mapSt6vectorNSt7__cxx1112basic_stringIcSt11char_traitsIcESaIcEEEbxydSaNS_14adl_serializerES4_IhSaIhEEEEE12handle_valueIRdEESt4pairIbPSE_EOT_b @5788
    _ZN8nlohmann6detail28json_sax_dom_callback_parserINS_10basic_jsonISt3mapSt6vectorNSt7__cxx1112basic_stringIcSt11char_traitsIcESaIcEEEbxydSaNS_14adl_serializerES4_IhSaIhEEEEE12handle_valueIRxEESt4pairIbPSE_EOT_b @5789
    _ZN8nlohmann6detail28json_sax_dom_callback_parserINS_10basic_jsonISt3mapSt6vectorNSt7__cxx1112basic_stringIcSt11char_traitsIcESaIcEEEbxydSaNS_14adl_serializerES4_IhSaIhEEEEE12handle_valueIRyEESt4pairIbPSE_EOT_b @5790
    _ZN8nlohmann6detail28json_sax_dom_callback_parserINS_10basic_jsonISt3mapSt6vectorNSt7__cxx1112basic_stringIcSt11char_traitsIcESaIcEEEbxydSaNS_14adl_serializerES4_IhSaIhEEEEE12number_floatEdRKSA_ @5791
    _ZN8nlohmann6detail28json_sax_dom_callback_parserINS_10basic_jsonISt3mapSt6vectorNSt7__cxx1112basic_stringIcSt11char_traitsIcESaIcEEEbxydSaNS_14adl_serializerES4_IhSaIhEEEEE12start_objectEy @5792
    _ZN8nlohmann6detail28json_sax_dom_callback_parserINS_10basic_jsonISt3mapSt6vectorNSt7__cxx1112basic_stringIcSt11char_traitsIcESaIcEEEbxydSaNS_14adl_serializerES4_IhSaIhEEEEE14number_integerEx @5793
    _ZN8nlohmann6detail28json_sax_dom_callback_parserINS_10basic_jsonISt3mapSt6vectorNSt7__cxx1112basic_stringIcSt11char_traitsIcESaIcEEEbxydSaNS_14adl_serializerES4_IhSaIhEEEEE15number_unsignedEy @5794
    _ZN8nlohmann6detail28json_sax_dom_callback_parserINS_10basic_jsonISt3mapSt6vectorNSt7__cxx1112basic_stringIcSt11char_traitsIcESaIcEEEbxydSaNS_14adl_serializerES4_IhSaIhEEEEE3keyERSA_ @5795
    _ZN8nlohmann6detail28json_sax_dom_callback_parserINS_10basic_jsonISt3mapSt6vectorNSt7__cxx1112basic_stringIcSt11char_traitsIcESaIcEEEbxydSaNS_14adl_serializerES4_IhSaIhEEEEE4nullEv @5796
    _ZN8nlohmann6detail28json_sax_dom_callback_parserINS_10basic_jsonISt3mapSt6vectorNSt7__cxx1112basic_stringIcSt11char_traitsIcESaIcEEEbxydSaNS_14adl_serializerES4_IhSaIhEEEEE6stringERSA_ @5797
    _ZN8nlohmann6detail28json_sax_dom_callback_parserINS_10basic_jsonISt3mapSt6vectorNSt7__cxx1112basic_stringIcSt11char_traitsIcESaIcEEEbxydSaNS_14adl_serializerES4_IhSaIhEEEEE7booleanEb @5798
    _ZN8nlohmann6detail28json_sax_dom_callback_parserINS_10basic_jsonISt3mapSt6vectorNSt7__cxx1112basic_stringIcSt11char_traitsIcESaIcEEEbxydSaNS_14adl_serializerES4_IhSaIhEEEEE9end_arrayEv @5799
    _ZN8nlohmann6detail28json_sax_dom_callback_parserINS_10basic_jsonISt3mapSt6vectorNSt7__cxx1112basic_stringIcSt11char_traitsIcESaIcEEEbxydSaNS_14adl_serializerES4_IhSaIhEEEEEC2ERSE_St8functionIFbiNS0_13parse_event_tESG_EEb @5800
    _ZN8nlohmann6detail28json_sax_dom_callback_parserINS_10basic_jsonISt3mapSt6vectorNSt7__cxx1112basic_stringIcSt11char_traitsIcESaIcEEEbxydSaNS_14adl_serializerES4_IhSaIhEEEEED2Ev @5801
    _ZN8nlohmann6detail30iterator_input_adapter_factoryIN9__gnu_cxx17__normal_iteratorIPKcNSt7__cxx1112basic_stringIcSt11char_traitsIcESaIcEEEEEvE6createESC_SC_ @5802
    _ZN8nlohmann6detail30iterator_input_adapter_factoryIPKcvE6createES3_S3_ @5803
    _ZN8nlohmann6detail5lexerINS_10basic_jsonISt3mapSt6vectorNSt7__cxx1112basic_stringIcSt11char_traitsIcESaIcEEEbxydSaNS_14adl_serializerES4_IhSaIhEEEENS0_20input_stream_adapterEE10get_stringEv @5804
    _ZN8nlohmann6detail5lexerINS_10basic_jsonISt3mapSt6vectorNSt7__cxx1112basic_stringIcSt11char_traitsIcESaIcEEEbxydSaNS_14adl_serializerES4_IhSaIhEEEENS0_20input_stream_adapterEE11scan_numberEv @5805
    _ZN8nlohmann6detail5lexerINS_10basic_jsonISt3mapSt6vectorNSt7__cxx1112basic_stringIcSt11char_traitsIcESaIcEEEbxydSaNS_14adl_serializerES4_IhSaIhEEEENS0_20input_stream_adapterEE11scan_stringEv @5806
    _ZN8nlohmann6detail5lexerINS_10basic_jsonISt3mapSt6vectorNSt7__cxx1112basic_stringIcSt11char_traitsIcESaIcEEEbxydSaNS_14adl_serializerES4_IhSaIhEEEENS0_20input_stream_adapterEE12scan_commentEv @5807
    _ZN8nlohmann6detail5lexerINS_10basic_jsonISt3mapSt6vectorNSt7__cxx1112basic_stringIcSt11char_traitsIcESaIcEEEbxydSaNS_14adl_serializerES4_IhSaIhEEEENS0_20input_stream_adapterEE12scan_literalEPKcyNS0_10lexer_baseISE_E10token_typeE @5808
    _ZN8nlohmann6detail5lexerINS_10basic_jsonISt3mapSt6vectorNSt7__cxx1112basic_stringIcSt11char_traitsIcESaIcEEEbxydSaNS_14adl_serializerES4_IhSaIhEEEENS0_20input_stream_adapterEE13get_codepointEv @5809
    _ZN8nlohmann6detail5lexerINS_10basic_jsonISt3mapSt6vectorNSt7__cxx1112basic_stringIcSt11char_traitsIcESaIcEEEbxydSaNS_14adl_serializerES4_IhSaIhEEEENS0_20input_stream_adapterEE15skip_whitespaceEv @5810
    _ZN8nlohmann6detail5lexerINS_10basic_jsonISt3mapSt6vectorNSt7__cxx1112basic_stringIcSt11char_traitsIcESaIcEEEbxydSaNS_14adl_serializerES4_IhSaIhEEEENS0_20input_stream_adapterEE17get_decimal_pointEv @5811
    _ZN8nlohmann6detail5lexerINS_10basic_jsonISt3mapSt6vectorNSt7__cxx1112basic_stringIcSt11char_traitsIcESaIcEEEbxydSaNS_14adl_serializerES4_IhSaIhEEEENS0_20input_stream_adapterEE18next_byte_in_rangeESt16initializer_listIiE @5812
    _ZN8nlohmann6detail5lexerINS_10basic_jsonISt3mapSt6vectorNSt7__cxx1112basic_stringIcSt11char_traitsIcESaIcEEEbxydSaNS_14adl_serializerES4_IhSaIhEEEENS0_20input_stream_adapterEE3addEi @5813
    _ZN8nlohmann6detail5lexerINS_10basic_jsonISt3mapSt6vectorNSt7__cxx1112basic_stringIcSt11char_traitsIcESaIcEEEbxydSaNS_14adl_serializerES4_IhSaIhEEEENS0_20input_stream_adapterEE3getEv @5814
    _ZN8nlohmann6detail5lexerINS_10basic_jsonISt3mapSt6vectorNSt7__cxx1112basic_stringIcSt11char_traitsIcESaIcEEEbxydSaNS_14adl_serializerES4_IhSaIhEEEENS0_20input_stream_adapterEE4scanEv @5815
    _ZN8nlohmann6detail5lexerINS_10basic_jsonISt3mapSt6vectorNSt7__cxx1112basic_stringIcSt11char_traitsIcESaIcEEEbxydSaNS_14adl_serializerES4_IhSaIhEEEENS0_20input_stream_adapterEE5resetEv @5816
    _ZN8nlohmann6detail5lexerINS_10basic_jsonISt3mapSt6vectorNSt7__cxx1112basic_stringIcSt11char_traitsIcESaIcEEEbxydSaNS_14adl_serializerES4_IhSaIhEEEENS0_20input_stream_adapterEE5ungetEv @5817
    _ZN8nlohmann6detail5lexerINS_10basic_jsonISt3mapSt6vectorNSt7__cxx1112basic_stringIcSt11char_traitsIcESaIcEEEbxydSaNS_14adl_serializerES4_IhSaIhEEEENS0_20input_stream_adapterEE6strtofERdPKcPPc @5818
    _ZN8nlohmann6detail5lexerINS_10basic_jsonISt3mapSt6vectorNSt7__cxx1112basic_stringIcSt11char_traitsIcESaIcEEEbxydSaNS_14adl_serializerES4_IhSaIhEEEENS0_20input_stream_adapterEE8skip_bomEv @5819
    _ZN8nlohmann6detail5lexerINS_10basic_jsonISt3mapSt6vectorNSt7__cxx1112basic_stringIcSt11char_traitsIcESaIcEEEbxydSaNS_14adl_serializerES4_IhSaIhEEEENS0_20input_stream_adapterEEC2EOSF_b @5820
    _ZN8nlohmann6detail5lexerINS_10basic_jsonISt3mapSt6vectorNSt7__cxx1112basic_stringIcSt11char_traitsIcESaIcEEEbxydSaNS_14adl_serializerES4_IhSaIhEEEENS0_20input_stream_adapterEED2Ev @5821
    _ZN8nlohmann6detail5lexerINS_10basic_jsonISt3mapSt6vectorNSt7__cxx1112basic_stringIcSt11char_traitsIcESaIcEEEbxydSaNS_14adl_serializerES4_IhSaIhEEEENS0_22iterator_input_adapterIN9__gnu_cxx17__normal_iteratorIPKcSA_EEEEE10get_stringEv @5822
    _ZN8nlohmann6detail5lexerINS_10basic_jsonISt3mapSt6vectorNSt7__cxx1112basic_stringIcSt11char_traitsIcESaIcEEEbxydSaNS_14adl_serializerES4_IhSaIhEEEENS0_22iterator_input_adapterIN9__gnu_cxx17__normal_iteratorIPKcSA_EEEEE11scan_numberEv @5823
    _ZN8nlohmann6detail5lexerINS_10basic_jsonISt3mapSt6vectorNSt7__cxx1112basic_stringIcSt11char_traitsIcESaIcEEEbxydSaNS_14adl_serializerES4_IhSaIhEEEENS0_22iterator_input_adapterIN9__gnu_cxx17__normal_iteratorIPKcSA_EEEEE11scan_stringEv @5824
    _ZN8nlohmann6detail5lexerINS_10basic_jsonISt3mapSt6vectorNSt7__cxx1112basic_stringIcSt11char_traitsIcESaIcEEEbxydSaNS_14adl_serializerES4_IhSaIhEEEENS0_22iterator_input_adapterIN9__gnu_cxx17__normal_iteratorIPKcSA_EEEEE12scan_commentEv @5825
    _ZN8nlohmann6detail5lexerINS_10basic_jsonISt3mapSt6vectorNSt7__cxx1112basic_stringIcSt11char_traitsIcESaIcEEEbxydSaNS_14adl_serializerES4_IhSaIhEEEENS0_22iterator_input_adapterIN9__gnu_cxx17__normal_iteratorIPKcSA_EEEEE12scan_literalESJ_yNS0_10lexer_baseISE_E10token_typeE @5826
    _ZN8nlohmann6detail5lexerINS_10basic_jsonISt3mapSt6vectorNSt7__cxx1112basic_stringIcSt11char_traitsIcESaIcEEEbxydSaNS_14adl_serializerES4_IhSaIhEEEENS0_22iterator_input_adapterIN9__gnu_cxx17__normal_iteratorIPKcSA_EEEEE13get_codepointEv @5827
    _ZN8nlohmann6detail5lexerINS_10basic_jsonISt3mapSt6vectorNSt7__cxx1112basic_stringIcSt11char_traitsIcESaIcEEEbxydSaNS_14adl_serializerES4_IhSaIhEEEENS0_22iterator_input_adapterIN9__gnu_cxx17__normal_iteratorIPKcSA_EEEEE15skip_whitespaceEv @5828
    _ZN8nlohmann6detail5lexerINS_10basic_jsonISt3mapSt6vectorNSt7__cxx1112basic_stringIcSt11char_traitsIcESaIcEEEbxydSaNS_14adl_serializerES4_IhSaIhEEEENS0_22iterator_input_adapterIN9__gnu_cxx17__normal_iteratorIPKcSA_EEEEE17get_decimal_pointEv @5829
    _ZN8nlohmann6detail5lexerINS_10basic_jsonISt3mapSt6vectorNSt7__cxx1112basic_stringIcSt11char_traitsIcESaIcEEEbxydSaNS_14adl_serializerES4_IhSaIhEEEENS0_22iterator_input_adapterIN9__gnu_cxx17__normal_iteratorIPKcSA_EEEEE18next_byte_in_rangeESt16initializer_listIiE @5830
    _ZN8nlohmann6detail5lexerINS_10basic_jsonISt3mapSt6vectorNSt7__cxx1112basic_stringIcSt11char_traitsIcESaIcEEEbxydSaNS_14adl_serializerES4_IhSaIhEEEENS0_22iterator_input_adapterIN9__gnu_cxx17__normal_iteratorIPKcSA_EEEEE3addEi @5831
    _ZN8nlohmann6detail5lexerINS_10basic_jsonISt3mapSt6vectorNSt7__cxx1112basic_stringIcSt11char_traitsIcESaIcEEEbxydSaNS_14adl_serializerES4_IhSaIhEEEENS0_22iterator_input_adapterIN9__gnu_cxx17__normal_iteratorIPKcSA_EEEEE3getEv @5832
    _ZN8nlohmann6detail5lexerINS_10basic_jsonISt3mapSt6vectorNSt7__cxx1112basic_stringIcSt11char_traitsIcESaIcEEEbxydSaNS_14adl_serializerES4_IhSaIhEEEENS0_22iterator_input_adapterIN9__gnu_cxx17__normal_iteratorIPKcSA_EEEEE4scanEv @5833
    _ZN8nlohmann6detail5lexerINS_10basic_jsonISt3mapSt6vectorNSt7__cxx1112basic_stringIcSt11char_traitsIcESaIcEEEbxydSaNS_14adl_serializerES4_IhSaIhEEEENS0_22iterator_input_adapterIN9__gnu_cxx17__normal_iteratorIPKcSA_EEEEE5resetEv @5834
    _ZN8nlohmann6detail5lexerINS_10basic_jsonISt3mapSt6vectorNSt7__cxx1112basic_stringIcSt11char_traitsIcESaIcEEEbxydSaNS_14adl_serializerES4_IhSaIhEEEENS0_22iterator_input_adapterIN9__gnu_cxx17__normal_iteratorIPKcSA_EEEEE5ungetEv @5835
    _ZN8nlohmann6detail5lexerINS_10basic_jsonISt3mapSt6vectorNSt7__cxx1112basic_stringIcSt11char_traitsIcESaIcEEEbxydSaNS_14adl_serializerES4_IhSaIhEEEENS0_22iterator_input_adapterIN9__gnu_cxx17__normal_iteratorIPKcSA_EEEEE6strtofERdSJ_PPc @5836
    _ZN8nlohmann6detail5lexerINS_10basic_jsonISt3mapSt6vectorNSt7__cxx1112basic_stringIcSt11char_traitsIcESaIcEEEbxydSaNS_14adl_serializerES4_IhSaIhEEEENS0_22iterator_input_adapterIN9__gnu_cxx17__normal_iteratorIPKcSA_EEEEE8skip_bomEv @5837
    _ZN8nlohmann6detail5lexerINS_10basic_jsonISt3mapSt6vectorNSt7__cxx1112basic_stringIcSt11char_traitsIcESaIcEEEbxydSaNS_14adl_serializerES4_IhSaIhEEEENS0_22iterator_input_adapterIN9__gnu_cxx17__normal_iteratorIPKcSA_EEEEEC2EOSL_b @5838
    _ZN8nlohmann6detail5lexerINS_10basic_jsonISt3mapSt6vectorNSt7__cxx1112basic_stringIcSt11char_traitsIcESaIcEEEbxydSaNS_14adl_serializerES4_IhSaIhEEEENS0_22iterator_input_adapterIN9__gnu_cxx17__normal_iteratorIPKcSA_EEEEED2Ev @5839
    _ZN8nlohmann6detail5lexerINS_10basic_jsonISt3mapSt6vectorNSt7__cxx1112basic_stringIcSt11char_traitsIcESaIcEEEbxydSaNS_14adl_serializerES4_IhSaIhEEEENS0_22iterator_input_adapterIPKcEEE10get_stringEv @5840
    _ZN8nlohmann6detail5lexerINS_10basic_jsonISt3mapSt6vectorNSt7__cxx1112basic_stringIcSt11char_traitsIcESaIcEEEbxydSaNS_14adl_serializerES4_IhSaIhEEEENS0_22iterator_input_adapterIPKcEEE11scan_numberEv @5841
    _ZN8nlohmann6detail5lexerINS_10basic_jsonISt3mapSt6vectorNSt7__cxx1112basic_stringIcSt11char_traitsIcESaIcEEEbxydSaNS_14adl_serializerES4_IhSaIhEEEENS0_22iterator_input_adapterIPKcEEE11scan_stringEv @5842
    _ZN8nlohmann6detail5lexerINS_10basic_jsonISt3mapSt6vectorNSt7__cxx1112basic_stringIcSt11char_traitsIcESaIcEEEbxydSaNS_14adl_serializerES4_IhSaIhEEEENS0_22iterator_input_adapterIPKcEEE12scan_commentEv @5843
    _ZN8nlohmann6detail5lexerINS_10basic_jsonISt3mapSt6vectorNSt7__cxx1112basic_stringIcSt11char_traitsIcESaIcEEEbxydSaNS_14adl_serializerES4_IhSaIhEEEENS0_22iterator_input_adapterIPKcEEE12scan_literalESH_yNS0_10lexer_baseISE_E10token_typeE @5844
    _ZN8nlohmann6detail5lexerINS_10basic_jsonISt3mapSt6vectorNSt7__cxx1112basic_stringIcSt11char_traitsIcESaIcEEEbxydSaNS_14adl_serializerES4_IhSaIhEEEENS0_22iterator_input_adapterIPKcEEE13get_codepointEv @5845
    _ZN8nlohmann6detail5lexerINS_10basic_jsonISt3mapSt6vectorNSt7__cxx1112basic_stringIcSt11char_traitsIcESaIcEEEbxydSaNS_14adl_serializerES4_IhSaIhEEEENS0_22iterator_input_adapterIPKcEEE15skip_whitespaceEv @5846
    _ZN8nlohmann6detail5lexerINS_10basic_jsonISt3mapSt6vectorNSt7__cxx1112basic_stringIcSt11char_traitsIcESaIcEEEbxydSaNS_14adl_serializerES4_IhSaIhEEEENS0_22iterator_input_adapterIPKcEEE17get_decimal_pointEv @5847
    _ZN8nlohmann6detail5lexerINS_10basic_jsonISt3mapSt6vectorNSt7__cxx1112basic_stringIcSt11char_traitsIcESaIcEEEbxydSaNS_14adl_serializerES4_IhSaIhEEEENS0_22iterator_input_adapterIPKcEEE18next_byte_in_rangeESt16initializer_listIiE @5848
    _ZN8nlohmann6detail5lexerINS_10basic_jsonISt3mapSt6vectorNSt7__cxx1112basic_stringIcSt11char_traitsIcESaIcEEEbxydSaNS_14adl_serializerES4_IhSaIhEEEENS0_22iterator_input_adapterIPKcEEE3addEi @5849
    _ZN8nlohmann6detail5lexerINS_10basic_jsonISt3mapSt6vectorNSt7__cxx1112basic_stringIcSt11char_traitsIcESaIcEEEbxydSaNS_14adl_serializerES4_IhSaIhEEEENS0_22iterator_input_adapterIPKcEEE3getEv @5850
    _ZN8nlohmann6detail5lexerINS_10basic_jsonISt3mapSt6vectorNSt7__cxx1112basic_stringIcSt11char_traitsIcESaIcEEEbxydSaNS_14adl_serializerES4_IhSaIhEEEENS0_22iterator_input_adapterIPKcEEE4scanEv @5851
    _ZN8nlohmann6detail5lexerINS_10basic_jsonISt3mapSt6vectorNSt7__cxx1112basic_stringIcSt11char_traitsIcESaIcEEEbxydSaNS_14adl_serializerES4_IhSaIhEEEENS0_22iterator_input_adapterIPKcEEE5resetEv @5852
    _ZN8nlohmann6detail5lexerINS_10basic_jsonISt3mapSt6vectorNSt7__cxx1112basic_stringIcSt11char_traitsIcESaIcEEEbxydSaNS_14adl_serializerES4_IhSaIhEEEENS0_22iterator_input_adapterIPKcEEE5ungetEv @5853
    _ZN8nlohmann6detail5lexerINS_10basic_jsonISt3mapSt6vectorNSt7__cxx1112basic_stringIcSt11char_traitsIcESaIcEEEbxydSaNS_14adl_serializerES4_IhSaIhEEEENS0_22iterator_input_adapterIPKcEEE6strtofERdSH_PPc @5854
    _ZN8nlohmann6detail5lexerINS_10basic_jsonISt3mapSt6vectorNSt7__cxx1112basic_stringIcSt11char_traitsIcESaIcEEEbxydSaNS_14adl_serializerES4_IhSaIhEEEENS0_22iterator_input_adapterIPKcEEE8skip_bomEv @5855
    _ZN8nlohmann6detail5lexerINS_10basic_jsonISt3mapSt6vectorNSt7__cxx1112basic_stringIcSt11char_traitsIcESaIcEEEbxydSaNS_14adl_serializerES4_IhSaIhEEEENS0_22iterator_input_adapterIPKcEEEC2EOSI_b @5856
    _ZN8nlohmann6detail5lexerINS_10basic_jsonISt3mapSt6vectorNSt7__cxx1112basic_stringIcSt11char_traitsIcESaIcEEEbxydSaNS_14adl_serializerES4_IhSaIhEEEENS0_22iterator_input_adapterIPKcEEED2Ev @5857
    _ZN8nlohmann6detail6parserINS_10basic_jsonISt3mapSt6vectorNSt7__cxx1112basic_stringIcSt11char_traitsIcESaIcEEEbxydSaNS_14adl_serializerES4_IhSaIhEEEENS0_20input_stream_adapterEE17exception_messageENS0_10lexer_baseISE_E10token_typeERKSA_ @5858
    _ZN8nlohmann6detail6parserINS_10basic_jsonISt3mapSt6vectorNSt7__cxx1112basic_stringIcSt11char_traitsIcESaIcEEEbxydSaNS_14adl_serializerES4_IhSaIhEEEENS0_20input_stream_adapterEE18sax_parse_internalINS0_19json_sax_dom_parserISE_EEEEbPT_ @5859
    _ZN8nlohmann6detail6parserINS_10basic_jsonISt3mapSt6vectorNSt7__cxx1112basic_stringIcSt11char_traitsIcESaIcEEEbxydSaNS_14adl_serializerES4_IhSaIhEEEENS0_20input_stream_adapterEE18sax_parse_internalINS0_28json_sax_dom_callback_parserISE_EEEEbPT_ @5860
    _ZN8nlohmann6detail6parserINS_10basic_jsonISt3mapSt6vectorNSt7__cxx1112basic_stringIcSt11char_traitsIcESaIcEEEbxydSaNS_14adl_serializerES4_IhSaIhEEEENS0_20input_stream_adapterEE5parseEbRSE_ @5861
    _ZN8nlohmann6detail6parserINS_10basic_jsonISt3mapSt6vectorNSt7__cxx1112basic_stringIcSt11char_traitsIcESaIcEEEbxydSaNS_14adl_serializerES4_IhSaIhEEEENS0_20input_stream_adapterEE9get_tokenEv @5862
    _ZN8nlohmann6detail6parserINS_10basic_jsonISt3mapSt6vectorNSt7__cxx1112basic_stringIcSt11char_traitsIcESaIcEEEbxydSaNS_14adl_serializerES4_IhSaIhEEEENS0_20input_stream_adapterEEC2EOSF_St8functionIFbiNS0_13parse_event_tERSE_EEbb @5863
    _ZN8nlohmann6detail6parserINS_10basic_jsonISt3mapSt6vectorNSt7__cxx1112basic_stringIcSt11char_traitsIcESaIcEEEbxydSaNS_14adl_serializerES4_IhSaIhEEEENS0_20input_stream_adapterEED2Ev @5864
    _ZN8nlohmann6detail6parserINS_10basic_jsonISt3mapSt6vectorNSt7__cxx1112basic_stringIcSt11char_traitsIcESaIcEEEbxydSaNS_14adl_serializerES4_IhSaIhEEEENS0_22iterator_input_adapterIN9__gnu_cxx17__normal_iteratorIPKcSA_EEEEE17exception_messageENS0_10lexer_baseISE_E10token_typeERKSA_ @5865
    _ZN8nlohmann6detail6parserINS_10basic_jsonISt3mapSt6vectorNSt7__cxx1112basic_stringIcSt11char_traitsIcESaIcEEEbxydSaNS_14adl_serializerES4_IhSaIhEEEENS0_22iterator_input_adapterIN9__gnu_cxx17__normal_iteratorIPKcSA_EEEEE18sax_parse_internalINS0_19json_sax_dom_parserISE_EEEEbPT_ @5866
    _ZN8nlohmann6detail6parserINS_10basic_jsonISt3mapSt6vectorNSt7__cxx1112basic_stringIcSt11char_traitsIcESaIcEEEbxydSaNS_14adl_serializerES4_IhSaIhEEEENS0_22iterator_input_adapterIN9__gnu_cxx17__normal_iteratorIPKcSA_EEEEE18sax_parse_internalINS0_28json_sax_dom_callback_parserISE_EEEEbPT_ @5867
    _ZN8nlohmann6detail6parserINS_10basic_jsonISt3mapSt6vectorNSt7__cxx1112basic_stringIcSt11char_traitsIcESaIcEEEbxydSaNS_14adl_serializerES4_IhSaIhEEEENS0_22iterator_input_adapterIN9__gnu_cxx17__normal_iteratorIPKcSA_EEEEE5parseEbRSE_ @5868
    _ZN8nlohmann6detail6parserINS_10basic_jsonISt3mapSt6vectorNSt7__cxx1112basic_stringIcSt11char_traitsIcESaIcEEEbxydSaNS_14adl_serializerES4_IhSaIhEEEENS0_22iterator_input_adapterIN9__gnu_cxx17__normal_iteratorIPKcSA_EEEEE9get_tokenEv @5869
    _ZN8nlohmann6detail6parserINS_10basic_jsonISt3mapSt6vectorNSt7__cxx1112basic_stringIcSt11char_traitsIcESaIcEEEbxydSaNS_14adl_serializerES4_IhSaIhEEEENS0_22iterator_input_adapterIN9__gnu_cxx17__normal_iteratorIPKcSA_EEEEEC2EOSL_St8functionIFbiNS0_13parse_event_tERSE_EEbb @5870
    _ZN8nlohmann6detail6parserINS_10basic_jsonISt3mapSt6vectorNSt7__cxx1112basic_stringIcSt11char_traitsIcESaIcEEEbxydSaNS_14adl_serializerES4_IhSaIhEEEENS0_22iterator_input_adapterIN9__gnu_cxx17__normal_iteratorIPKcSA_EEEEED2Ev @5871
    _ZN8nlohmann6detail6parserINS_10basic_jsonISt3mapSt6vectorNSt7__cxx1112basic_stringIcSt11char_traitsIcESaIcEEEbxydSaNS_14adl_serializerES4_IhSaIhEEEENS0_22iterator_input_adapterIPKcEEE17exception_messageENS0_10lexer_baseISE_E10token_typeERKSA_ @5872
    _ZN8nlohmann6detail6parserINS_10basic_jsonISt3mapSt6vectorNSt7__cxx1112basic_stringIcSt11char_traitsIcESaIcEEEbxydSaNS_14adl_serializerES4_IhSaIhEEEENS0_22iterator_input_adapterIPKcEEE18sax_parse_internalINS0_19json_sax_dom_parserISE_EEEEbPT_ @5873
    _ZN8nlohmann6detail6parserINS_10basic_jsonISt3mapSt6vectorNSt7__cxx1112basic_stringIcSt11char_traitsIcESaIcEEEbxydSaNS_14adl_serializerES4_IhSaIhEEEENS0_22iterator_input_adapterIPKcEEE18sax_parse_internalINS0_28json_sax_dom_callback_parserISE_EEEEbPT_ @5874
    _ZN8nlohmann6detail6parserINS_10basic_jsonISt3mapSt6vectorNSt7__cxx1112basic_stringIcSt11char_traitsIcESaIcEEEbxydSaNS_14adl_serializerES4_IhSaIhEEEENS0_22iterator_input_adapterIPKcEEE5parseEbRSE_ @5875
    _ZN8nlohmann6detail6parserINS_10basic_jsonISt3mapSt6vectorNSt7__cxx1112basic_stringIcSt11char_traitsIcESaIcEEEbxydSaNS_14adl_serializerES4_IhSaIhEEEENS0_22iterator_input_adapterIPKcEEE9get_tokenEv @5876
    _ZN8nlohmann6detail6parserINS_10basic_jsonISt3mapSt6vectorNSt7__cxx1112basic_stringIcSt11char_traitsIcESaIcEEEbxydSaNS_14adl_serializerES4_IhSaIhEEEENS0_22iterator_input_adapterIPKcEEEC2EOSI_St8functionIFbiNS0_13parse_event_tERSE_EEbb @5877
    _ZN8nlohmann6detail6parserINS_10basic_jsonISt3mapSt6vectorNSt7__cxx1112basic_stringIcSt11char_traitsIcESaIcEEEbxydSaNS_14adl_serializerES4_IhSaIhEEEENS0_22iterator_input_adapterIPKcEEED2Ev @5878
    _ZN8nlohmann6detail7to_jsonINS_10basic_jsonINS_11ordered_mapESt6vectorNSt7__cxx1112basic_stringIcSt11char_traitsIcESaIcEEEbxydSaNS_14adl_serializerES4_IhSaIhEEEEA6_cLi0EEEvRT_RKT0_ @5879
    _ZN8nlohmann6detail7to_jsonINS_10basic_jsonINS_11ordered_mapESt6vectorNSt7__cxx1112basic_stringIcSt11char_traitsIcESaIcEEEbxydSaNS_14adl_serializerES4_IhSaIhEEEEEEvRT_ONSF_8string_tE @5880
    _ZN8nlohmann6detail7to_jsonINS_10basic_jsonINS_11ordered_mapESt6vectorNSt7__cxx1112basic_stringIcSt11char_traitsIcESaIcEEEbxydSaNS_14adl_serializerES4_IhSaIhEEEEEEvRT_RKNSF_8binary_tE @5881
    _ZN8nlohmann6detail7to_jsonINS_10basic_jsonINS_11ordered_mapESt6vectorNSt7__cxx1112basic_stringIcSt11char_traitsIcESaIcEEEbxydSaNS_14adl_serializerES4_IhSaIhEEEEPKcLi0EEEvRT_RKT0_ @5882
    _ZN8nlohmann6detail7to_jsonINS_10basic_jsonINS_11ordered_mapESt6vectorNSt7__cxx1112basic_stringIcSt11char_traitsIcESaIcEEEbxydSaNS_14adl_serializerES4_IhSaIhEEEES4_INS2_ISt3mapS4_SA_bxydSaSB_SD_EESaISG_EELi0EEEvRT_RKT0_ @5883
    _ZN8nlohmann6detail7to_jsonINS_10basic_jsonINS_11ordered_mapESt6vectorNSt7__cxx1112basic_stringIcSt11char_traitsIcESaIcEEEbxydSaNS_14adl_serializerES4_IhSaIhEEEESA_Li0EEEvRT_RKT0_ @5884
    _ZN8nlohmann6detail7to_jsonINS_10basic_jsonINS_11ordered_mapESt6vectorNSt7__cxx1112basic_stringIcSt11char_traitsIcESaIcEEEbxydSaNS_14adl_serializerES4_IhSaIhEEEESt3mapISA_NS2_ISF_S4_SA_bxydSaSB_SD_EESt4lessIvESaISt4pairIKSA_SG_EEELi0EEEvRT_RKT0_ @5885
    _ZN8nlohmann6detail7to_jsonINS_10basic_jsonINS_11ordered_mapESt6vectorNSt7__cxx1112basic_stringIcSt11char_traitsIcESaIcEEEbxydSaNS_14adl_serializerES4_IhSaIhEEEEbLi0EEEvRT_T0_ @5886
    _ZN8nlohmann6detail7to_jsonINS_10basic_jsonINS_11ordered_mapESt6vectorNSt7__cxx1112basic_stringIcSt11char_traitsIcESaIcEEEbxydSaNS_14adl_serializerES4_IhSaIhEEEEdLi0EEEvRT_T0_ @5887
    _ZN8nlohmann6detail7to_jsonINS_10basic_jsonINS_11ordered_mapESt6vectorNSt7__cxx1112basic_stringIcSt11char_traitsIcESaIcEEEbxydSaNS_14adl_serializerES4_IhSaIhEEEEiLi0EEEvRT_T0_ @5888
    _ZN8nlohmann6detail7to_jsonINS_10basic_jsonINS_11ordered_mapESt6vectorNSt7__cxx1112basic_stringIcSt11char_traitsIcESaIcEEEbxydSaNS_14adl_serializerES4_IhSaIhEEEEtLi0EEEvRT_T0_ @5889
    _ZN8nlohmann6detail7to_jsonINS_10basic_jsonINS_11ordered_mapESt6vectorNSt7__cxx1112basic_stringIcSt11char_traitsIcESaIcEEEbxydSaNS_14adl_serializerES4_IhSaIhEEEExLi0EEEvRT_T0_ @5890
    _ZN8nlohmann6detail7to_jsonINS_10basic_jsonINS_11ordered_mapESt6vectorNSt7__cxx1112basic_stringIcSt11char_traitsIcESaIcEEEbxydSaNS_14adl_serializerES4_IhSaIhEEEEyLi0EEEvRT_T0_ @5891
    _ZN8nlohmann6detail7to_jsonINS_10basic_jsonISt3mapSt6vectorNSt7__cxx1112basic_stringIcSt11char_traitsIcESaIcEEEbxydSaNS_14adl_serializerES4_IhSaIhEEEEEEvRT_ONSF_8string_tE @5892
    _ZN8nlohmann6detail7to_jsonINS_10basic_jsonISt3mapSt6vectorNSt7__cxx1112basic_stringIcSt11char_traitsIcESaIcEEEbxydSaNS_14adl_serializerES4_IhSaIhEEEEEEvRT_RKNSF_8binary_tE @5893
    _ZN8nlohmann6detail7to_jsonINS_10basic_jsonISt3mapSt6vectorNSt7__cxx1112basic_stringIcSt11char_traitsIcESaIcEEEbxydSaNS_14adl_serializerES4_IhSaIhEEEENS_11ordered_mapISA_NS2_ISF_S4_SA_bxydSaSB_SD_EESt4lessIvESaISt4pairIKSA_SG_EEEELi0EEEvRT_RKT0_ @5894
    _ZN8nlohmann6detail7to_jsonINS_10basic_jsonISt3mapSt6vectorNSt7__cxx1112basic_stringIcSt11char_traitsIcESaIcEEEbxydSaNS_14adl_serializerES4_IhSaIhEEEEPKcLi0EEEvRT_RKT0_ @5895
    _ZN8nlohmann6detail7to_jsonINS_10basic_jsonISt3mapSt6vectorNSt7__cxx1112basic_stringIcSt11char_traitsIcESaIcEEEbxydSaNS_14adl_serializerES4_IhSaIhEEEES4_INS2_INS_11ordered_mapES4_SA_bxydSaSB_SD_EESaISG_EELi0EEEvRT_RKT0_ @5896
    _ZN8nlohmann6detail7to_jsonINS_10basic_jsonISt3mapSt6vectorNSt7__cxx1112basic_stringIcSt11char_traitsIcESaIcEEEbxydSaNS_14adl_serializerES4_IhSaIhEEEESA_Li0EEEvRT_RKT0_ @5897
    _ZN8nlohmann6detail7to_jsonINS_10basic_jsonISt3mapSt6vectorNSt7__cxx1112basic_stringIcSt11char_traitsIcESaIcEEEbxydSaNS_14adl_serializerES4_IhSaIhEEEEbLi0EEEvRT_T0_ @5898
    _ZN8nlohmann6detail7to_jsonINS_10basic_jsonISt3mapSt6vectorNSt7__cxx1112basic_stringIcSt11char_traitsIcESaIcEEEbxydSaNS_14adl_serializerES4_IhSaIhEEEEdLi0EEEvRT_T0_ @5899
    _ZN8nlohmann6detail7to_jsonINS_10basic_jsonISt3mapSt6vectorNSt7__cxx1112basic_stringIcSt11char_traitsIcESaIcEEEbxydSaNS_14adl_serializerES4_IhSaIhEEEExLi0EEEvRT_T0_ @5900
    _ZN8nlohmann6detail7to_jsonINS_10basic_jsonISt3mapSt6vectorNSt7__cxx1112basic_stringIcSt11char_traitsIcESaIcEEEbxydSaNS_14adl_serializerES4_IhSaIhEEEEyLi0EEEvRT_T0_ @5901
    _ZN8nlohmann6detail8to_charsIdEEPcS2_PKcT_ @5902
    _ZN8nlohmann6detail9dtoa_impl12grisu2_roundEPciyyyy @5903
    _ZN8nlohmann6detail9dtoa_impl13format_bufferEPciiii @5904
    _ZN8nlohmann6detail9dtoa_impl15append_exponentEPci @5905
    _ZN8nlohmann6detail9dtoa_impl16grisu2_digit_genEPcRiS3_NS1_5diyfpES4_S4_ @5906
    _ZN8nlohmann6detail9dtoa_impl16reinterpret_bitsIydEET_T0_ @5907
    _ZN8nlohmann6detail9dtoa_impl18compute_boundariesIdEENS1_10boundariesET_ @5908
    _ZN8nlohmann6detail9dtoa_impl18find_largest_pow10EjRj @5909
    _ZN8nlohmann6detail9dtoa_impl36get_cached_power_for_binary_exponentEi @5910
    _ZN8nlohmann6detail9dtoa_impl5diyfp12normalize_toERKS2_i @5911
    _ZN8nlohmann6detail9dtoa_impl5diyfp3mulERKS2_S4_ @5912
    _ZN8nlohmann6detail9dtoa_impl5diyfp3subERKS2_S4_ @5913
    _ZN8nlohmann6detail9dtoa_impl5diyfp9normalizeES2_ @5914
    _ZN8nlohmann6detail9dtoa_impl5diyfpC2Eyi @5915
    _ZN8nlohmann6detail9dtoa_impl6grisu2EPcRiS3_NS1_5diyfpES4_S4_ @5916
    _ZN8nlohmann6detail9dtoa_impl6grisu2IdEEvPcRiS4_T_ @5917
    _ZN8nlohmann6detail9exception4nameERKNSt7__cxx1112basic_stringIcSt11char_traitsIcESaIcEEEi @5918
    _ZN8nlohmann6detail9exceptionC2ERKS1_ @5919
    _ZN8nlohmann6detail9exceptionC2EiPKc @5920
    _ZN8nlohmann6detail9exceptionD0Ev @5921
    _ZN8nlohmann6detail9exceptionD2Ev @5922
    _ZN8nlohmann6detail9from_jsonINS_10basic_jsonINS_11ordered_mapESt6vectorNSt7__cxx1112basic_stringIcSt11char_traitsIcESaIcEEEbxydSaNS_14adl_serializerES4_IhSaIhEEEEEEvRKT_RNSF_14number_float_tE @5923
    _ZN8nlohmann6detail9from_jsonINS_10basic_jsonINS_11ordered_mapESt6vectorNSt7__cxx1112basic_stringIcSt11char_traitsIcESaIcEEEbxydSaNS_14adl_serializerES4_IhSaIhEEEEEEvRKT_RNSF_16number_integer_tE @5924
    _ZN8nlohmann6detail9from_jsonINS_10basic_jsonINS_11ordered_mapESt6vectorNSt7__cxx1112basic_stringIcSt11char_traitsIcESaIcEEEbxydSaNS_14adl_serializerES4_IhSaIhEEEEEEvRKT_RNSF_17number_unsigned_tE @5925
    _ZN8nlohmann6detail9from_jsonINS_10basic_jsonINS_11ordered_mapESt6vectorNSt7__cxx1112basic_stringIcSt11char_traitsIcESaIcEEEbxydSaNS_14adl_serializerES4_IhSaIhEEEEEEvRKT_RNSF_8string_tE @5926
    _ZN8nlohmann6detail9from_jsonINS_10basic_jsonINS_11ordered_mapESt6vectorNSt7__cxx1112basic_stringIcSt11char_traitsIcESaIcEEEbxydSaNS_14adl_serializerES4_IhSaIhEEEEEEvRKT_RNSF_9boolean_tE @5927
    _ZN8nlohmann6detail9from_jsonINS_10basic_jsonINS_11ordered_mapESt6vectorNSt7__cxx1112basic_stringIcSt11char_traitsIcESaIcEEEbxydSaNS_14adl_serializerES4_IhSaIhEEEEiLi0EEEvRKT_RT0_ @5928
    _ZN8nlohmann6detail9from_jsonINS_10basic_jsonISt3mapSt6vectorNSt7__cxx1112basic_stringIcSt11char_traitsIcESaIcEEEbxydSaNS_14adl_serializerES4_IhSaIhEEEEEEvRKT_RNSF_14number_float_tE @5929
    _ZN8nlohmann6detail9from_jsonINS_10basic_jsonISt3mapSt6vectorNSt7__cxx1112basic_stringIcSt11char_traitsIcESaIcEEEbxydSaNS_14adl_serializerES4_IhSaIhEEEEEEvRKT_RNSF_16number_integer_tE @5930
    _ZN8nlohmann6detail9from_jsonINS_10basic_jsonISt3mapSt6vectorNSt7__cxx1112basic_stringIcSt11char_traitsIcESaIcEEEbxydSaNS_14adl_serializerES4_IhSaIhEEEEEEvRKT_RNSF_17number_unsigned_tE @5931
    _ZN8nlohmann6detail9from_jsonINS_10basic_jsonISt3mapSt6vectorNSt7__cxx1112basic_stringIcSt11char_traitsIcESaIcEEEbxydSaNS_14adl_serializerES4_IhSaIhEEEEEEvRKT_RNSF_8string_tE @5932
    _ZN8nlohmann6detail9from_jsonINS_10basic_jsonISt3mapSt6vectorNSt7__cxx1112basic_stringIcSt11char_traitsIcESaIcEEEbxydSaNS_14adl_serializerES4_IhSaIhEEEEEEvRKT_RNSF_9boolean_tE @5933
    _ZN8nlohmann6detail9from_jsonINS_10basic_jsonISt3mapSt6vectorNSt7__cxx1112basic_stringIcSt11char_traitsIcESaIcEEEbxydSaNS_14adl_serializerES4_IhSaIhEEEEiLi0EEEvRKT_RT0_ @5934
    _ZN8nlohmann6detail9iter_implINS_10basic_jsonISt3mapSt6vectorNSt7__cxx1112basic_stringIcSt11char_traitsIcESaIcEEEbxydSaNS_14adl_serializerES4_IhSaIhEEEEE7set_endEv @5935
    _ZN8nlohmann6detail9iter_implINS_10basic_jsonISt3mapSt6vectorNSt7__cxx1112basic_stringIcSt11char_traitsIcESaIcEEEbxydSaNS_14adl_serializerES4_IhSaIhEEEEE9set_beginEv @5936
    _ZN8nlohmann6detail9iter_implINS_10basic_jsonISt3mapSt6vectorNSt7__cxx1112basic_stringIcSt11char_traitsIcESaIcEEEbxydSaNS_14adl_serializerES4_IhSaIhEEEEEC2EPSE_ @5937
    _ZN8nlohmann6detail9iter_implINS_10basic_jsonISt3mapSt6vectorNSt7__cxx1112basic_stringIcSt11char_traitsIcESaIcEEEbxydSaNS_14adl_serializerES4_IhSaIhEEEEEC2ERKSF_ @5938
    _ZN8nlohmann6detail9iter_implINS_10basic_jsonISt3mapSt6vectorNSt7__cxx1112basic_stringIcSt11char_traitsIcESaIcEEEbxydSaNS_14adl_serializerES4_IhSaIhEEEEEppEv @5939
    _ZN8nlohmann6detaileqENS0_20primitive_iterator_tES1_ @5940
    _ZN8nlohmanneqERKNS_10basic_jsonISt3mapSt6vectorNSt7__cxx1112basic_stringIcSt11char_traitsIcESaIcEEEbxydSaNS_14adl_serializerES2_IhSaIhEEEESE_ @5941
    _ZN8nlohmanneqIPKcLi0EEEbRKNS_10basic_jsonISt3mapSt6vectorNSt7__cxx1112basic_stringIcSt11char_traitsIcESaIcEEEbxydSaNS_14adl_serializerES5_IhSaIhEEEET_ @5942
    _ZN8nlohmannlsERSoRKNS_10basic_jsonISt3mapSt6vectorNSt7__cxx1112basic_stringIcSt11char_traitsIcESaIcEEEbxydSaNS_14adl_serializerES3_IhSaIhEEEE @5943
    _ZN8nlohmannrsERSiRNS_10basic_jsonISt3mapSt6vectorNSt7__cxx1112basic_stringIcSt11char_traitsIcESaIcEEEbxydSaNS_14adl_serializerES3_IhSaIhEEEE @5944
    _ZN9AmRxQueue10initializeEv @5945
    _ZN9AmRxQueue12moveRxWindowEi @5946
    _ZN9AmRxQueue13handleMessageEPN7omnetpp8cMessageE @5947
    _ZN9AmRxQueue16checkCompleteSduEi @5948
    _ZN9AmRxQueue16defragmentFramesERSt5dequeIPN4inet6PacketESaIS3_EE @5949
    _ZN9AmRxQueue16sendStatusReportEv @5950
    _ZN9AmRxQueue19totalCellRcvdBytes_E @5951 DATA
    _ZN9AmRxQueue5enqueEPN4inet6PacketE @5952
    _ZN9AmRxQueue6passUpEi @5953
    _ZN9AmRxQueue7discardEi @5954
    _ZN9AmRxQueueC1Ev @5955
    _ZN9AmRxQueueC2Ev @5956
    _ZN9AmRxQueueD0Ev @5957
    _ZN9AmRxQueueD1Ev @5958
    _ZN9AmRxQueueD2Ev @5959
    _ZN9AmTxQueue10initializeEv @5960
    _ZN9AmTxQueue10recvMrwAckEi @5961
    _ZN9AmTxQueue11checkForMrwEv @5962
    _ZN9AmTxQueue12moveTxWindowEi @5963
    _ZN9AmTxQueue13fragmentFrameEPN4inet6PacketERSt5dequeIiSaIiEE11RlcFragDesc @5964
    _ZN9AmTxQueue13handleMessageEPN7omnetpp8cMessageE @5965
    _ZN9AmTxQueue14mrwTimerHandleEi @5966
    _ZN9AmTxQueue14pduTimerHandleEi @5967
    _ZN9AmTxQueue16bufferControlPduEPN7omnetpp7cPacketE @5968
    _ZN9AmTxQueue17recvCumulativeAckEi @5969
    _ZN9AmTxQueue19handleControlPacketEPN7omnetpp7cPacketE @5970
    _ZN9AmTxQueue5enqueEPN4inet6PacketE @5971
    _ZN9AmTxQueue7addPdusEv @5972
    _ZN9AmTxQueue7discardEi @5973
    _ZN9AmTxQueue7recvAckEi @5974
    _ZN9AmTxQueue7sendMrwEi @5975
    _ZN9AmTxQueue8sendPdusEi @5976
    _ZN9AmTxQueue9bufferPduEPN7omnetpp7cPacketE @5977
    _ZN9AmTxQueueC1Ev @5978
    _ZN9AmTxQueueC2Ev @5979
    _ZN9AmTxQueueD0Ev @5980
    _ZN9AmTxQueueD1Ev @5981
    _ZN9AmTxQueueD2Ev @5982
    _ZN9BandLimitC2EOS_ @5983
    _ZN9BandLimitC2ERKS_ @5984
    _ZN9BandLimitC2Ev @5985
    _ZN9BandLimitD2Ev @5986
    _ZN9BandLimitaSERKS_ @5987
    _ZN9CbrPacket10setIDframeEj @5988
    _ZN9CbrPacket10setNframesEj @5989
    _ZN9CbrPacket12parsimUnpackEPN7omnetpp11cCommBufferE @5990
    _ZN9CbrPacket14setArrivalTimeEN7omnetpp7SimTimeE @5991
    _ZN9CbrPacket14setPayloadSizeEj @5992
    _ZN9CbrPacket19setPayloadTimestampEN7omnetpp7SimTimeE @5993
    _ZN9CbrPacket4copyERKS_ @5994
    _ZN9CbrPacketC1ERKS_ @5995
    _ZN9CbrPacketC1Ev @5996
    _ZN9CbrPacketC2ERKS_ @5997
    _ZN9CbrPacketC2Ev @5998
    _ZN9CbrPacketD0Ev @5999
    _ZN9CbrPacketD1Ev @6000
    _ZN9CbrPacketD2Ev @6001
    _ZN9CbrPacketaSERKS_ @6002
    _ZN9CbrSender10initializeEi @6003
    _ZN9CbrSender11initTrafficEv @6004
    _ZN9CbrSender13handleMessageEPN7omnetpp8cMessageE @6005
    _ZN9CbrSender13sendCbrPacketEv @6006
    _ZN9CbrSender17cbrSentPktSignal_E @6007 DATA
    _ZN9CbrSender24cbrGeneratedBytesSignal_E @6008 DATA
    _ZN9CbrSender30cbrGeneratedThroughtputSignal_E @6009 DATA
    _ZN9CbrSender6finishEv @6010
    _ZN9CbrSenderC1Ev @6011
    _ZN9CbrSenderC2Ev @6012
    _ZN9CbrSenderD0Ev @6013
    _ZN9CbrSenderD1Ev @6014
    _ZN9CbrSenderD2Ev @6015
    _ZN9DasFilter14setMasterRuSetEt @6016
    _ZN9DasFilter15getAntennaCoordEi @6017
    _ZN9DasFilter15getReportingSetEv @6018
    _ZN9DasFilter16receiveBroadcastEP11LteAirFrameP15UserControlInfo @6019
    _ZN9DasFilter17getAntennaTxPowerEi @6020
    _ZN9DasFilterC1EP10LtePhyBaseP6BinderP16RemoteAntennaSetd @6021
    _ZN9DasFilterC2EP10LtePhyBaseP6BinderP16RemoteAntennaSetd @6022
    _ZN9DasFilterD0Ev @6023
    _ZN9DasFilterD1Ev @6024
    _ZN9DasFilterD2Ev @6025
    _ZN9DeviceApp10initializeEi @6026
    _ZN9DeviceApp12socketClosedEPN4inet9TcpSocketE @6027
    _ZN9DeviceApp12socketClosedEPN4inet9UdpSocketE @6028
    _ZN9DeviceApp13handleMessageEPN7omnetpp8cMessageE @6029
    _ZN9DeviceApp13socketDeletedEPN4inet9TcpSocketE @6030
    _ZN9DeviceApp13socketFailureEPN4inet9TcpSocketEi @6031
    _ZN9DeviceApp15connectToUALCMPEv @6032
    _ZN9DeviceApp15socketAvailableEPN4inet9TcpSocketEPNS0_16TcpAvailableInfoE @6033
    _ZN9DeviceApp16socketPeerClosedEPN4inet9TcpSocketE @6034
    _ZN9DeviceApp17handleSelfMessageEPN7omnetpp8cMessageE @6035
    _ZN9DeviceApp17socketDataArrivedEPN4inet9TcpSocketEPNS0_6PacketEb @6036
    _ZN9DeviceApp17socketDataArrivedEPN4inet9UdpSocketEPNS0_6PacketE @6037
    _ZN9DeviceApp17socketEstablishedEPN4inet9TcpSocketE @6038
    _ZN9DeviceApp18sendStopAppContextEN4inet12IntrusivePtrIK15DeviceAppPacketEE @6039
    _ZN9DeviceApp18socketErrorArrivedEPN4inet9UdpSocketEPNS0_10IndicationE @6040
    _ZN9DeviceApp19handleUALCMPMessageEv @6041
    _ZN9DeviceApp19sendStartAppContextEN4inet12IntrusivePtrIK15DeviceAppPacketEE @6042
    _ZN9DeviceApp19socketStatusArrivedEPN4inet9TcpSocketEPNS0_13TcpStatusInfoE @6043
    _ZN9DeviceApp6finishEv @6044
    _ZN9DeviceAppC1Ev @6045
    _ZN9DeviceAppC2Ev @6046
    _ZN9DeviceAppD0Ev @6047
    _ZN9DeviceAppD1Ev @6048
    _ZN9DeviceAppD2Ev @6049
    _ZN9GtpUserX210initializeEi @6050
    _ZN9GtpUserX213handleFromUdpEPN4inet6PacketE @6051
    _ZN9GtpUserX213handleMessageEPN7omnetpp8cMessageE @6052
    _ZN9GtpUserX215handleFromStackEPN4inet6PacketE @6053
    _ZN9GtpUserX2C2Ev @6054
    _ZN9GtpUserX2D0Ev @6055
    _ZN9GtpUserX2D2Ev @6056
    _ZN9LteMacEnb10initializeEi @6057
    _ZN9LteMacEnb10macPduMakeEj @6058
    _ZN9LteMacEnb10sendGrantsEPSt3mapIdS0_ISt4pairIjtEjSt4lessIS2_ESaIS1_IKS2_jEEES3_IdESaIS1_IKdS8_EEE @6059
    _ZN9LteMacEnb11getCellInfoEv @6060
    _ZN9LteMacEnb12bufferizeBsrEP6MacBsrj @6061
    _ZN9LteMacEnb12deleteQueuesEt @6062
    _ZN9LteMacEnb12getActiveSetE9Direction @6063
    _ZN9LteMacEnb12macHandleRacEPN7omnetpp7cPacketE @6064
    _ZN9LteMacEnb12macPduUnmakeEPN7omnetpp7cPacketE @6065
    _ZN9LteMacEnb13handleMessageEPN7omnetpp8cMessageE @6066
    _ZN9LteMacEnb13macSduRequestEv @6067
    _ZN9LteMacEnb14getNumAntennasEv @6068
    _ZN9LteMacEnb14getUtilizationE9Direction @6069
    _ZN9LteMacEnb15bufferizePacketEPN7omnetpp7cPacketE @6070
    _ZN9LteMacEnb15getDlBandStatusEt @6071
    _ZN9LteMacEnb16flushHarqBuffersEv @6072
    _ZN9LteMacEnb16getConflictGraphEv @6073
    _ZN9LteMacEnb16getProcessForRtxEd9Direction @6074
    _ZN9LteMacEnb17handleSelfMessageEv @6075
    _ZN9LteMacEnb17isReuseD2DEnabledEv @6076
    _ZN9LteMacEnb17updateUserTxParamEPN7omnetpp7cPacketE @6077
    _ZN9LteMacEnb18getActiveUesNumberE9Direction @6078
    _ZN9LteMacEnb18getSchedDisciplineE9Direction @6079
    _ZN9LteMacEnb18handleUpperMessageEPN7omnetpp7cPacketE @6080
    _ZN9LteMacEnb19getDlPrevBandStatusEt @6081
    _ZN9LteMacEnb19signalProcessForRtxEtd9Directionb @6082
    _ZN9LteMacEnb20getBsrVirtualBuffersEv @6083
    _ZN9LteMacEnb20macHandleFeedbackPktEPN7omnetpp7cPacketE @6084
    _ZN9LteMacEnb22isReuseD2DMultiEnabledEv @6085
    _ZN9LteMacEnb27getBackgroundTrafficManagerEd @6086
    _ZN9LteMacEnb6getAmcEv @6087
    _ZN9LteMacEnbC1Ev @6088
    _ZN9LteMacEnbC2Ev @6089
    _ZN9LteMacEnbD0Ev @6090
    _ZN9LteMacEnbD1Ev @6091
    _ZN9LteMacEnbD2Ev @6092
    _ZN9LteMacPdu11numMacPdus_E @6093 DATA
    _ZN9LteMacPdu15setHeaderLengthEj @6094
    _ZN9LteMacPdu15setSduArraySizeEy @6095
    _ZN9LteMacPdu4copyERKS_ @6096
    _ZN9LteMacPdu5popCeEv @6097
    _ZN9LteMacPdu6popSduEv @6098
    _ZN9LteMacPdu6pushCeEP17MacControlElement @6099
    _ZN9LteMacPdu6setSduEyRKN4inet6PacketE @6100
    _ZN9LteMacPdu7pushSduEPN4inet6PacketE @6101
    _ZN9LteMacPdu8eraseSduEy @6102
    _ZN9LteMacPdu9appendSduERKN4inet6PacketE @6103
    _ZN9LteMacPdu9insertSduEyRKN4inet6PacketE @6104
    _ZN9LteMacPduC2ERKS_ @6105
    _ZN9LteMacPduC2Ev @6106
    _ZN9LteMacPduD0Ev @6107
    _ZN9LteMacPduD2Ev @6108
    _ZN9LtePhyEnb10initializeEi @6109
    _ZN9LtePhyEnb12getDasFilterEv @6110
    _ZN9LtePhyEnb14handleAirFrameEPN7omnetpp8cMessageE @6111
    _ZN9LtePhyEnb15requestFeedbackEP15UserControlInfoP11LteAirFramePN4inet6PacketE @6112
    _ZN9LtePhyEnb16handleControlPktEP15UserControlInfoP11LteAirFrame @6113
    _ZN9LtePhyEnb17handleFeedbackPktEP15UserControlInfoP11LteAirFrame @6114
    _ZN9LtePhyEnb17handleSelfMessageEPN7omnetpp8cMessageE @6115
    _ZN9LtePhyEnb29initializeFeedbackComputationEv @6116
    _ZN9LtePhyEnb30getFeedbackComputationFromNameENSt7__cxx1112basic_stringIcSt11char_traitsIcESaIcEEERSt3mapIS5_N7omnetpp7cMsgParESt4lessIS5_ESaISt4pairIKS5_S8_EEE @6117
    _ZN9LtePhyEnbC1Ev @6118
    _ZN9LtePhyEnbC2Ev @6119
    _ZN9LtePhyEnbD0Ev @6120
    _ZN9LtePhyEnbD1Ev @6121
    _ZN9LtePhyEnbD2Ev @6122
    _ZN9LteRlcMux10initializeEv @6123
    _ZN9LteRlcMux13handleMessageEPN7omnetpp8cMessageE @6124
    _ZN9LteRlcMux6finishEv @6125
    _ZN9LteRlcMux7mac2rlcEPN7omnetpp7cPacketE @6126
    _ZN9LteRlcMux7rlc2macEPN7omnetpp7cPacketE @6127
    _ZN9LteRlcMuxC2Ev @6128
    _ZN9LteRlcMuxD0Ev @6129
    _ZN9LteRlcMuxD2Ev @6130
    _ZN9LteRlcPdu12parsimUnpackEPN7omnetpp11cCommBufferE @6131
    _ZN9LteRlcPdu14setSnoFragmentEj @6132
    _ZN9LteRlcPdu16setSnoMainPacketEj @6133
    _ZN9LteRlcPdu17setTotalFragmentsEj @6134
    _ZN9LteRlcPdu4copyERKS_ @6135
    _ZN9LteRlcPduC1ERKS_ @6136
    _ZN9LteRlcPduC1Ev @6137
    _ZN9LteRlcPduC2ERKS_ @6138
    _ZN9LteRlcPduC2Ev @6139
    _ZN9LteRlcPduD0Ev @6140
    _ZN9LteRlcPduD1Ev @6141
    _ZN9LteRlcPduD2Ev @6142
    _ZN9LteRlcPduaSERKS_ @6143
    _ZN9LteRlcSdu12parsimUnpackEPN7omnetpp11cCommBufferE @6144
    _ZN9LteRlcSdu16setSnoMainPacketEj @6145
    _ZN9LteRlcSdu19setLengthMainPacketEj @6146
    _ZN9LteRlcSdu4copyERKS_ @6147
    _ZN9LteRlcSduC1ERKS_ @6148
    _ZN9LteRlcSduC1Ev @6149
    _ZN9LteRlcSduC2ERKS_ @6150
    _ZN9LteRlcSduC2Ev @6151
    _ZN9LteRlcSduD0Ev @6152
    _ZN9LteRlcSduD1Ev @6153
    _ZN9LteRlcSduD2Ev @6154
    _ZN9LteRlcSduaSERKS_ @6155
    _ZN9M1Message12parsimUnpackEPN7omnetpp11cCommBufferE @6156
    _ZN9M1Message12setNumPkSentEl @6157
    _ZN9M1Message13setClientAddrERKN4inet9L3AddressE @6158
    _ZN9M1Message13setClientPortEi @6159
    _ZN9M1Message22getClientAddrForUpdateEv @6160
    _ZN9M1Message4copyERKS_ @6161
    _ZN9M1MessageC1EPKcs @6162
    _ZN9M1MessageC1ERKS_ @6163
    _ZN9M1MessageC2EPKcs @6164
    _ZN9M1MessageC2ERKS_ @6165
    _ZN9M1MessageD0Ev @6166
    _ZN9M1MessageD1Ev @6167
    _ZN9M1MessageD2Ev @6168
    _ZN9M1MessageaSERKS_ @6169
    _ZN9MECPacket12parsimUnpackEPN7omnetpp11cCommBufferE @6170
    _ZN9MECPacket12setTimestampEN7omnetpp7SimTimeE @6171
    _ZN9MECPacket4copyERKS_ @6172
    _ZN9MECPacket6setSnoEj @6173
    _ZN9MECPacket7setTypeEPKc @6174
    _ZN9MECPacketC1ERKS_ @6175
    _ZN9MECPacketC1Ev @6176
    _ZN9MECPacketC2ERKS_ @6177
    _ZN9MECPacketC2Ev @6178
    _ZN9MECPacketD0Ev @6179
    _ZN9MECPacketD1Ev @6180
    _ZN9MECPacketD2Ev @6181
    _ZN9MECPacketaSERKS_ @6182
    _ZN9NRMCSelemC2E6LteModd @6183
    _ZN9TTimerMsg10setTimerIdEj @6184
    _ZN9TTimerMsg12parsimUnpackEPN7omnetpp11cCommBufferE @6185
    _ZN9TTimerMsg4copyERKS_ @6186
    _ZN9TTimerMsg7setTypeEt @6187
    _ZN9TTimerMsgC1EPKcs @6188
    _ZN9TTimerMsgC1ERKS_ @6189
    _ZN9TTimerMsgC2EPKcs @6190
    _ZN9TTimerMsgC2ERKS_ @6191
    _ZN9TTimerMsgD0Ev @6192
    _ZN9TTimerMsgD1Ev @6193
    _ZN9TTimerMsgD2Ev @6194
    _ZN9TTimerMsgaSERKS_ @6195
    _ZN9TimeStamp10setSecondsEi @6196
    _ZN9TimeStamp10setSecondsEv @6197
    _ZN9TimeStamp14setNanoSecondsEi @6198
    _ZN9TimeStamp8setValidEb @6199
    _ZN9TimeStampC1Eb @6200
    _ZN9TimeStampC1Ev @6201
    _ZN9TimeStampC2ERKS_ @6202
    _ZN9TimeStampC2Eb @6203
    _ZN9TimeStampC2Ev @6204
    _ZN9TimeStampD0Ev @6205
    _ZN9TimeStampD1Ev @6206
    _ZN9TimeStampD2Ev @6207
    _ZN9UALCMPApp10initializeEi @6208
    _ZN9UALCMPApp16LcmRequestStatusC2Ev @6209
    _ZN9UALCMPApp16LcmRequestStatusD2Ev @6210
    _ZN9UALCMPApp16LcmRequestStatusaSEOS0_ @6211
    _ZN9UALCMPApp16handleGETRequestEPK18HttpRequestMessagePN4inet9TcpSocketE @6212
    _ZN9UALCMPApp16handlePUTRequestEPK18HttpRequestMessagePN4inet9TcpSocketE @6213
    _ZN9UALCMPApp17handlePOSTRequestEPK18HttpRequestMessagePN4inet9TcpSocketE @6214
    _ZN9UALCMPApp19handleDELETERequestEPK18HttpRequestMessagePN4inet9TcpSocketE @6215
    _ZN9UALCMPApp19handleMessageWhenUpEPN7omnetpp8cMessageE @6216
    _ZN9UALCMPApp20handleStartOperationEPN4inet18LifecycleOperationE @6217
    _ZN9UALCMPApp25parseContextCreateRequestERKN8nlohmann10basic_jsonISt3mapSt6vectorNSt7__cxx1112basic_stringIcSt11char_traitsIcESaIcEEEbxydSaNS0_14adl_serializerES3_IhSaIhEEEE @6218
    _ZN9UALCMPApp32handleCreateContextAppAckMessageEP13UALCMPMessage @6219
    _ZN9UALCMPApp32handleDeleteContextAppAckMessageEP13UALCMPMessage @6220
    _ZN9UALCMPApp6finishEv @6221
    _ZN9UALCMPAppC1Ev @6222
    _ZN9UALCMPAppC2Ev @6223
    _ZN9UALCMPAppD0Ev @6224
    _ZN9UALCMPAppD1Ev @6225
    _ZN9UALCMPAppD2Ev @6226
    _ZN9VoDPacket12parsimUnpackEPN7omnetpp11cCommBufferE @6227
    _ZN9VoDPacket14setFrameLengthEi @6228
    _ZN9VoDPacket14setFrameSeqNumEi @6229
    _ZN9VoDPacket19setPayloadTimestampEN7omnetpp7SimTimeE @6230
    _ZN9VoDPacket4copyERKS_ @6231
    _ZN9VoDPacket6setQidEi @6232
    _ZN9VoDPacket6setTidEi @6233
    _ZN9VoDPacketC1ERKS_ @6234
    _ZN9VoDPacketC1Ev @6235
    _ZN9VoDPacketC2ERKS_ @6236
    _ZN9VoDPacketC2Ev @6237
    _ZN9VoDPacketD0Ev @6238
    _ZN9VoDPacketD1Ev @6239
    _ZN9VoDPacketD2Ev @6240
    _ZN9VoDPacketaSERKS_ @6241
    _ZN9X2CompMsgC1ERKS_ @6242
    _ZN9X2CompMsgC1Ev @6243
    _ZN9X2CompMsgC2ERKS_ @6244
    _ZN9X2CompMsgC2Ev @6245
    _ZN9X2CompMsgD0Ev @6246
    _ZN9X2CompMsgD1Ev @6247
    _ZN9X2CompMsgD2Ev @6248
    _ZN9X2CompMsgaSERKS_ @6249
    _ZN9__gnu_cxx12__to_xstringINSt7__cxx1112basic_stringIcSt11char_traitsIcESaIcEEEcEET_PFiPT0_yPKS8_PcEySB_z @6250
    _ZN9__gnu_cxx14__alloc_traitsISaI11LteFeedbackES1_E17_S_select_on_copyERKS2_ @6251
    _ZN9__gnu_cxx14__alloc_traitsISaI12CompRbStatusES1_E17_S_select_on_copyERKS2_ @6252
    _ZN9__gnu_cxx14__alloc_traitsISaI12UserTxParamsES1_E17_S_select_on_copyERKS2_ @6253
    _ZN9__gnu_cxx14__alloc_traitsISaI15TxHarqPduStatusES1_E17_S_select_on_copyERKS2_ @6254
    _ZN9__gnu_cxx14__alloc_traitsISaI16LteSummaryBufferES1_E17_S_select_on_copyERKS2_ @6255
    _ZN9__gnu_cxx14__alloc_traitsISaI16TerminalLocationES1_E17_S_select_on_copyERKS2_ @6256
    _ZN9__gnu_cxx14__alloc_traitsISaI17RemoteUnitPhyDataES1_E17_S_select_on_copyERKS2_ @6257
    _ZN9__gnu_cxx14__alloc_traitsISaIN4inet14MulticastGroupEES2_E17_S_select_on_copyERKS3_ @6258
    _ZN9__gnu_cxx14__alloc_traitsISaIN7omnetpp7SimTimeEES2_E17_S_select_on_copyERKS3_ @6259
    _ZN9__gnu_cxx14__alloc_traitsISaIN8nlohmann10basic_jsonINS1_11ordered_mapESt6vectorNSt7__cxx1112basic_stringIcSt11char_traitsIcESaIcEEEbxydSaNS1_14adl_serializerES4_IhSaIhEEEEESE_E17_S_select_on_copyERKSF_ @6260
    _ZN9__gnu_cxx14__alloc_traitsISaIN8nlohmann10basic_jsonISt3mapSt6vectorNSt7__cxx1112basic_stringIcSt11char_traitsIcESaIcEEEbxydSaNS1_14adl_serializerES4_IhSaIhEEEEESE_E17_S_select_on_copyERKSF_ @6261
    _ZN9__gnu_cxx14__alloc_traitsISaIP7ExtCellES2_E17_S_select_on_copyERKS3_ @6262
    _ZN9__gnu_cxx14__alloc_traitsISaIPN15IChannelControl10RadioEntryEES3_E17_S_select_on_copyERKS4_ @6263
    _ZN9__gnu_cxx14__alloc_traitsISaISt10_List_nodeI11LteFeedbackEES3_E17_S_select_on_copyERKS4_ @6264
    _ZN9__gnu_cxx14__alloc_traitsISaISt10_List_nodeIP17MacControlElementEES4_E17_S_select_on_copyERKS5_ @6265
    _ZN9__gnu_cxx14__alloc_traitsISaISt10_List_nodeIP20X2InformationElementEES4_E17_S_select_on_copyERKS5_ @6266
    _ZN9__gnu_cxx14__alloc_traitsISaISt10_List_nodeISt4pairIiN7omnetpp7SimTimeEEEES6_E17_S_select_on_copyERKS7_ @6267
    _ZN9__gnu_cxx14__alloc_traitsISaISt10_List_nodeItEES2_E17_S_select_on_copyERKS3_ @6268
    _ZN9__gnu_cxx14__alloc_traitsISaISt13_Rb_tree_nodeI6RemoteEES3_E17_S_select_on_copyERKS4_ @6269
    _ZN9__gnu_cxx14__alloc_traitsISaISt13_Rb_tree_nodeIPN15IChannelControl10RadioEntryEEES5_E17_S_select_on_copyERKS6_ @6270
    _ZN9__gnu_cxx14__alloc_traitsISaISt13_Rb_tree_nodeISt4pairIK6RemoteSt3mapItjSt4lessItESaIS2_IKtjEEEEEESD_E17_S_select_on_copyERKSE_ @6271
    _ZN9__gnu_cxx14__alloc_traitsISaISt13_Rb_tree_nodeISt4pairIK6RemoteSt6vectorIS5_I16LteSummaryBufferSaIS6_EESaIS8_EEEEESC_E17_S_select_on_copyERKSD_ @6272
    _ZN9__gnu_cxx14__alloc_traitsISaISt13_Rb_tree_nodeISt4pairIK6RemoteiEEES6_E17_S_select_on_copyERKS7_ @6273
    _ZN9__gnu_cxx14__alloc_traitsISaISt13_Rb_tree_nodeISt4pairIKNSt7__cxx1112basic_stringIcSt11char_traitsIcESaIcEEEN8nlohmann10basic_jsonISt3mapSt6vectorS8_bxydSaNSA_14adl_serializerESD_IhSaIhEEEEEEESJ_E17_S_select_on_copyERKSK_ @6274
    _ZN9__gnu_cxx14__alloc_traitsISaISt13_Rb_tree_nodeISt4pairIKNSt7__cxx1112basic_stringIcSt11char_traitsIcESaIcEEES8_EEESB_E17_S_select_on_copyERKSC_ @6275
    _ZN9__gnu_cxx14__alloc_traitsISaISt13_Rb_tree_nodeISt4pairIKS2_IjtEjEEES6_E17_S_select_on_copyERKS7_ @6276
    _ZN9__gnu_cxx14__alloc_traitsISaISt13_Rb_tree_nodeISt4pairIKjjEEES5_E17_S_select_on_copyERKS6_ @6277
    _ZN9__gnu_cxx14__alloc_traitsISaISt13_Rb_tree_nodeISt4pairIKt23AllocatedRbsPerBandInfoEEES6_E17_S_select_on_copyERKS7_ @6278
    _ZN9__gnu_cxx14__alloc_traitsISaISt13_Rb_tree_nodeISt4pairIKtN19LteAllocationModule23AllocatedRbsPerBandInfoEEEES7_E17_S_select_on_copyERKS8_ @6279
    _ZN9__gnu_cxx14__alloc_traitsISaISt13_Rb_tree_nodeISt4pairIKtN21MultihopD2DStatistics15ReceptionStatusEEEES7_E17_S_select_on_copyERKS8_ @6280
    _ZN9__gnu_cxx14__alloc_traitsISaISt13_Rb_tree_nodeISt4pairIKtP15LteHarqBufferRxEEES7_E17_S_select_on_copyERKS8_ @6281
    _ZN9__gnu_cxx14__alloc_traitsISaISt13_Rb_tree_nodeISt4pairIKtP15LteHarqBufferTxEEES7_E17_S_select_on_copyERKS8_ @6282
    _ZN9__gnu_cxx14__alloc_traitsISaISt13_Rb_tree_nodeISt4pairIKtSt3mapI6RemoteSt6vectorIS6_I16LteSummaryBufferSaIS7_EESaIS9_EESt4lessIS5_ESaIS2_IKS5_SB_EEEEEESJ_E17_S_select_on_copyERKSK_ @6283
    _ZN9__gnu_cxx14__alloc_traitsISaISt13_Rb_tree_nodeISt4pairIKtSt6vectorIS4_I11LteFeedbackSaIS5_EESaIS7_EEEEESB_E17_S_select_on_copyERKSC_ @6284
    _ZN9__gnu_cxx14__alloc_traitsISaISt13_Rb_tree_nodeISt4pairIKtbEEES5_E17_S_select_on_copyERKS6_ @6285
    _ZN9__gnu_cxx14__alloc_traitsISaISt13_Rb_tree_nodeISt4pairIKtjEEES5_E17_S_select_on_copyERKS6_ @6286
    _ZN9__gnu_cxx14__alloc_traitsISaISt13_Rb_tree_nodeIiEES2_E17_S_select_on_copyERKS3_ @6287
    _ZN9__gnu_cxx14__alloc_traitsISaISt13_Rb_tree_nodeIjEES2_E17_S_select_on_copyERKS3_ @6288
    _ZN9__gnu_cxx14__alloc_traitsISaISt13_Rb_tree_nodeItEES2_E17_S_select_on_copyERKS3_ @6289
    _ZN9__gnu_cxx14__alloc_traitsISaISt3mapIt23AllocatedRbsPerBandInfoSt4lessItESaISt4pairIKtS2_EEEES9_E17_S_select_on_copyERKSA_ @6290
    _ZN9__gnu_cxx14__alloc_traitsISaISt3mapItN19LteAllocationModule23AllocatedRbsPerBandInfoESt4lessItESaISt4pairIKtS3_EEEESA_E17_S_select_on_copyERKSB_ @6291
    _ZN9__gnu_cxx14__alloc_traitsISaISt4pairIKNSt7__cxx1112basic_stringIcSt11char_traitsIcESaIcEEEN8nlohmann10basic_jsonINS9_11ordered_mapESt6vectorS7_bxydSaNS9_14adl_serializerESC_IhSaIhEEEEEESH_E17_S_select_on_copyERKSI_ @6292
    _ZN9__gnu_cxx14__alloc_traitsISaISt6vectorI11LteFeedbackSaIS2_EEES4_E17_S_select_on_copyERKS5_ @6293
    _ZN9__gnu_cxx14__alloc_traitsISaISt6vectorI16LteSummaryBufferSaIS2_EEES4_E17_S_select_on_copyERKS5_ @6294
    _ZN9__gnu_cxx14__alloc_traitsISaISt6vectorIN7omnetpp7SimTimeESaIS3_EEES5_E17_S_select_on_copyERKS6_ @6295
    _ZN9__gnu_cxx14__alloc_traitsISaISt6vectorISt3mapIt23AllocatedRbsPerBandInfoSt4lessItESaISt4pairIKtS3_EEESaISA_EEESC_E17_S_select_on_copyERKSD_ @6296
    _ZN9__gnu_cxx14__alloc_traitsISaISt6vectorItSaItEEES3_E17_S_select_on_copyERKS4_ @6297
    _ZN9__gnu_cxx14__alloc_traitsISaIcEcE17_S_select_on_copyERKS1_ @6298
    _ZN9__gnu_cxx14__alloc_traitsISaIdEdE17_S_select_on_copyERKS1_ @6299
    _ZN9__gnu_cxx14__alloc_traitsISaIhEhE17_S_select_on_copyERKS1_ @6300
    _ZN9__gnu_cxx14__alloc_traitsISaIiEiE17_S_select_on_copyERKS1_ @6301
    _ZN9__gnu_cxx14__alloc_traitsISaImEmE17_S_select_on_copyERKS1_ @6302
    _ZN9__gnu_cxx14__alloc_traitsISaItEtE17_S_select_on_copyERKS1_ @6303
    _ZN9__gnu_cxx16__aligned_bufferIN8nlohmann6detail21output_stream_adapterIcEEE6_M_ptrEv @6304
    _ZN9__gnu_cxx16__aligned_bufferIN8nlohmann6detail21output_stream_adapterIcEEE7_M_addrEv @6305
    _ZN9__gnu_cxx16__aligned_bufferIN8nlohmann6detail21output_string_adapterIcNSt7__cxx1112basic_stringIcSt11char_traitsIcESaIcEEEEEE6_M_ptrEv @6306
    _ZN9__gnu_cxx16__aligned_bufferIN8nlohmann6detail21output_string_adapterIcNSt7__cxx1112basic_stringIcSt11char_traitsIcESaIcEEEEEE7_M_addrEv @6307
    _ZN9__gnu_cxx16__aligned_membufI11LteFeedbackE6_M_ptrEv @6308
    _ZN9__gnu_cxx16__aligned_membufI11LteFeedbackE7_M_addrEv @6309
    _ZN9__gnu_cxx16__aligned_membufI14AllocationElemE6_M_ptrEv @6310
    _ZN9__gnu_cxx16__aligned_membufI14AllocationElemE7_M_addrEv @6311
    _ZN9__gnu_cxx16__aligned_membufI6RemoteE6_M_ptrEv @6312
    _ZN9__gnu_cxx16__aligned_membufI6RemoteE7_M_addrEv @6313
    _ZN9__gnu_cxx16__aligned_membufIN15IChannelControl10RadioEntryEE6_M_ptrEv @6314
    _ZN9__gnu_cxx16__aligned_membufIN15IChannelControl10RadioEntryEE7_M_addrEv @6315
    _ZN9__gnu_cxx16__aligned_membufIN19LteAllocationModule14AllocationElemEE6_M_ptrEv @6316
    _ZN9__gnu_cxx16__aligned_membufIN19LteAllocationModule14AllocationElemEE7_M_addrEv @6317
    _ZN9__gnu_cxx16__aligned_membufIN20D2DModeSelectionBase12FlowModeInfoEE6_M_ptrEv @6318
    _ZN9__gnu_cxx16__aligned_membufIN20D2DModeSelectionBase12FlowModeInfoEE7_M_addrEv @6319
    _ZN9__gnu_cxx16__aligned_membufIN4inet11Ipv4AddressEE6_M_ptrEv @6320
    _ZN9__gnu_cxx16__aligned_membufIN4inet11Ipv4AddressEE7_M_addrEv @6321
    _ZN9__gnu_cxx16__aligned_membufIN4inet9L3AddressEE6_M_ptrEv @6322
    _ZN9__gnu_cxx16__aligned_membufIN4inet9L3AddressEE7_M_addrEv @6323
    _ZN9__gnu_cxx16__aligned_membufINSt7__cxx1112basic_stringIcSt11char_traitsIcESaIcEEEE6_M_ptrEv @6324
    _ZN9__gnu_cxx16__aligned_membufINSt7__cxx1112basic_stringIcSt11char_traitsIcESaIcEEEE7_M_addrEv @6325
    _ZN9__gnu_cxx16__aligned_membufIP10UmTxEntityE6_M_ptrEv @6326
    _ZN9__gnu_cxx16__aligned_membufIP10UmTxEntityE7_M_addrEv @6327
    _ZN9__gnu_cxx16__aligned_membufIP10VoipPacketE6_M_ptrEv @6328
    _ZN9__gnu_cxx16__aligned_membufIP10VoipPacketE7_M_addrEv @6329
    _ZN9__gnu_cxx16__aligned_membufIP13SocketManagerE6_M_ptrEv @6330
    _ZN9__gnu_cxx16__aligned_membufIP13SocketManagerE7_M_addrEv @6331
    _ZN9__gnu_cxx16__aligned_membufIP17MacControlElementE6_M_ptrEv @6332
    _ZN9__gnu_cxx16__aligned_membufIP17MacControlElementE7_M_addrEv @6333
    _ZN9__gnu_cxx16__aligned_membufIP20X2InformationElementE6_M_ptrEv @6334
    _ZN9__gnu_cxx16__aligned_membufIP20X2InformationElementE7_M_addrEv @6335
    _ZN9__gnu_cxx16__aligned_membufIP8AirFrameE6_M_ptrEv @6336
    _ZN9__gnu_cxx16__aligned_membufIP8AirFrameE7_M_addrEv @6337
    _ZN9__gnu_cxx16__aligned_membufIPN15IChannelControl10RadioEntryEE6_M_ptrEv @6338
    _ZN9__gnu_cxx16__aligned_membufIPN15IChannelControl10RadioEntryEE7_M_addrEv @6339
    _ZN9__gnu_cxx16__aligned_membufIPN4inet6PacketEE6_M_ptrEv @6340
    _ZN9__gnu_cxx16__aligned_membufIPN4inet6PacketEE7_M_addrEv @6341
    _ZN9__gnu_cxx16__aligned_membufIPN7omnetpp7cModuleEE6_M_ptrEv @6342
    _ZN9__gnu_cxx16__aligned_membufIPN7omnetpp7cModuleEE7_M_addrEv @6343
    _ZN9__gnu_cxx16__aligned_membufISt4pairIK15LteTrafficClassS1_IjP12LteMacBufferEEE6_M_ptrEv @6344
    _ZN9__gnu_cxx16__aligned_membufISt4pairIK15LteTrafficClassS1_IjP12LteMacBufferEEE7_M_addrEv @6345
    _ZN9__gnu_cxx16__aligned_membufISt4pairIK16LteX2MessageTypeiEE6_M_ptrEv @6346
    _ZN9__gnu_cxx16__aligned_membufISt4pairIK16LteX2MessageTypeiEE7_M_addrEv @6347
    _ZN9__gnu_cxx16__aligned_membufISt4pairIK6RemoteSt3mapItNSt7__cxx114listI14AllocationElemSaIS7_EEESt4lessItESaIS1_IKtS9_EEEEE6_M_ptrEv @6348
    _ZN9__gnu_cxx16__aligned_membufISt4pairIK6RemoteSt3mapItNSt7__cxx114listI14AllocationElemSaIS7_EEESt4lessItESaIS1_IKtS9_EEEEE7_M_addrEv @6349
    _ZN9__gnu_cxx16__aligned_membufISt4pairIK6RemoteSt3mapItNSt7__cxx114listIN19LteAllocationModule14AllocationElemESaIS8_EEESt4lessItESaIS1_IKtSA_EEEEE6_M_ptrEv @6350
    _ZN9__gnu_cxx16__aligned_membufISt4pairIK6RemoteSt3mapItNSt7__cxx114listIN19LteAllocationModule14AllocationElemESaIS8_EEESt4lessItESaIS1_IKtSA_EEEEE7_M_addrEv @6351
    _ZN9__gnu_cxx16__aligned_membufISt4pairIK6RemoteSt3mapItjSt4lessItESaIS1_IKtjEEEEE6_M_ptrEv @6352
    _ZN9__gnu_cxx16__aligned_membufISt4pairIK6RemoteSt3mapItjSt4lessItESaIS1_IKtjEEEEE7_M_addrEv @6353
    _ZN9__gnu_cxx16__aligned_membufISt4pairIK6RemoteSt6vectorIS4_I16LteSummaryBufferSaIS5_EESaIS7_EEEE6_M_ptrEv @6354
    _ZN9__gnu_cxx16__aligned_membufISt4pairIK6RemoteSt6vectorIS4_I16LteSummaryBufferSaIS5_EESaIS7_EEEE7_M_addrEv @6355
    _ZN9__gnu_cxx16__aligned_membufISt4pairIK6RemoteiEE6_M_ptrEv @6356
    _ZN9__gnu_cxx16__aligned_membufISt4pairIK6RemoteiEE7_M_addrEv @6357
    _ZN9__gnu_cxx16__aligned_membufISt4pairIK6RemotejEE6_M_ptrEv @6358
    _ZN9__gnu_cxx16__aligned_membufISt4pairIK6RemotejEE7_M_addrEv @6359
    _ZN9__gnu_cxx16__aligned_membufISt4pairIK8CGVertexSt3mapIS2_bSt4lessIS2_ESaIS1_IS3_bEEEEE6_M_ptrEv @6360
    _ZN9__gnu_cxx16__aligned_membufISt4pairIK8CGVertexSt3mapIS2_bSt4lessIS2_ESaIS1_IS3_bEEEEE7_M_addrEv @6361
    _ZN9__gnu_cxx16__aligned_membufISt4pairIK8CGVertexbEE6_M_ptrEv @6362
    _ZN9__gnu_cxx16__aligned_membufISt4pairIK8CGVertexbEE7_M_addrEv @6363
    _ZN9__gnu_cxx16__aligned_membufISt4pairIKN4inet11Ipv4AddressEtEE6_M_ptrEv @6364
    _ZN9__gnu_cxx16__aligned_membufISt4pairIKN4inet11Ipv4AddressEtEE7_M_addrEv @6365
    _ZN9__gnu_cxx16__aligned_membufISt4pairIKN4inet9L3AddressES3_EE6_M_ptrEv @6366
    _ZN9__gnu_cxx16__aligned_membufISt4pairIKN4inet9L3AddressES3_EE7_M_addrEv @6367
    _ZN9__gnu_cxx16__aligned_membufISt4pairIKN4inet9L3AddressEbEE6_M_ptrEv @6368
    _ZN9__gnu_cxx16__aligned_membufISt4pairIKN4inet9L3AddressEbEE7_M_addrEv @6369
    _ZN9__gnu_cxx16__aligned_membufISt4pairIKN7omnetpp7SimTimeEKjEE6_M_ptrEv @6370
    _ZN9__gnu_cxx16__aligned_membufISt4pairIKN7omnetpp7SimTimeEKjEE7_M_addrEv @6371
    _ZN9__gnu_cxx16__aligned_membufISt4pairIKNSt7__cxx1112basic_stringIcSt11char_traitsIcESaIcEEE21ApplicationDescriptorEE6_M_ptrEv @6372
    _ZN9__gnu_cxx16__aligned_membufISt4pairIKNSt7__cxx1112basic_stringIcSt11char_traitsIcESaIcEEE21ApplicationDescriptorEE7_M_addrEv @6373
    _ZN9__gnu_cxx16__aligned_membufISt4pairIKNSt7__cxx1112basic_stringIcSt11char_traitsIcESaIcEEEN7omnetpp7cMsgParEEE6_M_ptrEv @6374
    _ZN9__gnu_cxx16__aligned_membufISt4pairIKNSt7__cxx1112basic_stringIcSt11char_traitsIcESaIcEEEN7omnetpp7cMsgParEEE7_M_addrEv @6375
    _ZN9__gnu_cxx16__aligned_membufISt4pairIKNSt7__cxx1112basic_stringIcSt11char_traitsIcESaIcEEEN8nlohmann10basic_jsonISt3mapSt6vectorS7_bxydSaNS9_14adl_serializerESC_IhSaIhEEEEEE6_M_ptrEv @6376
    _ZN9__gnu_cxx16__aligned_membufISt4pairIKNSt7__cxx1112basic_stringIcSt11char_traitsIcESaIcEEEN8nlohmann10basic_jsonISt3mapSt6vectorS7_bxydSaNS9_14adl_serializerESC_IhSaIhEEEEEE7_M_addrEv @6377
    _ZN9__gnu_cxx16__aligned_membufISt4pairIKNSt7__cxx1112basic_stringIcSt11char_traitsIcESaIcEEES7_EE6_M_ptrEv @6378
    _ZN9__gnu_cxx16__aligned_membufISt4pairIKNSt7__cxx1112basic_stringIcSt11char_traitsIcESaIcEEES7_EE7_M_addrEv @6379
    _ZN9__gnu_cxx16__aligned_membufISt4pairIKNSt7__cxx1112basic_stringIcSt11char_traitsIcESaIcEEESt6vectorIS7_SaIS7_EEEE6_M_ptrEv @6380
    _ZN9__gnu_cxx16__aligned_membufISt4pairIKNSt7__cxx1112basic_stringIcSt11char_traitsIcESaIcEEESt6vectorIS7_SaIS7_EEEE7_M_addrEv @6381
    _ZN9__gnu_cxx16__aligned_membufISt4pairIKS1_IjtEjEE6_M_ptrEv @6382
    _ZN9__gnu_cxx16__aligned_membufISt4pairIKS1_IjtEjEE7_M_addrEv @6383
    _ZN9__gnu_cxx16__aligned_membufISt4pairIKS1_IttEP22LteHarqBufferMirrorD2DEE6_M_ptrEv @6384
    _ZN9__gnu_cxx16__aligned_membufISt4pairIKS1_IttEP22LteHarqBufferMirrorD2DEE7_M_addrEv @6385
    _ZN9__gnu_cxx16__aligned_membufISt4pairIKS1_IttEPN4inet6PacketEEE6_M_ptrEv @6386
    _ZN9__gnu_cxx16__aligned_membufISt4pairIKS1_IttEPN4inet6PacketEEE7_M_addrEv @6387
    _ZN9__gnu_cxx16__aligned_membufISt4pairIKS1_IttES1_IjjEEE6_M_ptrEv @6388
    _ZN9__gnu_cxx16__aligned_membufISt4pairIKS1_IttES1_IjjEEE7_M_addrEv @6389
    _ZN9__gnu_cxx16__aligned_membufISt4pairIKd11CarrierInfoEE6_M_ptrEv @6390
    _ZN9__gnu_cxx16__aligned_membufISt4pairIKd11CarrierInfoEE7_M_addrEv @6391
    _ZN9__gnu_cxx16__aligned_membufISt4pairIKdN4inet12IntrusivePtrIK18LteSchedulingGrantEEEE6_M_ptrEv @6392
    _ZN9__gnu_cxx16__aligned_membufISt4pairIKdN4inet12IntrusivePtrIK18LteSchedulingGrantEEEE7_M_addrEv @6393
    _ZN9__gnu_cxx16__aligned_membufISt4pairIKdP15LteChannelModelEE6_M_ptrEv @6394
    _ZN9__gnu_cxx16__aligned_membufISt4pairIKdP15LteChannelModelEE7_M_addrEv @6395
    _ZN9__gnu_cxx16__aligned_membufISt4pairIKdP16LteSchedulerUeUlEE6_M_ptrEv @6396
    _ZN9__gnu_cxx16__aligned_membufISt4pairIKdP16LteSchedulerUeUlEE7_M_addrEv @6397
    _ZN9__gnu_cxx16__aligned_membufISt4pairIKdP24BackgroundTrafficManagerEE6_M_ptrEv @6398
    _ZN9__gnu_cxx16__aligned_membufISt4pairIKdP24BackgroundTrafficManagerEE7_M_addrEv @6399
    _ZN9__gnu_cxx16__aligned_membufISt4pairIKdPSt3mapIS1_IjtEjSt4lessIS4_ESaIS1_IKS4_jEEEEE6_M_ptrEv @6400
    _ZN9__gnu_cxx16__aligned_membufISt4pairIKdPSt3mapIS1_IjtEjSt4lessIS4_ESaIS1_IKS4_jEEEEE7_M_addrEv @6401
    _ZN9__gnu_cxx16__aligned_membufISt4pairIKdSt3mapI6RemoteSt6vectorIS5_I16LteSummaryBufferSaIS6_EESaIS8_EESt4lessIS4_ESaIS1_IKS4_SA_EEEEE6_M_ptrEv @6402
    _ZN9__gnu_cxx16__aligned_membufISt4pairIKdSt3mapI6RemoteSt6vectorIS5_I16LteSummaryBufferSaIS6_EESaIS8_EESt4lessIS4_ESaIS1_IKS4_SA_EEEEE7_M_addrEv @6403
    _ZN9__gnu_cxx16__aligned_membufISt4pairIKdSt3mapIS1_IjtEjSt4lessIS4_ESaIS1_IKS4_jEEEEE6_M_ptrEv @6404
    _ZN9__gnu_cxx16__aligned_membufISt4pairIKdSt3mapIS1_IjtEjSt4lessIS4_ESaIS1_IKS4_jEEEEE7_M_addrEv @6405
    _ZN9__gnu_cxx16__aligned_membufISt4pairIKdSt3mapIS1_IttEP22LteHarqBufferMirrorD2DSt4lessIS4_ESaIS1_IKS4_S6_EEEEE6_M_ptrEv @6406
    _ZN9__gnu_cxx16__aligned_membufISt4pairIKdSt3mapIS1_IttEP22LteHarqBufferMirrorD2DSt4lessIS4_ESaIS1_IKS4_S6_EEEEE7_M_addrEv @6407
    _ZN9__gnu_cxx16__aligned_membufISt4pairIKdSt3mapIS1_IttEPN4inet6PacketESt4lessIS4_ESaIS1_IKS4_S7_EEEEE6_M_ptrEv @6408
    _ZN9__gnu_cxx16__aligned_membufISt4pairIKdSt3mapIS1_IttEPN4inet6PacketESt4lessIS4_ESaIS1_IKS4_S7_EEEEE7_M_addrEv @6409
    _ZN9__gnu_cxx16__aligned_membufISt4pairIKdSt3mapItP15LteHarqBufferRxSt4lessItESaIS1_IKtS5_EEEEE6_M_ptrEv @6410
    _ZN9__gnu_cxx16__aligned_membufISt4pairIKdSt3mapItP15LteHarqBufferRxSt4lessItESaIS1_IKtS5_EEEEE7_M_addrEv @6411
    _ZN9__gnu_cxx16__aligned_membufISt4pairIKdSt3mapItP15LteHarqBufferTxSt4lessItESaIS1_IKtS5_EEEEE6_M_ptrEv @6412
    _ZN9__gnu_cxx16__aligned_membufISt4pairIKdSt3mapItP15LteHarqBufferTxSt4lessItESaIS1_IKtS5_EEEEE7_M_addrEv @6413
    _ZN9__gnu_cxx16__aligned_membufISt4pairIKdSt3mapItS3_I6RemoteSt6vectorIS5_I16LteSummaryBufferSaIS6_EESaIS8_EESt4lessIS4_ESaIS1_IKS4_SA_EEESB_ItESaIS1_IKtSG_EEEEE6_M_ptrEv @6414
    _ZN9__gnu_cxx16__aligned_membufISt4pairIKdSt3mapItS3_I6RemoteSt6vectorIS5_I16LteSummaryBufferSaIS6_EESaIS8_EESt4lessIS4_ESaIS1_IKS4_SA_EEESB_ItESaIS1_IKtSG_EEEEE7_M_addrEv @6415
    _ZN9__gnu_cxx16__aligned_membufISt4pairIKdSt3mapItbSt4lessItESaIS1_IKtbEEEEE6_M_ptrEv @6416
    _ZN9__gnu_cxx16__aligned_membufISt4pairIKdSt3mapItbSt4lessItESaIS1_IKtbEEEEE7_M_addrEv @6417
    _ZN9__gnu_cxx16__aligned_membufISt4pairIKdSt3mapIthSt4lessItESaIS1_IKthEEEEE6_M_ptrEv @6418
    _ZN9__gnu_cxx16__aligned_membufISt4pairIKdSt3mapIthSt4lessItESaIS1_IKthEEEEE7_M_addrEv @6419
    _ZN9__gnu_cxx16__aligned_membufISt4pairIKdSt3setItSt4lessItESaItEEEE6_M_ptrEv @6420
    _ZN9__gnu_cxx16__aligned_membufISt4pairIKdSt3setItSt4lessItESaItEEEE7_M_addrEv @6421
    _ZN9__gnu_cxx16__aligned_membufISt4pairIKdSt6vectorI12UserTxParamsSaIS4_EEEE6_M_ptrEv @6422
    _ZN9__gnu_cxx16__aligned_membufISt4pairIKdSt6vectorI12UserTxParamsSaIS4_EEEE7_M_addrEv @6423
    _ZN9__gnu_cxx16__aligned_membufISt4pairIKdSt6vectorIP19BackgroundSchedulerSaIS5_EEEE6_M_ptrEv @6424
    _ZN9__gnu_cxx16__aligned_membufISt4pairIKdSt6vectorIP19BackgroundSchedulerSaIS5_EEEE7_M_addrEv @6425
    _ZN9__gnu_cxx16__aligned_membufISt4pairIKdSt6vectorIP7ExtCellSaIS5_EEEE6_M_ptrEv @6426
    _ZN9__gnu_cxx16__aligned_membufISt4pairIKdSt6vectorIP7ExtCellSaIS5_EEEE7_M_addrEv @6427
    _ZN9__gnu_cxx16__aligned_membufISt4pairIKdSt6vectorIS3_IS3_I16UeAllocationInfoSaIS4_EESaIS6_EESaIS8_EEEE6_M_ptrEv @6428
    _ZN9__gnu_cxx16__aligned_membufISt4pairIKdSt6vectorIS3_IS3_I16UeAllocationInfoSaIS4_EESaIS6_EESaIS8_EEEE7_M_addrEv @6429
    _ZN9__gnu_cxx16__aligned_membufISt4pairIKdiEE6_M_ptrEv @6430
    _ZN9__gnu_cxx16__aligned_membufISt4pairIKdiEE7_M_addrEv @6431
    _ZN9__gnu_cxx16__aligned_membufISt4pairIKdjEE6_M_ptrEv @6432
    _ZN9__gnu_cxx16__aligned_membufISt4pairIKdjEE7_M_addrEv @6433
    _ZN9__gnu_cxx16__aligned_membufISt4pairIKdtEE6_M_ptrEv @6434
    _ZN9__gnu_cxx16__aligned_membufISt4pairIKdtEE7_M_addrEv @6435
    _ZN9__gnu_cxx16__aligned_membufISt4pairIKi11mecAppEntryEE6_M_ptrEv @6436
    _ZN9__gnu_cxx16__aligned_membufISt4pairIKi11mecAppEntryEE7_M_addrEv @6437
    _ZN9__gnu_cxx16__aligned_membufISt4pairIKi14mecAppMapEntryEE6_M_ptrEv @6438
    _ZN9__gnu_cxx16__aligned_membufISt4pairIKi14mecAppMapEntryEE7_M_addrEv @6439
    _ZN9__gnu_cxx16__aligned_membufISt4pairIKiP11LteRlcAmPduEE6_M_ptrEv @6440
    _ZN9__gnu_cxx16__aligned_membufISt4pairIKiP11LteRlcAmPduEE7_M_addrEv @6441
    _ZN9__gnu_cxx16__aligned_membufISt4pairIKiPN4inet7ISocketEEE6_M_ptrEv @6442
    _ZN9__gnu_cxx16__aligned_membufISt4pairIKiPN4inet7ISocketEEE7_M_addrEv @6443
    _ZN9__gnu_cxx16__aligned_membufISt4pairIKijEE6_M_ptrEv @6444
    _ZN9__gnu_cxx16__aligned_membufISt4pairIKijEE7_M_addrEv @6445
    _ZN9__gnu_cxx16__aligned_membufISt4pairIKj15FlowControlInfoEE6_M_ptrEv @6446
    _ZN9__gnu_cxx16__aligned_membufISt4pairIKj15FlowControlInfoEE7_M_addrEv @6447
    _ZN9__gnu_cxx16__aligned_membufISt4pairIKjKSt17_Rb_tree_iteratorIS1_IKN7omnetpp7SimTimeES2_EEEE6_M_ptrEv @6448
    _ZN9__gnu_cxx16__aligned_membufISt4pairIKjKSt17_Rb_tree_iteratorIS1_IKN7omnetpp7SimTimeES2_EEEE7_M_addrEv @6449
    _ZN9__gnu_cxx16__aligned_membufISt4pairIKjN12LcgScheduler10StatusElemEEE6_M_ptrEv @6450
    _ZN9__gnu_cxx16__aligned_membufISt4pairIKjN12LcgScheduler10StatusElemEEE7_M_addrEv @6451
    _ZN9__gnu_cxx16__aligned_membufISt4pairIKjN20PacketFlowManagerEnb11BurstStatusEEE6_M_ptrEv @6452
    _ZN9__gnu_cxx16__aligned_membufISt4pairIKjN20PacketFlowManagerEnb11BurstStatusEEE7_M_addrEv @6453
    _ZN9__gnu_cxx16__aligned_membufISt4pairIKjN21PacketFlowManagerBase10PdcpStatusEEE6_M_ptrEv @6454
    _ZN9__gnu_cxx16__aligned_membufISt4pairIKjN21PacketFlowManagerBase10PdcpStatusEEE7_M_addrEv @6455
    _ZN9__gnu_cxx16__aligned_membufISt4pairIKjN27MecRTVideoStreamingReceiver20ReceivingFrameStatusEEE6_M_ptrEv @6456
    _ZN9__gnu_cxx16__aligned_membufISt4pairIKjN27MecRTVideoStreamingReceiver20ReceivingFrameStatusEEE7_M_addrEv @6457
    _ZN9__gnu_cxx16__aligned_membufISt4pairIKjN6LteDrr7DrrDescEEE6_M_ptrEv @6458
    _ZN9__gnu_cxx16__aligned_membufISt4pairIKjN6LteDrr7DrrDescEEE7_M_addrEv @6459
    _ZN9__gnu_cxx16__aligned_membufISt4pairIKjN9UALCMPApp16LcmRequestStatusEEE6_M_ptrEv @6460
    _ZN9__gnu_cxx16__aligned_membufISt4pairIKjN9UALCMPApp16LcmRequestStatusEEE7_M_addrEv @6461
    _ZN9__gnu_cxx16__aligned_membufISt4pairIKjP10UmRxEntityEE6_M_ptrEv @6462
    _ZN9__gnu_cxx16__aligned_membufISt4pairIKjP10UmRxEntityEE7_M_addrEv @6463
    _ZN9__gnu_cxx16__aligned_membufISt4pairIKjP10UmTxEntityEE6_M_ptrEv @6464
    _ZN9__gnu_cxx16__aligned_membufISt4pairIKjP10UmTxEntityEE7_M_addrEv @6465
    _ZN9__gnu_cxx16__aligned_membufISt4pairIKjP11LteMacQueueEE6_M_ptrEv @6466
    _ZN9__gnu_cxx16__aligned_membufISt4pairIKjP11LteMacQueueEE7_M_addrEv @6467
    _ZN9__gnu_cxx16__aligned_membufISt4pairIKjP12LteMacBufferEE6_M_ptrEv @6468
    _ZN9__gnu_cxx16__aligned_membufISt4pairIKjP12LteMacBufferEE7_M_addrEv @6469
    _ZN9__gnu_cxx16__aligned_membufISt4pairIKjP15LteRxPdcpEntityEE6_M_ptrEv @6470
    _ZN9__gnu_cxx16__aligned_membufISt4pairIKjP15LteRxPdcpEntityEE7_M_addrEv @6471
    _ZN9__gnu_cxx16__aligned_membufISt4pairIKjP15LteTxPdcpEntityEE6_M_ptrEv @6472
    _ZN9__gnu_cxx16__aligned_membufISt4pairIKjP15LteTxPdcpEntityEE7_M_addrEv @6473
    _ZN9__gnu_cxx16__aligned_membufISt4pairIKjP16SubscriptionBaseEE6_M_ptrEv @6474
    _ZN9__gnu_cxx16__aligned_membufISt4pairIKjP16SubscriptionBaseEE7_M_addrEv @6475
    _ZN9__gnu_cxx16__aligned_membufISt4pairIKjP9AmRxQueueEE6_M_ptrEv @6476
    _ZN9__gnu_cxx16__aligned_membufISt4pairIKjP9AmRxQueueEE7_M_addrEv @6477
    _ZN9__gnu_cxx16__aligned_membufISt4pairIKjP9AmTxQueueEE6_M_ptrEv @6478
    _ZN9__gnu_cxx16__aligned_membufISt4pairIKjP9AmTxQueueEE7_M_addrEv @6479
    _ZN9__gnu_cxx16__aligned_membufISt4pairIKjPN4inet6PacketEEE6_M_ptrEv @6480
    _ZN9__gnu_cxx16__aligned_membufISt4pairIKjPN4inet6PacketEEE7_M_addrEv @6481
    _ZN9__gnu_cxx16__aligned_membufISt4pairIKjSt3mapIjdSt4lessIjESaIS1_IS2_dEEEEE6_M_ptrEv @6482
    _ZN9__gnu_cxx16__aligned_membufISt4pairIKjSt3mapIjdSt4lessIjESaIS1_IS2_dEEEEE7_M_addrEv @6483
    _ZN9__gnu_cxx16__aligned_membufISt4pairIKjSt3setIjSt4lessIjESaIjEEEE6_M_ptrEv @6484
    _ZN9__gnu_cxx16__aligned_membufISt4pairIKjSt3setIjSt4lessIjESaIjEEEE7_M_addrEv @6485
    _ZN9__gnu_cxx16__aligned_membufISt4pairIKjbEE6_M_ptrEv @6486
    _ZN9__gnu_cxx16__aligned_membufISt4pairIKjbEE7_M_addrEv @6487
    _ZN9__gnu_cxx16__aligned_membufISt4pairIKjdEE6_M_ptrEv @6488
    _ZN9__gnu_cxx16__aligned_membufISt4pairIKjdEE7_M_addrEv @6489
    _ZN9__gnu_cxx16__aligned_membufISt4pairIKjjEE6_M_ptrEv @6490
    _ZN9__gnu_cxx16__aligned_membufISt4pairIKjjEE7_M_addrEv @6491
    _ZN9__gnu_cxx16__aligned_membufISt4pairIKt10DataVolumeEE6_M_ptrEv @6492
    _ZN9__gnu_cxx16__aligned_membufISt4pairIKt10DataVolumeEE7_M_addrEv @6493
    _ZN9__gnu_cxx16__aligned_membufISt4pairIKt10LteD2DModeEE6_M_ptrEv @6494
    _ZN9__gnu_cxx16__aligned_membufISt4pairIKt10LteD2DModeEE7_M_addrEv @6495
    _ZN9__gnu_cxx16__aligned_membufISt4pairIKt10ThroughputEE6_M_ptrEv @6496
    _ZN9__gnu_cxx16__aligned_membufISt4pairIKt10ThroughputEE7_M_addrEv @6497
    _ZN9__gnu_cxx16__aligned_membufISt4pairIKt13DiscardedPktsEE6_M_ptrEv @6498
    _ZN9__gnu_cxx16__aligned_membufISt4pairIKt13DiscardedPktsEE7_M_addrEv @6499
    _ZN9__gnu_cxx16__aligned_membufISt4pairIKt21AllocatedRbsPerUeInfoEE6_M_ptrEv @6500
    _ZN9__gnu_cxx16__aligned_membufISt4pairIKt21AllocatedRbsPerUeInfoEE7_M_addrEv @6501
    _ZN9__gnu_cxx16__aligned_membufISt4pairIKt23AllocatedRbsPerBandInfoEE6_M_ptrEv @6502
    _ZN9__gnu_cxx16__aligned_membufISt4pairIKt23AllocatedRbsPerBandInfoEE7_M_addrEv @6503
    _ZN9__gnu_cxx16__aligned_membufISt4pairIKt5DelayEE6_M_ptrEv @6504
    _ZN9__gnu_cxx16__aligned_membufISt4pairIKt5DelayEE7_M_addrEv @6505
    _ZN9__gnu_cxx16__aligned_membufISt4pairIKt6LambdaEE6_M_ptrEv @6506
    _ZN9__gnu_cxx16__aligned_membufISt4pairIKt6LambdaEE7_M_addrEv @6507
    _ZN9__gnu_cxx16__aligned_membufISt4pairIKtN10LteMacBase23NumerologyPeriodCounterEEE6_M_ptrEv @6508
    _ZN9__gnu_cxx16__aligned_membufISt4pairIKtN10LteMacBase23NumerologyPeriodCounterEEE7_M_addrEv @6509
    _ZN9__gnu_cxx16__aligned_membufISt4pairIKtN19LteAllocationModule21AllocatedRbsPerUeInfoEEE6_M_ptrEv @6510
    _ZN9__gnu_cxx16__aligned_membufISt4pairIKtN19LteAllocationModule21AllocatedRbsPerUeInfoEEE7_M_addrEv @6511
    _ZN9__gnu_cxx16__aligned_membufISt4pairIKtN19LteAllocationModule23AllocatedRbsPerBandInfoEEE6_M_ptrEv @6512
    _ZN9__gnu_cxx16__aligned_membufISt4pairIKtN19LteAllocationModule23AllocatedRbsPerBandInfoEEE7_M_addrEv @6513
    _ZN9__gnu_cxx16__aligned_membufISt4pairIKtN19PacketFlowManagerUe16StatusDescriptorEEE6_M_ptrEv @6514
    _ZN9__gnu_cxx16__aligned_membufISt4pairIKtN19PacketFlowManagerUe16StatusDescriptorEEE7_M_addrEv @6515
    _ZN9__gnu_cxx16__aligned_membufISt4pairIKtN20PacketFlowManagerEnb10PacketLossEEE6_M_ptrEv @6516
    _ZN9__gnu_cxx16__aligned_membufISt4pairIKtN20PacketFlowManagerEnb10PacketLossEEE7_M_addrEv @6517
    _ZN9__gnu_cxx16__aligned_membufISt4pairIKtN20PacketFlowManagerEnb16StatusDescriptorEEE6_M_ptrEv @6518
    _ZN9__gnu_cxx16__aligned_membufISt4pairIKtN20PacketFlowManagerEnb16StatusDescriptorEEE7_M_addrEv @6519
    _ZN9__gnu_cxx16__aligned_membufISt4pairIKtN21MultihopD2DStatistics15ReceptionStatusEEE6_M_ptrEv @6520
    _ZN9__gnu_cxx16__aligned_membufISt4pairIKtN21MultihopD2DStatistics15ReceptionStatusEEE7_M_addrEv @6521
    _ZN9__gnu_cxx16__aligned_membufISt4pairIKtN21MultihopD2DStatistics16TransmissionInfoEEE6_M_ptrEv @6522
    _ZN9__gnu_cxx16__aligned_membufISt4pairIKtN21MultihopD2DStatistics16TransmissionInfoEEE7_M_addrEv @6523
    _ZN9__gnu_cxx16__aligned_membufISt4pairIKtN4inet5CoordEEE6_M_ptrEv @6524
    _ZN9__gnu_cxx16__aligned_membufISt4pairIKtN4inet5CoordEEE7_M_addrEv @6525
    _ZN9__gnu_cxx16__aligned_membufISt4pairIKtN4inet9L3AddressEEE6_M_ptrEv @6526
    _ZN9__gnu_cxx16__aligned_membufISt4pairIKtN4inet9L3AddressEEE7_M_addrEv @6527
    _ZN9__gnu_cxx16__aligned_membufISt4pairIKtN7omnetpp7SimTimeEEE6_M_ptrEv @6528
    _ZN9__gnu_cxx16__aligned_membufISt4pairIKtN7omnetpp7SimTimeEEE7_M_addrEv @6529
    _ZN9__gnu_cxx16__aligned_membufISt4pairIKtNSt7__cxx114listI14AllocationElemSaIS5_EEEEE6_M_ptrEv @6530
    _ZN9__gnu_cxx16__aligned_membufISt4pairIKtNSt7__cxx114listI14AllocationElemSaIS5_EEEEE7_M_addrEv @6531
    _ZN9__gnu_cxx16__aligned_membufISt4pairIKtNSt7__cxx114listIN19LteAllocationModule14AllocationElemESaIS6_EEEEE6_M_ptrEv @6532
    _ZN9__gnu_cxx16__aligned_membufISt4pairIKtNSt7__cxx114listIN19LteAllocationModule14AllocationElemESaIS6_EEEEE7_M_addrEv @6533
    _ZN9__gnu_cxx16__aligned_membufISt4pairIKtNSt7__cxx114listIPN4inet6PacketESaIS7_EEEEE6_M_ptrEv @6534
    _ZN9__gnu_cxx16__aligned_membufISt4pairIKtNSt7__cxx114listIPN4inet6PacketESaIS7_EEEEE7_M_addrEv @6535
    _ZN9__gnu_cxx16__aligned_membufISt4pairIKtNSt7__cxx114listIiSaIiEEEEE6_M_ptrEv @6536
    _ZN9__gnu_cxx16__aligned_membufISt4pairIKtNSt7__cxx114listIiSaIiEEEEE7_M_addrEv @6537
    _ZN9__gnu_cxx16__aligned_membufISt4pairIKtP10LteMacBaseEE6_M_ptrEv @6538
    _ZN9__gnu_cxx16__aligned_membufISt4pairIKtP10LteMacBaseEE7_M_addrEv @6539
    _ZN9__gnu_cxx16__aligned_membufISt4pairIKtP10LtePhyBaseEE6_M_ptrEv @6540
    _ZN9__gnu_cxx16__aligned_membufISt4pairIKtP10LtePhyBaseEE7_M_addrEv @6541
    _ZN9__gnu_cxx16__aligned_membufISt4pairIKtP15LteHarqBufferRxEE6_M_ptrEv @6542
    _ZN9__gnu_cxx16__aligned_membufISt4pairIKtP15LteHarqBufferRxEE7_M_addrEv @6543
    _ZN9__gnu_cxx16__aligned_membufISt4pairIKtP15LteHarqBufferTxEE6_M_ptrEv @6544
    _ZN9__gnu_cxx16__aligned_membufISt4pairIKtP15LteHarqBufferTxEE7_M_addrEv @6545
    _ZN9__gnu_cxx16__aligned_membufISt4pairIKtP16UeStatsCollectorEE6_M_ptrEv @6546
    _ZN9__gnu_cxx16__aligned_membufISt4pairIKtP16UeStatsCollectorEE7_M_addrEv @6547
    _ZN9__gnu_cxx16__aligned_membufISt4pairIKtP25BaseStationStatsCollectorEE6_M_ptrEv @6548
    _ZN9__gnu_cxx16__aligned_membufISt4pairIKtP25BaseStationStatsCollectorEE7_M_addrEv @6549
    _ZN9__gnu_cxx16__aligned_membufISt4pairIKtP8CellInfoEE6_M_ptrEv @6550
    _ZN9__gnu_cxx16__aligned_membufISt4pairIKtP8CellInfoEE7_M_addrEv @6551
    _ZN9__gnu_cxx16__aligned_membufISt4pairIKtPN7omnetpp7cModuleEEE6_M_ptrEv @6552
    _ZN9__gnu_cxx16__aligned_membufISt4pairIKtPN7omnetpp7cModuleEEE7_M_addrEv @6553
    _ZN9__gnu_cxx16__aligned_membufISt4pairIKtPcEE6_M_ptrEv @6554
    _ZN9__gnu_cxx16__aligned_membufISt4pairIKtPcEE7_M_addrEv @6555
    _ZN9__gnu_cxx16__aligned_membufISt4pairIKtS1_I16AllocationUeTypeSt3setItSt4lessItESaItEEEEE6_M_ptrEv @6556
    _ZN9__gnu_cxx16__aligned_membufISt4pairIKtS1_I16AllocationUeTypeSt3setItSt4lessItESaItEEEEE7_M_addrEv @6557
    _ZN9__gnu_cxx16__aligned_membufISt4pairIKtS1_IN7omnetpp7SimTimeEN4inet5CoordEEEE6_M_ptrEv @6558
    _ZN9__gnu_cxx16__aligned_membufISt4pairIKtS1_IN7omnetpp7SimTimeEN4inet5CoordEEEE7_M_addrEv @6559
    _ZN9__gnu_cxx16__aligned_membufISt4pairIKtS1_IN7omnetpp7SimTimeEdEEE6_M_ptrEv @6560
    _ZN9__gnu_cxx16__aligned_membufISt4pairIKtS1_IN7omnetpp7SimTimeEdEEE7_M_addrEv @6561
    _ZN9__gnu_cxx16__aligned_membufISt4pairIKtS1_IttEEE6_M_ptrEv @6562
    _ZN9__gnu_cxx16__aligned_membufISt4pairIKtS1_IttEEE7_M_addrEv @6563
    _ZN9__gnu_cxx16__aligned_membufISt4pairIKtSt3mapI6RemoteSt6vectorIS5_I16LteSummaryBufferSaIS6_EESaIS8_EESt4lessIS4_ESaIS1_IKS4_SA_EEEEE6_M_ptrEv @6564
    _ZN9__gnu_cxx16__aligned_membufISt4pairIKtSt3mapI6RemoteSt6vectorIS5_I16LteSummaryBufferSaIS6_EESaIS8_EESt4lessIS4_ESaIS1_IKS4_SA_EEEEE7_M_addrEv @6565
    _ZN9__gnu_cxx16__aligned_membufISt4pairIKtSt3mapIt10LteD2DModeSt4lessItESaIS1_IS2_S4_EEEEE6_M_ptrEv @6566
    _ZN9__gnu_cxx16__aligned_membufISt4pairIKtSt3mapIt10LteD2DModeSt4lessItESaIS1_IS2_S4_EEEEE7_M_addrEv @6567
    _ZN9__gnu_cxx16__aligned_membufISt4pairIKtSt3mapItN21MultihopD2DStatistics15ReceptionStatusESt4lessItESaIS1_IS2_S5_EEEEE6_M_ptrEv @6568
    _ZN9__gnu_cxx16__aligned_membufISt4pairIKtSt3mapItN21MultihopD2DStatistics15ReceptionStatusESt4lessItESaIS1_IS2_S5_EEEEE7_M_addrEv @6569
    _ZN9__gnu_cxx16__aligned_membufISt4pairIKtSt3mapItN4inet9L3AddressESt4lessItESaIS1_IS2_S5_EEEEE6_M_ptrEv @6570
    _ZN9__gnu_cxx16__aligned_membufISt4pairIKtSt3mapItN4inet9L3AddressESt4lessItESaIS1_IS2_S5_EEEEE7_M_addrEv @6571
    _ZN9__gnu_cxx16__aligned_membufISt4pairIKtSt3mapItbSt4lessItESaIS1_IS2_bEEEEE6_M_ptrEv @6572
    _ZN9__gnu_cxx16__aligned_membufISt4pairIKtSt3mapItbSt4lessItESaIS1_IS2_bEEEEE7_M_addrEv @6573
    _ZN9__gnu_cxx16__aligned_membufISt4pairIKtSt3setIP10UmTxEntitySt4lessIS5_ESaIS5_EEEE6_M_ptrEv @6574
    _ZN9__gnu_cxx16__aligned_membufISt4pairIKtSt3setIP10UmTxEntitySt4lessIS5_ESaIS5_EEEE7_M_addrEv @6575
    _ZN9__gnu_cxx16__aligned_membufISt4pairIKtSt3setIjSt4lessIjESaIjEEEE6_M_ptrEv @6576
    _ZN9__gnu_cxx16__aligned_membufISt4pairIKtSt3setIjSt4lessIjESaIjEEEE7_M_addrEv @6577
    _ZN9__gnu_cxx16__aligned_membufISt4pairIKtSt3setItSt4lessItESaItEEEE6_M_ptrEv @6578
    _ZN9__gnu_cxx16__aligned_membufISt4pairIKtSt3setItSt4lessItESaItEEEE7_M_addrEv @6579
    _ZN9__gnu_cxx16__aligned_membufISt4pairIKtSt5queueIS1_IN7omnetpp7SimTimeEN4inet5CoordEESt5dequeIS8_SaIS8_EEEEE6_M_ptrEv @6580
    _ZN9__gnu_cxx16__aligned_membufISt4pairIKtSt5queueIS1_IN7omnetpp7SimTimeEN4inet5CoordEESt5dequeIS8_SaIS8_EEEEE7_M_addrEv @6581
    _ZN9__gnu_cxx16__aligned_membufISt4pairIKtSt6vectorI9BandLimitSaIS4_EEEE6_M_ptrEv @6582
    _ZN9__gnu_cxx16__aligned_membufISt4pairIKtSt6vectorI9BandLimitSaIS4_EEEE7_M_addrEv @6583
    _ZN9__gnu_cxx16__aligned_membufISt4pairIKtSt6vectorIN20PacketFlowManagerEnb5GrantESaIS5_EEEE6_M_ptrEv @6584
    _ZN9__gnu_cxx16__aligned_membufISt4pairIKtSt6vectorIN20PacketFlowManagerEnb5GrantESaIS5_EEEE7_M_addrEv @6585
    _ZN9__gnu_cxx16__aligned_membufISt4pairIKtSt6vectorIN24LteRealisticChannelModel15JakesFadingDataESaIS5_EEEE6_M_ptrEv @6586
    _ZN9__gnu_cxx16__aligned_membufISt4pairIKtSt6vectorIN24LteRealisticChannelModel15JakesFadingDataESaIS5_EEEE7_M_addrEv @6587
    _ZN9__gnu_cxx16__aligned_membufISt4pairIKtSt6vectorIN26BackgroundCellChannelModel15JakesFadingDataESaIS5_EEEE6_M_ptrEv @6588
    _ZN9__gnu_cxx16__aligned_membufISt4pairIKtSt6vectorIN26BackgroundCellChannelModel15JakesFadingDataESaIS5_EEEE7_M_addrEv @6589
    _ZN9__gnu_cxx16__aligned_membufISt4pairIKtSt6vectorIS3_I11LteFeedbackSaIS4_EESaIS6_EEEE6_M_ptrEv @6590
    _ZN9__gnu_cxx16__aligned_membufISt4pairIKtSt6vectorIS3_I11LteFeedbackSaIS4_EESaIS6_EEEE7_M_addrEv @6591
    _ZN9__gnu_cxx16__aligned_membufISt4pairIKtSt6vectorIiSaIiEEEE6_M_ptrEv @6592
    _ZN9__gnu_cxx16__aligned_membufISt4pairIKtSt6vectorIiSaIiEEEE7_M_addrEv @6593
    _ZN9__gnu_cxx16__aligned_membufISt4pairIKtSt6vectorItSaItEEEE6_M_ptrEv @6594
    _ZN9__gnu_cxx16__aligned_membufISt4pairIKtSt6vectorItSaItEEEE7_M_addrEv @6595
    _ZN9__gnu_cxx16__aligned_membufISt4pairIKtbEE6_M_ptrEv @6596
    _ZN9__gnu_cxx16__aligned_membufISt4pairIKtbEE7_M_addrEv @6597
    _ZN9__gnu_cxx16__aligned_membufISt4pairIKthEE6_M_ptrEv @6598
    _ZN9__gnu_cxx16__aligned_membufISt4pairIKthEE7_M_addrEv @6599
    _ZN9__gnu_cxx16__aligned_membufISt4pairIKtiEE6_M_ptrEv @6600
    _ZN9__gnu_cxx16__aligned_membufISt4pairIKtiEE7_M_addrEv @6601
    _ZN9__gnu_cxx16__aligned_membufISt4pairIKtjEE6_M_ptrEv @6602
    _ZN9__gnu_cxx16__aligned_membufISt4pairIKtjEE7_M_addrEv @6603
    _ZN9__gnu_cxx16__aligned_membufISt4pairIKttEE6_M_ptrEv @6604
    _ZN9__gnu_cxx16__aligned_membufISt4pairIKttEE7_M_addrEv @6605
    _ZN9__gnu_cxx16__aligned_membufISt4pairIiN7omnetpp7SimTimeEEE6_M_ptrEv @6606
    _ZN9__gnu_cxx16__aligned_membufISt4pairIiN7omnetpp7SimTimeEEE7_M_addrEv @6607
    _ZN9__gnu_cxx16__aligned_membufIiE6_M_ptrEv @6608
    _ZN9__gnu_cxx16__aligned_membufIiE7_M_addrEv @6609
    _ZN9__gnu_cxx16__aligned_membufIjE6_M_ptrEv @6610
    _ZN9__gnu_cxx16__aligned_membufIjE7_M_addrEv @6611
    _ZN9__gnu_cxx16__aligned_membufItE6_M_ptrEv @6612
    _ZN9__gnu_cxx16__aligned_membufItE7_M_addrEv @6613
    _ZN9__gnu_cxx16__aligned_membufIyE6_M_ptrEv @6614
    _ZN9__gnu_cxx16__aligned_membufIyE7_M_addrEv @6615
    _ZN9__gnu_cxx17__normal_iteratorIP10SortedDescIjdESt6vectorIS2_SaIS2_EEEC2ERKS3_ @6616
    _ZN9__gnu_cxx17__normal_iteratorIP10SortedDescIjdESt6vectorIS2_SaIS2_EEEmmEv @6617
    _ZN9__gnu_cxx17__normal_iteratorIP10SortedDescIjjESt6vectorIS2_SaIS2_EEEC2ERKS3_ @6618
    _ZN9__gnu_cxx17__normal_iteratorIP10SortedDescIjjESt6vectorIS2_SaIS2_EEEmmEv @6619
    _ZN9__gnu_cxx17__normal_iteratorIP11LteFeedbackSt6vectorIS1_SaIS1_EEEC2ERKS2_ @6620
    _ZN9__gnu_cxx17__normal_iteratorIP11LteFeedbackSt6vectorIS1_SaIS1_EEEC2Ev @6621
    _ZN9__gnu_cxx17__normal_iteratorIP11LteFeedbackSt6vectorIS1_SaIS1_EEEppEv @6622
    _ZN9__gnu_cxx17__normal_iteratorIP11ServiceInfoSt6vectorIS1_SaIS1_EEEC2ERKS2_ @6623
    _ZN9__gnu_cxx17__normal_iteratorIP11ServiceInfoSt6vectorIS1_SaIS1_EEEppEv @6624
    _ZN9__gnu_cxx17__normal_iteratorIP12CompRbStatusSt6vectorIS1_SaIS1_EEEC2ERKS2_ @6625
    _ZN9__gnu_cxx17__normal_iteratorIP12CompRbStatusSt6vectorIS1_SaIS1_EEEppEi @6626
    _ZN9__gnu_cxx17__normal_iteratorIP12UserTxParamsSt6vectorIS1_SaIS1_EEEC2ERKS2_ @6627
    _ZN9__gnu_cxx17__normal_iteratorIP12UserTxParamsSt6vectorIS1_SaIS1_EEEppEv @6628
    _ZN9__gnu_cxx17__normal_iteratorIP14LteControlInfoSt6vectorIS1_SaIS1_EEEC2ERKS2_ @6629
    _ZN9__gnu_cxx17__normal_iteratorIP15RxHarqPduStatusSt6vectorIS1_SaIS1_EEEC2ERKS2_ @6630
    _ZN9__gnu_cxx17__normal_iteratorIP15TxHarqPduStatusSt6vectorIS1_SaIS1_EEEC2ERKS2_ @6631
    _ZN9__gnu_cxx17__normal_iteratorIP15TxHarqPduStatusSt6vectorIS1_SaIS1_EEEppEv @6632
    _ZN9__gnu_cxx17__normal_iteratorIP16LteSummaryBufferSt6vectorIS1_SaIS1_EEEC2ERKS2_ @6633
    _ZN9__gnu_cxx17__normal_iteratorIP16LteSummaryBufferSt6vectorIS1_SaIS1_EEEppEv @6634
    _ZN9__gnu_cxx17__normal_iteratorIP16TerminalLocationSt6vectorIS1_SaIS1_EEEC2ERKS2_ @6635
    _ZN9__gnu_cxx17__normal_iteratorIP16TerminalLocationSt6vectorIS1_SaIS1_EEEppEv @6636
    _ZN9__gnu_cxx17__normal_iteratorIP16UeAllocationInfoSt6vectorIS1_SaIS1_EEEC2ERKS2_ @6637
    _ZN9__gnu_cxx17__normal_iteratorIP16UeAllocationInfoSt6vectorIS1_SaIS1_EEEppEi @6638
    _ZN9__gnu_cxx17__normal_iteratorIP17RemoteUnitPhyDataSt6vectorIS1_SaIS1_EEEC2ERKS2_ @6639
    _ZN9__gnu_cxx17__normal_iteratorIP8CGVertexSt6vectorIS1_SaIS1_EEEC2ERKS2_ @6640
    _ZN9__gnu_cxx17__normal_iteratorIP9BandLimitSt6vectorIS1_SaIS1_EEEC2ERKS2_ @6641
    _ZN9__gnu_cxx17__normal_iteratorIP9BandLimitSt6vectorIS1_SaIS1_EEEppEv @6642
    _ZN9__gnu_cxx17__normal_iteratorIPK10SortedDescIjdESt6vectorIS2_SaIS2_EEEC2ERKS4_ @6643
    _ZN9__gnu_cxx17__normal_iteratorIPK10SortedDescIjjESt6vectorIS2_SaIS2_EEEC2ERKS4_ @6644
    _ZN9__gnu_cxx17__normal_iteratorIPK11LteFeedbackSt6vectorIS1_SaIS1_EEEC2ERKS3_ @6645
    _ZN9__gnu_cxx17__normal_iteratorIPK11LteFeedbackSt6vectorIS1_SaIS1_EEEppEv @6646
    _ZN9__gnu_cxx17__normal_iteratorIPK11ServiceInfoSt6vectorIS1_SaIS1_EEEC2ERKS3_ @6647
    _ZN9__gnu_cxx17__normal_iteratorIPK11ServiceInfoSt6vectorIS1_SaIS1_EEEppEv @6648
    _ZN9__gnu_cxx17__normal_iteratorIPK12CompRbStatusSt6vectorIS1_SaIS1_EEEC2ERKS3_ @6649
    _ZN9__gnu_cxx17__normal_iteratorIPK12UserTxParamsSt6vectorIS1_SaIS1_EEEC2ERKS3_ @6650
    _ZN9__gnu_cxx17__normal_iteratorIPK12UserTxParamsSt6vectorIS1_SaIS1_EEEC2Ev @6651
    _ZN9__gnu_cxx17__normal_iteratorIPK12UserTxParamsSt6vectorIS1_SaIS1_EEEC2IPS1_vEERKNS0_IT_S6_EE @6652
    _ZN9__gnu_cxx17__normal_iteratorIPK12UserTxParamsSt6vectorIS1_SaIS1_EEEppEi @6653
    _ZN9__gnu_cxx17__normal_iteratorIPK12UserTxParamsSt6vectorIS1_SaIS1_EEEppEv @6654
    _ZN9__gnu_cxx17__normal_iteratorIPK14LteControlInfoSt6vectorIS1_SaIS1_EEEC2ERKS3_ @6655
    _ZN9__gnu_cxx17__normal_iteratorIPK15TxHarqPduStatusSt6vectorIS1_SaIS1_EEEC2ERKS3_ @6656
    _ZN9__gnu_cxx17__normal_iteratorIPK16LteSummaryBufferSt6vectorIS1_SaIS1_EEEC2ERKS3_ @6657
    _ZN9__gnu_cxx17__normal_iteratorIPK16LteSummaryBufferSt6vectorIS1_SaIS1_EEEC2Ev @6658
    _ZN9__gnu_cxx17__normal_iteratorIPK16LteSummaryBufferSt6vectorIS1_SaIS1_EEEppEi @6659
    _ZN9__gnu_cxx17__normal_iteratorIPK16LteSummaryBufferSt6vectorIS1_SaIS1_EEEppEv @6660
    _ZN9__gnu_cxx17__normal_iteratorIPK16TerminalLocationSt6vectorIS1_SaIS1_EEEC2ERKS3_ @6661
    _ZN9__gnu_cxx17__normal_iteratorIPK16TerminalLocationSt6vectorIS1_SaIS1_EEEppEv @6662
    _ZN9__gnu_cxx17__normal_iteratorIPK16UeAllocationInfoSt6vectorIS1_SaIS1_EEEC2ERKS3_ @6663
    _ZN9__gnu_cxx17__normal_iteratorIPK16UeAllocationInfoSt6vectorIS1_SaIS1_EEEC2Ev @6664
    _ZN9__gnu_cxx17__normal_iteratorIPK16UeAllocationInfoSt6vectorIS1_SaIS1_EEEC2IPS1_vEERKNS0_IT_S6_EE @6665
    _ZN9__gnu_cxx17__normal_iteratorIPK16UeAllocationInfoSt6vectorIS1_SaIS1_EEEppEv @6666
    _ZN9__gnu_cxx17__normal_iteratorIPK17RemoteUnitPhyDataSt6vectorIS1_SaIS1_EEEC2ERKS3_ @6667
    _ZN9__gnu_cxx17__normal_iteratorIPK17RemoteUnitPhyDataSt6vectorIS1_SaIS1_EEEppEv @6668
    _ZN9__gnu_cxx17__normal_iteratorIPK8CGVertexSt6vectorIS1_SaIS1_EEEC2ERKS3_ @6669
    _ZN9__gnu_cxx17__normal_iteratorIPK8CGVertexSt6vectorIS1_SaIS1_EEEppEv @6670
    _ZN9__gnu_cxx17__normal_iteratorIPK9BandLimitSt6vectorIS1_SaIS1_EEEC2ERKS3_ @6671
    _ZN9__gnu_cxx17__normal_iteratorIPK9BandLimitSt6vectorIS1_SaIS1_EEEppEv @6672
    _ZN9__gnu_cxx17__normal_iteratorIPKN20PacketFlowManagerEnb5GrantESt6vectorIS2_SaIS2_EEEC2ERKS4_ @6673
    _ZN9__gnu_cxx17__normal_iteratorIPKN20PacketFlowManagerEnb5GrantESt6vectorIS2_SaIS2_EEEC2IPS2_vEERKNS0_IT_S7_EE @6674
    _ZN9__gnu_cxx17__normal_iteratorIPKN4inet11Ipv4AddressESt6vectorIS2_SaIS2_EEEC2ERKS4_ @6675
    _ZN9__gnu_cxx17__normal_iteratorIPKN4inet11Ipv4AddressESt6vectorIS2_SaIS2_EEEC2IPS2_vEERKNS0_IT_S7_EE @6676
    _ZN9__gnu_cxx17__normal_iteratorIPKN4inet11Ipv4AddressESt6vectorIS2_SaIS2_EEEppEv @6677
    _ZN9__gnu_cxx17__normal_iteratorIPKN4inet14MulticastGroupESt6vectorIS2_SaIS2_EEEC2ERKS4_ @6678
    _ZN9__gnu_cxx17__normal_iteratorIPKN4inet14MulticastGroupESt6vectorIS2_SaIS2_EEEppEv @6679
    _ZN9__gnu_cxx17__normal_iteratorIPKN7omnetpp7SimTimeESt6vectorIS2_SaIS2_EEEC2ERKS4_ @6680
    _ZN9__gnu_cxx17__normal_iteratorIPKN7omnetpp7SimTimeESt6vectorIS2_SaIS2_EEEppEv @6681
    _ZN9__gnu_cxx17__normal_iteratorIPKN8nlohmann10basic_jsonINS1_11ordered_mapESt6vectorNSt7__cxx1112basic_stringIcSt11char_traitsIcESaIcEEEbxydSaNS1_14adl_serializerES4_IhSaIhEEEES4_ISE_SaISE_EEEC2ERKSG_ @6682
    _ZN9__gnu_cxx17__normal_iteratorIPKN8nlohmann10basic_jsonINS1_11ordered_mapESt6vectorNSt7__cxx1112basic_stringIcSt11char_traitsIcESaIcEEEbxydSaNS1_14adl_serializerES4_IhSaIhEEEES4_ISE_SaISE_EEEC2IPSE_vEERKNS0_IT_SI_EE @6683
    _ZN9__gnu_cxx17__normal_iteratorIPKN8nlohmann10basic_jsonINS1_11ordered_mapESt6vectorNSt7__cxx1112basic_stringIcSt11char_traitsIcESaIcEEEbxydSaNS1_14adl_serializerES4_IhSaIhEEEES4_ISE_SaISE_EEEppEv @6684
    _ZN9__gnu_cxx17__normal_iteratorIPKN8nlohmann10basic_jsonISt3mapSt6vectorNSt7__cxx1112basic_stringIcSt11char_traitsIcESaIcEEEbxydSaNS1_14adl_serializerES4_IhSaIhEEEES4_ISE_SaISE_EEEC2ERKSG_ @6685
    _ZN9__gnu_cxx17__normal_iteratorIPKN8nlohmann10basic_jsonISt3mapSt6vectorNSt7__cxx1112basic_stringIcSt11char_traitsIcESaIcEEEbxydSaNS1_14adl_serializerES4_IhSaIhEEEES4_ISE_SaISE_EEEC2IPSE_vEERKNS0_IT_SI_EE @6686
    _ZN9__gnu_cxx17__normal_iteratorIPKN8nlohmann10basic_jsonISt3mapSt6vectorNSt7__cxx1112basic_stringIcSt11char_traitsIcESaIcEEEbxydSaNS1_14adl_serializerES4_IhSaIhEEEES4_ISE_SaISE_EEEppEv @6687
    _ZN9__gnu_cxx17__normal_iteratorIPKNSt7__cxx1112basic_stringIcSt11char_traitsIcESaIcEEESt6vectorIS6_SaIS6_EEEC2ERKS8_ @6688
    _ZN9__gnu_cxx17__normal_iteratorIPKNSt7__cxx1112basic_stringIcSt11char_traitsIcESaIcEEESt6vectorIS6_SaIS6_EEEppEv @6689
    _ZN9__gnu_cxx17__normal_iteratorIPKP11LteAirFrameSt6vectorIS2_SaIS2_EEEC2ERKS4_ @6690
    _ZN9__gnu_cxx17__normal_iteratorIPKP11MultihopD2DSt6vectorIS2_SaIS2_EEEC2ERKS4_ @6691
    _ZN9__gnu_cxx17__normal_iteratorIPKP11MultihopD2DSt6vectorIS2_SaIS2_EEEC2IPS2_vEERKNS0_IT_S7_EE @6692
    _ZN9__gnu_cxx17__normal_iteratorIPKP16LteHarqProcessRxSt6vectorIS2_SaIS2_EEEC2ERKS4_ @6693
    _ZN9__gnu_cxx17__normal_iteratorIPKP16LteHarqProcessRxSt6vectorIS2_SaIS2_EEEppEv @6694
    _ZN9__gnu_cxx17__normal_iteratorIPKP16LteHarqProcessTxSt6vectorIS2_SaIS2_EEEC2IPS2_vEERKNS0_IT_S7_EE @6695
    _ZN9__gnu_cxx17__normal_iteratorIPKP16LteHarqProcessTxSt6vectorIS2_SaIS2_EEEppEv @6696
    _ZN9__gnu_cxx17__normal_iteratorIPKP20TrafficGeneratorBaseSt6vectorIS2_SaIS2_EEEC2IPS2_vEERKNS0_IT_S7_EE @6697
    _ZN9__gnu_cxx17__normal_iteratorIPKP20TrafficGeneratorBaseSt6vectorIS2_SaIS2_EEEppEv @6698
    _ZN9__gnu_cxx17__normal_iteratorIPKP7ExtCellSt6vectorIS2_SaIS2_EEEC2ERKS4_ @6699
    _ZN9__gnu_cxx17__normal_iteratorIPKPN15IChannelControl10RadioEntryESt6vectorIS3_SaIS3_EEEC2ERKS5_ @6700
    _ZN9__gnu_cxx17__normal_iteratorIPKPN7omnetpp11cXMLElementESt6vectorIS3_SaIS3_EEEC2ERKS5_ @6701
    _ZN9__gnu_cxx17__normal_iteratorIPKPN7omnetpp11cXMLElementESt6vectorIS3_SaIS3_EEEC2IPS3_vEERKNS0_IT_S8_EE @6702
    _ZN9__gnu_cxx17__normal_iteratorIPKPN7omnetpp11cXMLElementESt6vectorIS3_SaIS3_EEEppEi @6703
    _ZN9__gnu_cxx17__normal_iteratorIPKPN7omnetpp7cModuleESt6vectorIS3_SaIS3_EEEC2ERKS5_ @6704
    _ZN9__gnu_cxx17__normal_iteratorIPKPN7omnetpp7cModuleESt6vectorIS3_SaIS3_EEEppEv @6705
    _ZN9__gnu_cxx17__normal_iteratorIPKPN8nlohmann10basic_jsonISt3mapSt6vectorNSt7__cxx1112basic_stringIcSt11char_traitsIcESaIcEEEbxydSaNS1_14adl_serializerES4_IhSaIhEEEES4_ISF_SaISF_EEEC2ERKSH_ @6706
    _ZN9__gnu_cxx17__normal_iteratorIPKSt3mapIt23AllocatedRbsPerBandInfoSt4lessItESaISt4pairIKtS2_EEESt6vectorIS9_SaIS9_EEEC2ERKSB_ @6707
    _ZN9__gnu_cxx17__normal_iteratorIPKSt3mapIt23AllocatedRbsPerBandInfoSt4lessItESaISt4pairIKtS2_EEESt6vectorIS9_SaIS9_EEEppEv @6708
    _ZN9__gnu_cxx17__normal_iteratorIPKSt3mapItN19LteAllocationModule23AllocatedRbsPerBandInfoESt4lessItESaISt4pairIKtS3_EEESt6vectorISA_SaISA_EEEC2ERKSC_ @6709
    _ZN9__gnu_cxx17__normal_iteratorIPKSt3mapItN19LteAllocationModule23AllocatedRbsPerBandInfoESt4lessItESaISt4pairIKtS3_EEESt6vectorISA_SaISA_EEEppEv @6710
    _ZN9__gnu_cxx17__normal_iteratorIPKSt4pairIKNSt7__cxx1112basic_stringIcSt11char_traitsIcESaIcEEEN8nlohmann10basic_jsonINS9_11ordered_mapESt6vectorS7_bxydSaNS9_14adl_serializerESC_IhSaIhEEEEESC_ISH_SaISH_EEEC2ERKSJ_ @6711
    _ZN9__gnu_cxx17__normal_iteratorIPKSt4pairIKNSt7__cxx1112basic_stringIcSt11char_traitsIcESaIcEEEN8nlohmann10basic_jsonINS9_11ordered_mapESt6vectorS7_bxydSaNS9_14adl_serializerESC_IhSaIhEEEEESC_ISH_SaISH_EEEmmEv @6712
    _ZN9__gnu_cxx17__normal_iteratorIPKSt4pairIKNSt7__cxx1112basic_stringIcSt11char_traitsIcESaIcEEEN8nlohmann10basic_jsonINS9_11ordered_mapESt6vectorS7_bxydSaNS9_14adl_serializerESC_IhSaIhEEEEESC_ISH_SaISH_EEEpLEx @6713
    _ZN9__gnu_cxx17__normal_iteratorIPKSt4pairIKNSt7__cxx1112basic_stringIcSt11char_traitsIcESaIcEEEN8nlohmann10basic_jsonINS9_11ordered_mapESt6vectorS7_bxydSaNS9_14adl_serializerESC_IhSaIhEEEEESC_ISH_SaISH_EEEppEv @6714
    _ZN9__gnu_cxx17__normal_iteratorIPKSt4pairIh15RxHarqPduStatusESt6vectorIS3_SaIS3_EEEC2ERKS5_ @6715
    _ZN9__gnu_cxx17__normal_iteratorIPKSt4pairIh15RxHarqPduStatusESt6vectorIS3_SaIS3_EEEC2IPS3_vEERKNS0_IT_S8_EE @6716
    _ZN9__gnu_cxx17__normal_iteratorIPKSt4pairIh15RxHarqPduStatusESt6vectorIS3_SaIS3_EEEppEv @6717
    _ZN9__gnu_cxx17__normal_iteratorIPKSt4pairIh15TxHarqPduStatusESt6vectorIS3_SaIS3_EEEC2ERKS5_ @6718
    _ZN9__gnu_cxx17__normal_iteratorIPKSt4pairIh15TxHarqPduStatusESt6vectorIS3_SaIS3_EEEC2IPS3_vEERKNS0_IT_S8_EE @6719
    _ZN9__gnu_cxx17__normal_iteratorIPKSt4pairIh15TxHarqPduStatusESt6vectorIS3_SaIS3_EEEppEv @6720
    _ZN9__gnu_cxx17__normal_iteratorIPKSt6vectorI11LteFeedbackSaIS2_EES1_IS4_SaIS4_EEEC2ERKS6_ @6721
    _ZN9__gnu_cxx17__normal_iteratorIPKSt6vectorI11LteFeedbackSaIS2_EES1_IS4_SaIS4_EEEppEv @6722
    _ZN9__gnu_cxx17__normal_iteratorIPKSt6vectorI16LteSummaryBufferSaIS2_EES1_IS4_SaIS4_EEEC2ERKS6_ @6723
    _ZN9__gnu_cxx17__normal_iteratorIPKSt6vectorI16LteSummaryBufferSaIS2_EES1_IS4_SaIS4_EEEC2Ev @6724
    _ZN9__gnu_cxx17__normal_iteratorIPKSt6vectorI16LteSummaryBufferSaIS2_EES1_IS4_SaIS4_EEEppEi @6725
    _ZN9__gnu_cxx17__normal_iteratorIPKSt6vectorI16LteSummaryBufferSaIS2_EES1_IS4_SaIS4_EEEppEv @6726
    _ZN9__gnu_cxx17__normal_iteratorIPKSt6vectorI16UeAllocationInfoSaIS2_EES1_IS4_SaIS4_EEEC2ERKS6_ @6727
    _ZN9__gnu_cxx17__normal_iteratorIPKSt6vectorIN7omnetpp7SimTimeESaIS3_EES1_IS5_SaIS5_EEEC2ERKS7_ @6728
    _ZN9__gnu_cxx17__normal_iteratorIPKSt6vectorIN7omnetpp7SimTimeESaIS3_EES1_IS5_SaIS5_EEEppEv @6729
    _ZN9__gnu_cxx17__normal_iteratorIPKSt6vectorIS1_I16UeAllocationInfoSaIS2_EESaIS4_EES1_IS6_SaIS6_EEEC2ERKS8_ @6730
    _ZN9__gnu_cxx17__normal_iteratorIPKSt6vectorIS1_I16UeAllocationInfoSaIS2_EESaIS4_EES1_IS6_SaIS6_EEEC2IPS6_vEERKNS0_IT_SA_EE @6731
    _ZN9__gnu_cxx17__normal_iteratorIPKSt6vectorISt3mapIt23AllocatedRbsPerBandInfoSt4lessItESaISt4pairIKtS3_EEESaISA_EES1_ISC_SaISC_EEEC2ERKSE_ @6732
    _ZN9__gnu_cxx17__normal_iteratorIPKSt6vectorISt3mapIt23AllocatedRbsPerBandInfoSt4lessItESaISt4pairIKtS3_EEESaISA_EES1_ISC_SaISC_EEEppEv @6733
    _ZN9__gnu_cxx17__normal_iteratorIPKSt6vectorISt3mapItN19LteAllocationModule23AllocatedRbsPerBandInfoESt4lessItESaISt4pairIKtS4_EEESaISB_EES1_ISD_SaISD_EEEC2ERKSF_ @6734
    _ZN9__gnu_cxx17__normal_iteratorIPKSt6vectorISt3mapItN19LteAllocationModule23AllocatedRbsPerBandInfoESt4lessItESaISt4pairIKtS4_EEESaISB_EES1_ISD_SaISD_EEEppEv @6735
    _ZN9__gnu_cxx17__normal_iteratorIPKSt6vectorIjSaIjEES1_IS3_SaIS3_EEEC2IPS3_vEERKNS0_IT_S7_EE @6736
    _ZN9__gnu_cxx17__normal_iteratorIPKSt6vectorItSaItEES1_IS3_SaIS3_EEEC2ERKS5_ @6737
    _ZN9__gnu_cxx17__normal_iteratorIPKSt6vectorItSaItEES1_IS3_SaIS3_EEEppEv @6738
    _ZN9__gnu_cxx17__normal_iteratorIPKcNSt7__cxx1112basic_stringIcSt11char_traitsIcESaIcEEEEmmEv @6739
    _ZN9__gnu_cxx17__normal_iteratorIPKcNSt7__cxx1112basic_stringIcSt11char_traitsIcESaIcEEEEpLEx @6740
    _ZN9__gnu_cxx17__normal_iteratorIPKcNSt7__cxx1112basic_stringIcSt11char_traitsIcESaIcEEEEppEv @6741
    _ZN9__gnu_cxx17__normal_iteratorIPKcSt6vectorIcSaIcEEEC2ERKS2_ @6742
    _ZN9__gnu_cxx17__normal_iteratorIPKcSt6vectorIcSaIcEEEppEv @6743
    _ZN9__gnu_cxx17__normal_iteratorIPKdSt6vectorIdSaIdEEEC2ERKS2_ @6744
    _ZN9__gnu_cxx17__normal_iteratorIPKhSt6vectorIhSaIhEEEC2ERKS2_ @6745
    _ZN9__gnu_cxx17__normal_iteratorIPKhSt6vectorIhSaIhEEEC2IPhvEERKNS0_IT_S5_EE @6746
    _ZN9__gnu_cxx17__normal_iteratorIPKhSt6vectorIhSaIhEEEmmEv @6747
    _ZN9__gnu_cxx17__normal_iteratorIPKhSt6vectorIhSaIhEEEpLEx @6748
    _ZN9__gnu_cxx17__normal_iteratorIPKhSt6vectorIhSaIhEEEppEv @6749
    _ZN9__gnu_cxx17__normal_iteratorIPKiSt6vectorIiSaIiEEEC2ERKS2_ @6750
    _ZN9__gnu_cxx17__normal_iteratorIPKiSt6vectorIiSaIiEEEC2IPivEERKNS0_IT_S5_EE @6751
    _ZN9__gnu_cxx17__normal_iteratorIPKjSt6vectorIjSaIjEEEC2ERKS2_ @6752
    _ZN9__gnu_cxx17__normal_iteratorIPKjSt6vectorIjSaIjEEEppEv @6753
    _ZN9__gnu_cxx17__normal_iteratorIPKtSt6vectorItSaItEEEC2ERKS2_ @6754
    _ZN9__gnu_cxx17__normal_iteratorIPKtSt6vectorItSaItEEEC2IPtvEERKNS0_IT_S5_EE @6755
    _ZN9__gnu_cxx17__normal_iteratorIPKtSt6vectorItSaItEEEppEv @6756
    _ZN9__gnu_cxx17__normal_iteratorIPN12VoDUDPServer9svcPacketESt6vectorIS2_SaIS2_EEEC2ERKS3_ @6757
    _ZN9__gnu_cxx17__normal_iteratorIPN16RemoteAntennaSet13RemoteAntennaESt6vectorIS2_SaIS2_EEEC2ERKS3_ @6758
    _ZN9__gnu_cxx17__normal_iteratorIPN20PacketFlowManagerEnb5GrantESt6vectorIS2_SaIS2_EEEC2ERKS3_ @6759
    _ZN9__gnu_cxx17__normal_iteratorIPN20PacketFlowManagerEnb5GrantESt6vectorIS2_SaIS2_EEEppEv @6760
    _ZN9__gnu_cxx17__normal_iteratorIPN24LteRealisticChannelModel15JakesFadingDataESt6vectorIS2_SaIS2_EEEC2ERKS3_ @6761
    _ZN9__gnu_cxx17__normal_iteratorIPN26BackgroundCellChannelModel15JakesFadingDataESt6vectorIS2_SaIS2_EEEC2ERKS3_ @6762
    _ZN9__gnu_cxx17__normal_iteratorIPN4inet11Ipv4AddressESt6vectorIS2_SaIS2_EEEC2ERKS3_ @6763
    _ZN9__gnu_cxx17__normal_iteratorIPN4inet11Ipv4AddressESt6vectorIS2_SaIS2_EEEppEv @6764
    _ZN9__gnu_cxx17__normal_iteratorIPN4inet9L3AddressESt6vectorIS2_SaIS2_EEEC2ERKS3_ @6765
    _ZN9__gnu_cxx17__normal_iteratorIPN7omnetpp7SimTimeESt6vectorIS2_SaIS2_EEEC2ERKS3_ @6766
    _ZN9__gnu_cxx17__normal_iteratorIPN7omnetpp7SimTimeESt6vectorIS2_SaIS2_EEEmmEv @6767
    _ZN9__gnu_cxx17__normal_iteratorIPN7omnetpp7SimTimeESt6vectorIS2_SaIS2_EEEppEv @6768
    _ZN9__gnu_cxx17__normal_iteratorIPN8nlohmann10basic_jsonINS1_11ordered_mapESt6vectorNSt7__cxx1112basic_stringIcSt11char_traitsIcESaIcEEEbxydSaNS1_14adl_serializerES4_IhSaIhEEEES4_ISE_SaISE_EEEC2ERKSF_ @6769
    _ZN9__gnu_cxx17__normal_iteratorIPN8nlohmann10basic_jsonISt3mapSt6vectorNSt7__cxx1112basic_stringIcSt11char_traitsIcESaIcEEEbxydSaNS1_14adl_serializerES4_IhSaIhEEEES4_ISE_SaISE_EEEC2ERKSF_ @6770
    _ZN9__gnu_cxx17__normal_iteratorIPN8nlohmann10basic_jsonISt3mapSt6vectorNSt7__cxx1112basic_stringIcSt11char_traitsIcESaIcEEEbxydSaNS1_14adl_serializerES4_IhSaIhEEEES4_ISE_SaISE_EEEC2Ev @6771
    _ZN9__gnu_cxx17__normal_iteratorIPN8nlohmann10basic_jsonISt3mapSt6vectorNSt7__cxx1112basic_stringIcSt11char_traitsIcESaIcEEEbxydSaNS1_14adl_serializerES4_IhSaIhEEEES4_ISE_SaISE_EEEmmEv @6772
    _ZN9__gnu_cxx17__normal_iteratorIPN8nlohmann10basic_jsonISt3mapSt6vectorNSt7__cxx1112basic_stringIcSt11char_traitsIcESaIcEEEbxydSaNS1_14adl_serializerES4_IhSaIhEEEES4_ISE_SaISE_EEEpLEx @6773
    _ZN9__gnu_cxx17__normal_iteratorIPN8nlohmann10basic_jsonISt3mapSt6vectorNSt7__cxx1112basic_stringIcSt11char_traitsIcESaIcEEEbxydSaNS1_14adl_serializerES4_IhSaIhEEEES4_ISE_SaISE_EEEppEv @6774
    _ZN9__gnu_cxx17__normal_iteratorIPNSt7__cxx1112basic_stringIcSt11char_traitsIcESaIcEEESt6vectorIS6_SaIS6_EEEC2ERKS7_ @6775
    _ZN9__gnu_cxx17__normal_iteratorIPNSt7__cxx1112basic_stringIcSt11char_traitsIcESaIcEEESt6vectorIS6_SaIS6_EEEppEv @6776
    _ZN9__gnu_cxx17__normal_iteratorIPP11LteAirFrameSt6vectorIS2_SaIS2_EEEC2ERKS3_ @6777
    _ZN9__gnu_cxx17__normal_iteratorIPP11MultihopD2DSt6vectorIS2_SaIS2_EEEC2ERKS3_ @6778
    _ZN9__gnu_cxx17__normal_iteratorIPP11MultihopD2DSt6vectorIS2_SaIS2_EEEppEv @6779
    _ZN9__gnu_cxx17__normal_iteratorIPP12LteSchedulerSt6vectorIS2_SaIS2_EEEC2ERKS3_ @6780
    _ZN9__gnu_cxx17__normal_iteratorIPP12LteSchedulerSt6vectorIS2_SaIS2_EEEppEv @6781
    _ZN9__gnu_cxx17__normal_iteratorIPP13LteHarqUnitTxSt6vectorIS2_SaIS2_EEEC2ERKS3_ @6782
    _ZN9__gnu_cxx17__normal_iteratorIPP13LteHarqUnitTxSt6vectorIS2_SaIS2_EEEppEv @6783
    _ZN9__gnu_cxx17__normal_iteratorIPP16LteHarqProcessRxSt6vectorIS2_SaIS2_EEEC2ERKS3_ @6784
    _ZN9__gnu_cxx17__normal_iteratorIPP16LteHarqProcessRxSt6vectorIS2_SaIS2_EEEppEv @6785
    _ZN9__gnu_cxx17__normal_iteratorIPP16LteHarqProcessTxSt6vectorIS2_SaIS2_EEEC2ERKS3_ @6786
    _ZN9__gnu_cxx17__normal_iteratorIPP16LteHarqProcessTxSt6vectorIS2_SaIS2_EEEppEv @6787
    _ZN9__gnu_cxx17__normal_iteratorIPP19BackgroundSchedulerSt6vectorIS2_SaIS2_EEEC2ERKS3_ @6788
    _ZN9__gnu_cxx17__normal_iteratorIPP19BackgroundSchedulerSt6vectorIS2_SaIS2_EEEppEi @6789
    _ZN9__gnu_cxx17__normal_iteratorIPP20BgTrafficManagerInfoSt6vectorIS2_SaIS2_EEEC2ERKS3_ @6790
    _ZN9__gnu_cxx17__normal_iteratorIPP20TrafficGeneratorBaseSt6vectorIS2_SaIS2_EEEC2ERKS3_ @6791
    _ZN9__gnu_cxx17__normal_iteratorIPP22TrafficLightControllerSt6vectorIS2_SaIS2_EEEC2ERKS3_ @6792
    _ZN9__gnu_cxx17__normal_iteratorIPP22TrafficLightControllerSt6vectorIS2_SaIS2_EEEppEv @6793
    _ZN9__gnu_cxx17__normal_iteratorIPP23LteHarqProcessMirrorD2DSt6vectorIS2_SaIS2_EEEC2ERKS3_ @6794
    _ZN9__gnu_cxx17__normal_iteratorIPP6UeInfoSt6vectorIS2_SaIS2_EEEC2ERKS3_ @6795
    _ZN9__gnu_cxx17__normal_iteratorIPP6UeInfoSt6vectorIS2_SaIS2_EEEC2Ev @6796
    _ZN9__gnu_cxx17__normal_iteratorIPP6UeInfoSt6vectorIS2_SaIS2_EEEppEv @6797
    _ZN9__gnu_cxx17__normal_iteratorIPP7EnbInfoSt6vectorIS2_SaIS2_EEEC2ERKS3_ @6798
    _ZN9__gnu_cxx17__normal_iteratorIPP7EnbInfoSt6vectorIS2_SaIS2_EEEppEv @6799
    _ZN9__gnu_cxx17__normal_iteratorIPP7ExtCellSt6vectorIS2_SaIS2_EEEC2ERKS3_ @6800
    _ZN9__gnu_cxx17__normal_iteratorIPP7ExtCellSt6vectorIS2_SaIS2_EEEppEi @6801
    _ZN9__gnu_cxx17__normal_iteratorIPPN15IChannelControl10RadioEntryESt6vectorIS3_SaIS3_EEEC2ERKS4_ @6802
    _ZN9__gnu_cxx17__normal_iteratorIPPN4inet6PacketESt6vectorIS3_SaIS3_EEEC2ERKS4_ @6803
    _ZN9__gnu_cxx17__normal_iteratorIPPN7omnetpp11cXMLElementESt6vectorIS3_SaIS3_EEEC2ERKS4_ @6804
    _ZN9__gnu_cxx17__normal_iteratorIPPN7omnetpp7cModuleESt6vectorIS3_SaIS3_EEEC2ERKS4_ @6805
    _ZN9__gnu_cxx17__normal_iteratorIPPN7omnetpp7cModuleESt6vectorIS3_SaIS3_EEEppEv @6806
    _ZN9__gnu_cxx17__normal_iteratorIPPN8nlohmann10basic_jsonISt3mapSt6vectorNSt7__cxx1112basic_stringIcSt11char_traitsIcESaIcEEEbxydSaNS1_14adl_serializerES4_IhSaIhEEEES4_ISF_SaISF_EEEC2ERKSG_ @6807
    _ZN9__gnu_cxx17__normal_iteratorIPSt3mapItN19LteAllocationModule23AllocatedRbsPerBandInfoESt4lessItESaISt4pairIKtS3_EEESt6vectorISA_SaISA_EEEC2ERKSB_ @6808
    _ZN9__gnu_cxx17__normal_iteratorIPSt3mapItN19LteAllocationModule23AllocatedRbsPerBandInfoESt4lessItESaISt4pairIKtS3_EEESt6vectorISA_SaISA_EEEC2Ev @6809
    _ZN9__gnu_cxx17__normal_iteratorIPSt3mapItN19LteAllocationModule23AllocatedRbsPerBandInfoESt4lessItESaISt4pairIKtS3_EEESt6vectorISA_SaISA_EEEppEv @6810
    _ZN9__gnu_cxx17__normal_iteratorIPSt4pairIKNSt7__cxx1112basic_stringIcSt11char_traitsIcESaIcEEEN8nlohmann10basic_jsonINS9_11ordered_mapESt6vectorS7_bxydSaNS9_14adl_serializerESC_IhSaIhEEEEESC_ISH_SaISH_EEEC2ERKSI_ @6811
    _ZN9__gnu_cxx17__normal_iteratorIPSt4pairIKNSt7__cxx1112basic_stringIcSt11char_traitsIcESaIcEEEN8nlohmann10basic_jsonINS9_11ordered_mapESt6vectorS7_bxydSaNS9_14adl_serializerESC_IhSaIhEEEEESC_ISH_SaISH_EEEmmEv @6812
    _ZN9__gnu_cxx17__normal_iteratorIPSt4pairIKNSt7__cxx1112basic_stringIcSt11char_traitsIcESaIcEEEN8nlohmann10basic_jsonINS9_11ordered_mapESt6vectorS7_bxydSaNS9_14adl_serializerESC_IhSaIhEEEEESC_ISH_SaISH_EEEppEv @6813
    _ZN9__gnu_cxx17__normal_iteratorIPSt4pairIh15RxHarqPduStatusESt6vectorIS3_SaIS3_EEEC2ERKS4_ @6814
    _ZN9__gnu_cxx17__normal_iteratorIPSt4pairIh15RxHarqPduStatusESt6vectorIS3_SaIS3_EEEppEv @6815
    _ZN9__gnu_cxx17__normal_iteratorIPSt4pairIh15TxHarqPduStatusESt6vectorIS3_SaIS3_EEEC2ERKS4_ @6816
    _ZN9__gnu_cxx17__normal_iteratorIPSt6vectorI11LteFeedbackSaIS2_EES1_IS4_SaIS4_EEEC2ERKS5_ @6817
    _ZN9__gnu_cxx17__normal_iteratorIPSt6vectorI11LteFeedbackSaIS2_EES1_IS4_SaIS4_EEEC2Ev @6818
    _ZN9__gnu_cxx17__normal_iteratorIPSt6vectorI11LteFeedbackSaIS2_EES1_IS4_SaIS4_EEEppEv @6819
    _ZN9__gnu_cxx17__normal_iteratorIPSt6vectorI16LteSummaryBufferSaIS2_EES1_IS4_SaIS4_EEEC2ERKS5_ @6820
    _ZN9__gnu_cxx17__normal_iteratorIPSt6vectorI16UeAllocationInfoSaIS2_EES1_IS4_SaIS4_EEEC2ERKS5_ @6821
    _ZN9__gnu_cxx17__normal_iteratorIPSt6vectorI16UeAllocationInfoSaIS2_EES1_IS4_SaIS4_EEEppEv @6822
    _ZN9__gnu_cxx17__normal_iteratorIPSt6vectorIN7omnetpp7SimTimeESaIS3_EES1_IS5_SaIS5_EEEC2ERKS6_ @6823
    _ZN9__gnu_cxx17__normal_iteratorIPSt6vectorIN7omnetpp7SimTimeESaIS3_EES1_IS5_SaIS5_EEEppEv @6824
    _ZN9__gnu_cxx17__normal_iteratorIPSt6vectorIS1_I16UeAllocationInfoSaIS2_EESaIS4_EES1_IS6_SaIS6_EEEC2ERKS7_ @6825
    _ZN9__gnu_cxx17__normal_iteratorIPSt6vectorIS1_I16UeAllocationInfoSaIS2_EESaIS4_EES1_IS6_SaIS6_EEEppEv @6826
    _ZN9__gnu_cxx17__normal_iteratorIPSt6vectorIS1_IjSaIjEESaIS3_EES1_IS5_SaIS5_EEEC2ERKS6_ @6827
    _ZN9__gnu_cxx17__normal_iteratorIPSt6vectorIS1_IjSaIjEESaIS3_EES1_IS5_SaIS5_EEEC2Ev @6828
    _ZN9__gnu_cxx17__normal_iteratorIPSt6vectorIS1_IjSaIjEESaIS3_EES1_IS5_SaIS5_EEEppEv @6829
    _ZN9__gnu_cxx17__normal_iteratorIPSt6vectorISt3mapItN19LteAllocationModule23AllocatedRbsPerBandInfoESt4lessItESaISt4pairIKtS4_EEESaISB_EES1_ISD_SaISD_EEEC2ERKSE_ @6830
    _ZN9__gnu_cxx17__normal_iteratorIPSt6vectorISt3mapItN19LteAllocationModule23AllocatedRbsPerBandInfoESt4lessItESaISt4pairIKtS4_EEESaISB_EES1_ISD_SaISD_EEEC2Ev @6831
    _ZN9__gnu_cxx17__normal_iteratorIPSt6vectorISt3mapItN19LteAllocationModule23AllocatedRbsPerBandInfoESt4lessItESaISt4pairIKtS4_EEESaISB_EES1_ISD_SaISD_EEEppEv @6832
    _ZN9__gnu_cxx17__normal_iteratorIPSt6vectorISt4pairIh15TxHarqPduStatusESaIS4_EES1_IS6_SaIS6_EEEC2ERKS7_ @6833
    _ZN9__gnu_cxx17__normal_iteratorIPSt6vectorISt4pairIh15TxHarqPduStatusESaIS4_EES1_IS6_SaIS6_EEEppEv @6834
    _ZN9__gnu_cxx17__normal_iteratorIPSt6vectorIjSaIjEES1_IS3_SaIS3_EEEC2ERKS4_ @6835
    _ZN9__gnu_cxx17__normal_iteratorIPSt6vectorIjSaIjEES1_IS3_SaIS3_EEEC2Ev @6836
    _ZN9__gnu_cxx17__normal_iteratorIPSt6vectorIjSaIjEES1_IS3_SaIS3_EEEppEv @6837
    _ZN9__gnu_cxx17__normal_iteratorIPSt6vectorItSaItEES1_IS3_SaIS3_EEEC2ERKS4_ @6838
    _ZN9__gnu_cxx17__normal_iteratorIPSt6vectorItSaItEES1_IS3_SaIS3_EEEC2Ev @6839
    _ZN9__gnu_cxx17__normal_iteratorIPSt6vectorItSaItEES1_IS3_SaIS3_EEEppEv @6840
    _ZN9__gnu_cxx17__normal_iteratorIPcSt6vectorIcSaIcEEEC2ERKS1_ @6841
    _ZN9__gnu_cxx17__normal_iteratorIPdSt6vectorIdSaIdEEEC2ERKS1_ @6842
    _ZN9__gnu_cxx17__normal_iteratorIPdSt6vectorIdSaIdEEEC2Ev @6843
    _ZN9__gnu_cxx17__normal_iteratorIPdSt6vectorIdSaIdEEEppEv @6844
    _ZN9__gnu_cxx17__normal_iteratorIPhSt6vectorIhSaIhEEEC2ERKS1_ @6845
    _ZN9__gnu_cxx17__normal_iteratorIPhSt6vectorIhSaIhEEEmmEv @6846
    _ZN9__gnu_cxx17__normal_iteratorIPhSt6vectorIhSaIhEEEpLEx @6847
    _ZN9__gnu_cxx17__normal_iteratorIPhSt6vectorIhSaIhEEEppEv @6848
    _ZN9__gnu_cxx17__normal_iteratorIPiSt6vectorIiSaIiEEEC2ERKS1_ @6849
    _ZN9__gnu_cxx17__normal_iteratorIPjSt6vectorIjSaIjEEEC2ERKS1_ @6850
    _ZN9__gnu_cxx17__normal_iteratorIPjSt6vectorIjSaIjEEEC2Ev @6851
    _ZN9__gnu_cxx17__normal_iteratorIPjSt6vectorIjSaIjEEEppEv @6852
    _ZN9__gnu_cxx17__normal_iteratorIPsSt6vectorIsSaIsEEEC2ERKS1_ @6853
    _ZN9__gnu_cxx17__normal_iteratorIPsSt6vectorIsSaIsEEEppEv @6854
    _ZN9__gnu_cxx17__normal_iteratorIPtSt6vectorItSaItEEEC2ERKS1_ @6855
    _ZN9__gnu_cxx17__normal_iteratorIPtSt6vectorItSaItEEEC2Ev @6856
    _ZN9__gnu_cxx17__normal_iteratorIPtSt6vectorItSaItEEEmmEv @6857
    _ZN9__gnu_cxx17__normal_iteratorIPtSt6vectorItSaItEEEppEv @6858
    _ZN9__gnu_cxx17__normal_iteratorIPxSt6vectorIxSaIxEEEC2ERKS1_ @6859
    _ZN9__gnu_cxx5__ops14_Iter_comp_valISt4lessI10SortedDescIjdEEEC2EONS0_15_Iter_comp_iterIS5_EE @6860
    _ZN9__gnu_cxx5__ops14_Iter_comp_valISt4lessI10SortedDescIjdEEEC2ES5_ @6861
    _ZN9__gnu_cxx5__ops14_Iter_comp_valISt4lessI10SortedDescIjdEEEclINS_17__normal_iteratorIPS4_St6vectorIS4_SaIS4_EEEES4_EEbT_RT0_ @6862
    _ZN9__gnu_cxx5__ops14_Iter_comp_valISt4lessI10SortedDescIjjEEEC2EONS0_15_Iter_comp_iterIS5_EE @6863
    _ZN9__gnu_cxx5__ops14_Iter_comp_valISt4lessI10SortedDescIjjEEEC2ES5_ @6864
    _ZN9__gnu_cxx5__ops14_Iter_comp_valISt4lessI10SortedDescIjjEEEclINS_17__normal_iteratorIPS4_St6vectorIS4_SaIS4_EEEES4_EEbT_RT0_ @6865
    _ZN9__gnu_cxx5__ops14_Iter_less_valC2ENS0_15_Iter_less_iterE @6866
    _ZN9__gnu_cxx5__ops15_Iter_comp_iterISt4lessI10SortedDescIjdEEEC2ES5_ @6867
    _ZN9__gnu_cxx5__ops15_Iter_comp_iterISt4lessI10SortedDescIjdEEEclINS_17__normal_iteratorIPS4_St6vectorIS4_SaIS4_EEEESD_EEbT_T0_ @6868
    _ZN9__gnu_cxx5__ops15_Iter_comp_iterISt4lessI10SortedDescIjjEEEC2ES5_ @6869
    _ZN9__gnu_cxx5__ops15_Iter_comp_iterISt4lessI10SortedDescIjjEEEclINS_17__normal_iteratorIPS4_St6vectorIS4_SaIS4_EEEESD_EEbT_T0_ @6870
    _ZN9__gnu_cxx5__ops15__val_comp_iterENS0_15_Iter_less_iterE @6871
    _ZN9__gnu_cxx5__ops16__iter_less_iterEv @6872
    _ZN9__gnu_cxx6__stoaIddcJEEET0_PFT_PKT1_PPS3_DpT2_EPKcS5_PyS9_ @6873
    _ZN9__gnu_cxx6__stoaIlicJiEEET0_PFT_PKT1_PPS3_DpT2_EPKcS5_PyS9_ @6874
    _ZN9__gnu_cxxeqIPK10SortedDescIjdESt6vectorIS2_SaIS2_EEEEbRKNS_17__normal_iteratorIT_T0_EESD_ @6875
    _ZN9__gnu_cxxeqIPK10SortedDescIjjESt6vectorIS2_SaIS2_EEEEbRKNS_17__normal_iteratorIT_T0_EESD_ @6876
    _ZN9__gnu_cxxeqIPK14LteControlInfoSt6vectorIS1_SaIS1_EEEEbRKNS_17__normal_iteratorIT_T0_EESC_ @6877
    _ZN9__gnu_cxxeqIPK16TerminalLocationSt6vectorIS1_SaIS1_EEEEbRKNS_17__normal_iteratorIT_T0_EESC_ @6878
    _ZN9__gnu_cxxeqIPK9BandLimitSt6vectorIS1_SaIS1_EEEEbRKNS_17__normal_iteratorIT_T0_EESC_ @6879
    _ZN9__gnu_cxxeqIPKN4inet11Ipv4AddressESt6vectorIS2_SaIS2_EEEEbRKNS_17__normal_iteratorIT_T0_EESD_ @6880
    _ZN9__gnu_cxxeqIPKN7omnetpp7SimTimeESt6vectorIS2_SaIS2_EEEEbRKNS_17__normal_iteratorIT_T0_EESD_ @6881
    _ZN9__gnu_cxxeqIPKN8nlohmann10basic_jsonINS1_11ordered_mapESt6vectorNSt7__cxx1112basic_stringIcSt11char_traitsIcESaIcEEEbxydSaNS1_14adl_serializerES4_IhSaIhEEEES4_ISE_SaISE_EEEEbRKNS_17__normal_iteratorIT_T0_EESO_ @6882
    _ZN9__gnu_cxxeqIPKN8nlohmann10basic_jsonISt3mapSt6vectorNSt7__cxx1112basic_stringIcSt11char_traitsIcESaIcEEEbxydSaNS1_14adl_serializerES4_IhSaIhEEEES4_ISE_SaISE_EEEEbRKNS_17__normal_iteratorIT_T0_EESO_ @6883
    _ZN9__gnu_cxxeqIPKP11LteAirFrameSt6vectorIS2_SaIS2_EEEEbRKNS_17__normal_iteratorIT_T0_EESD_ @6884
    _ZN9__gnu_cxxeqIPKPN8nlohmann10basic_jsonISt3mapSt6vectorNSt7__cxx1112basic_stringIcSt11char_traitsIcESaIcEEEbxydSaNS1_14adl_serializerES4_IhSaIhEEEES4_ISF_SaISF_EEEEbRKNS_17__normal_iteratorIT_T0_EESP_ @6885
    _ZN9__gnu_cxxeqIPKSt4pairIKNSt7__cxx1112basic_stringIcSt11char_traitsIcESaIcEEEN8nlohmann10basic_jsonINS9_11ordered_mapESt6vectorS7_bxydSaNS9_14adl_serializerESC_IhSaIhEEEEESC_ISH_SaISH_EEEEbRKNS_17__normal_iteratorIT_T0_EESR_ @6886
    _ZN9__gnu_cxxeqIPKSt6vectorI16UeAllocationInfoSaIS2_EES1_IS4_SaIS4_EEEEbRKNS_17__normal_iteratorIT_T0_EESE_ @6887
    _ZN9__gnu_cxxeqIPKSt6vectorIS1_I16UeAllocationInfoSaIS2_EESaIS4_EES1_IS6_SaIS6_EEEEbRKNS_17__normal_iteratorIT_T0_EESG_ @6888
    _ZN9__gnu_cxxeqIPKSt6vectorISt3mapItN19LteAllocationModule23AllocatedRbsPerBandInfoESt4lessItESaISt4pairIKtS4_EEESaISB_EES1_ISD_SaISD_EEEEbRKNS_17__normal_iteratorIT_T0_EESN_ @6889
    _ZN9__gnu_cxxeqIPKcSt6vectorIcSaIcEEEEbRKNS_17__normal_iteratorIT_T0_EESB_ @6890
    _ZN9__gnu_cxxeqIPKhSt6vectorIhSaIhEEEEbRKNS_17__normal_iteratorIT_T0_EESB_ @6891
    _ZN9__gnu_cxxeqIPKtSt6vectorItSaItEEEEbRKNS_17__normal_iteratorIT_T0_EESB_ @6892
    _ZN9__gnu_cxxeqIPN7omnetpp7SimTimeESt6vectorIS2_SaIS2_EEEEbRKNS_17__normal_iteratorIT_T0_EESC_ @6893
    _ZN9__gnu_cxxeqIPN8nlohmann10basic_jsonISt3mapSt6vectorNSt7__cxx1112basic_stringIcSt11char_traitsIcESaIcEEEbxydSaNS1_14adl_serializerES4_IhSaIhEEEES4_ISE_SaISE_EEEEbRKNS_17__normal_iteratorIT_T0_EESN_ @6894
    _ZN9__gnu_cxxeqIPPN7omnetpp7cModuleESt6vectorIS3_SaIS3_EEEEbRKNS_17__normal_iteratorIT_T0_EESD_ @6895
    _ZN9__gnu_cxxeqIPtSt6vectorItSaItEEEEbRKNS_17__normal_iteratorIT_T0_EESA_ @6896
    _ZN9__gnu_cxxltIPN7omnetpp7SimTimeESt6vectorIS2_SaIS2_EEEEbRKNS_17__normal_iteratorIT_T0_EESC_ @6897
    _ZN9__gnu_cxxltIPtSt6vectorItSaItEEEEbRKNS_17__normal_iteratorIT_T0_EESA_ @6898
    _ZN9__gnu_cxxmiIP10SortedDescIjdESt6vectorIS2_SaIS2_EEEENS_17__normal_iteratorIT_T0_E15difference_typeERKSA_SD_ @6899
    _ZN9__gnu_cxxmiIP10SortedDescIjjESt6vectorIS2_SaIS2_EEEENS_17__normal_iteratorIT_T0_E15difference_typeERKSA_SD_ @6900
    _ZN9__gnu_cxxmiIP11ServiceInfoSt6vectorIS1_SaIS1_EEEENS_17__normal_iteratorIT_T0_E15difference_typeERKS9_SC_ @6901
    _ZN9__gnu_cxxmiIP12CompRbStatusSt6vectorIS1_SaIS1_EEEENS_17__normal_iteratorIT_T0_E15difference_typeERKS9_SC_ @6902
    _ZN9__gnu_cxxmiIP12UserTxParamsSt6vectorIS1_SaIS1_EEEENS_17__normal_iteratorIT_T0_E15difference_typeERKS9_SC_ @6903
    _ZN9__gnu_cxxmiIP14LteControlInfoSt6vectorIS1_SaIS1_EEEENS_17__normal_iteratorIT_T0_E15difference_typeERKS9_SC_ @6904
    _ZN9__gnu_cxxmiIP15RxHarqPduStatusSt6vectorIS1_SaIS1_EEEENS_17__normal_iteratorIT_T0_E15difference_typeERKS9_SC_ @6905
    _ZN9__gnu_cxxmiIP15TxHarqPduStatusSt6vectorIS1_SaIS1_EEEENS_17__normal_iteratorIT_T0_E15difference_typeERKS9_SC_ @6906
    _ZN9__gnu_cxxmiIP16TerminalLocationSt6vectorIS1_SaIS1_EEEENS_17__normal_iteratorIT_T0_E15difference_typeERKS9_SC_ @6907
    _ZN9__gnu_cxxmiIP16UeAllocationInfoSt6vectorIS1_SaIS1_EEEENS_17__normal_iteratorIT_T0_E15difference_typeERKS9_SC_ @6908
    _ZN9__gnu_cxxmiIP17RemoteUnitPhyDataSt6vectorIS1_SaIS1_EEEENS_17__normal_iteratorIT_T0_E15difference_typeERKS9_SC_ @6909
    _ZN9__gnu_cxxmiIP8CGVertexSt6vectorIS1_SaIS1_EEEENS_17__normal_iteratorIT_T0_E15difference_typeERKS9_SC_ @6910
    _ZN9__gnu_cxxmiIP9BandLimitSt6vectorIS1_SaIS1_EEEENS_17__normal_iteratorIT_T0_E15difference_typeERKS9_SC_ @6911
    _ZN9__gnu_cxxmiIPK16UeAllocationInfoSt6vectorIS1_SaIS1_EEEENS_17__normal_iteratorIT_T0_E15difference_typeERKSA_SD_ @6912
    _ZN9__gnu_cxxmiIPKN20PacketFlowManagerEnb5GrantESt6vectorIS2_SaIS2_EEEENS_17__normal_iteratorIT_T0_E15difference_typeERKSB_SE_ @6913
    _ZN9__gnu_cxxmiIPKN8nlohmann10basic_jsonINS1_11ordered_mapESt6vectorNSt7__cxx1112basic_stringIcSt11char_traitsIcESaIcEEEbxydSaNS1_14adl_serializerES4_IhSaIhEEEES4_ISE_SaISE_EEEENS_17__normal_iteratorIT_T0_E15difference_typeERKSM_SP_ @6914
    _ZN9__gnu_cxxmiIPKN8nlohmann10basic_jsonISt3mapSt6vectorNSt7__cxx1112basic_stringIcSt11char_traitsIcESaIcEEEbxydSaNS1_14adl_serializerES4_IhSaIhEEEES4_ISE_SaISE_EEEENS_17__normal_iteratorIT_T0_E15difference_typeERKSM_SP_ @6915
    _ZN9__gnu_cxxmiIPKP11MultihopD2DSt6vectorIS2_SaIS2_EEEENS_17__normal_iteratorIT_T0_E15difference_typeERKSB_SE_ @6916
    _ZN9__gnu_cxxmiIPKSt6vectorIS1_I16UeAllocationInfoSaIS2_EESaIS4_EES1_IS6_SaIS6_EEEENS_17__normal_iteratorIT_T0_E15difference_typeERKSE_SH_ @6917
    _ZN9__gnu_cxxmiIPKhSt6vectorIhSaIhEEEENS_17__normal_iteratorIT_T0_E15difference_typeERKS9_SC_ @6918
    _ZN9__gnu_cxxmiIPKiSt6vectorIiSaIiEEEENS_17__normal_iteratorIT_T0_E15difference_typeERKS9_SC_ @6919
    _ZN9__gnu_cxxmiIPN12VoDUDPServer9svcPacketESt6vectorIS2_SaIS2_EEEENS_17__normal_iteratorIT_T0_E15difference_typeERKSA_SD_ @6920
    _ZN9__gnu_cxxmiIPN16RemoteAntennaSet13RemoteAntennaESt6vectorIS2_SaIS2_EEEENS_17__normal_iteratorIT_T0_E15difference_typeERKSA_SD_ @6921
    _ZN9__gnu_cxxmiIPN20PacketFlowManagerEnb5GrantESt6vectorIS2_SaIS2_EEEENS_17__normal_iteratorIT_T0_E15difference_typeERKSA_SD_ @6922
    _ZN9__gnu_cxxmiIPN24LteRealisticChannelModel15JakesFadingDataESt6vectorIS2_SaIS2_EEEENS_17__normal_iteratorIT_T0_E15difference_typeERKSA_SD_ @6923
    _ZN9__gnu_cxxmiIPN26BackgroundCellChannelModel15JakesFadingDataESt6vectorIS2_SaIS2_EEEENS_17__normal_iteratorIT_T0_E15difference_typeERKSA_SD_ @6924
    _ZN9__gnu_cxxmiIPN4inet11Ipv4AddressESt6vectorIS2_SaIS2_EEEENS_17__normal_iteratorIT_T0_E15difference_typeERKSA_SD_ @6925
    _ZN9__gnu_cxxmiIPN4inet9L3AddressESt6vectorIS2_SaIS2_EEEENS_17__normal_iteratorIT_T0_E15difference_typeERKSA_SD_ @6926
    _ZN9__gnu_cxxmiIPN7omnetpp7SimTimeESt6vectorIS2_SaIS2_EEEENS_17__normal_iteratorIT_T0_E15difference_typeERKSA_SD_ @6927
    _ZN9__gnu_cxxmiIPN8nlohmann10basic_jsonINS1_11ordered_mapESt6vectorNSt7__cxx1112basic_stringIcSt11char_traitsIcESaIcEEEbxydSaNS1_14adl_serializerES4_IhSaIhEEEES4_ISE_SaISE_EEEENS_17__normal_iteratorIT_T0_E15difference_typeERKSL_SO_ @6928
    _ZN9__gnu_cxxmiIPN8nlohmann10basic_jsonISt3mapSt6vectorNSt7__cxx1112basic_stringIcSt11char_traitsIcESaIcEEEbxydSaNS1_14adl_serializerES4_IhSaIhEEEES4_ISE_SaISE_EEEENS_17__normal_iteratorIT_T0_E15difference_typeERKSL_SO_ @6929
    _ZN9__gnu_cxxmiIPNSt7__cxx1112basic_stringIcSt11char_traitsIcESaIcEEESt6vectorIS6_SaIS6_EEEENS_17__normal_iteratorIT_T0_E15difference_typeERKSE_SH_ @6930
    _ZN9__gnu_cxxmiIPP11LteAirFrameSt6vectorIS2_SaIS2_EEEENS_17__normal_iteratorIT_T0_E15difference_typeERKSA_SD_ @6931
    _ZN9__gnu_cxxmiIPP11MultihopD2DSt6vectorIS2_SaIS2_EEEENS_17__normal_iteratorIT_T0_E15difference_typeERKSA_SD_ @6932
    _ZN9__gnu_cxxmiIPP12LteSchedulerSt6vectorIS2_SaIS2_EEEENS_17__normal_iteratorIT_T0_E15difference_typeERKSA_SD_ @6933
    _ZN9__gnu_cxxmiIPP19BackgroundSchedulerSt6vectorIS2_SaIS2_EEEENS_17__normal_iteratorIT_T0_E15difference_typeERKSA_SD_ @6934
    _ZN9__gnu_cxxmiIPP20BgTrafficManagerInfoSt6vectorIS2_SaIS2_EEEENS_17__normal_iteratorIT_T0_E15difference_typeERKSA_SD_ @6935
    _ZN9__gnu_cxxmiIPP20TrafficGeneratorBaseSt6vectorIS2_SaIS2_EEEENS_17__normal_iteratorIT_T0_E15difference_typeERKSA_SD_ @6936
    _ZN9__gnu_cxxmiIPP22TrafficLightControllerSt6vectorIS2_SaIS2_EEEENS_17__normal_iteratorIT_T0_E15difference_typeERKSA_SD_ @6937
    _ZN9__gnu_cxxmiIPP23LteHarqProcessMirrorD2DSt6vectorIS2_SaIS2_EEEENS_17__normal_iteratorIT_T0_E15difference_typeERKSA_SD_ @6938
    _ZN9__gnu_cxxmiIPP6UeInfoSt6vectorIS2_SaIS2_EEEENS_17__normal_iteratorIT_T0_E15difference_typeERKSA_SD_ @6939
    _ZN9__gnu_cxxmiIPP7EnbInfoSt6vectorIS2_SaIS2_EEEENS_17__normal_iteratorIT_T0_E15difference_typeERKSA_SD_ @6940
    _ZN9__gnu_cxxmiIPP7ExtCellSt6vectorIS2_SaIS2_EEEENS_17__normal_iteratorIT_T0_E15difference_typeERKSA_SD_ @6941
    _ZN9__gnu_cxxmiIPPN15IChannelControl10RadioEntryESt6vectorIS3_SaIS3_EEEENS_17__normal_iteratorIT_T0_E15difference_typeERKSB_SE_ @6942
    _ZN9__gnu_cxxmiIPPN4inet6PacketESt6vectorIS3_SaIS3_EEEENS_17__normal_iteratorIT_T0_E15difference_typeERKSB_SE_ @6943
    _ZN9__gnu_cxxmiIPPN7omnetpp7cModuleESt6vectorIS3_SaIS3_EEEENS_17__normal_iteratorIT_T0_E15difference_typeERKSB_SE_ @6944
    _ZN9__gnu_cxxmiIPPN8nlohmann10basic_jsonISt3mapSt6vectorNSt7__cxx1112basic_stringIcSt11char_traitsIcESaIcEEEbxydSaNS1_14adl_serializerES4_IhSaIhEEEES4_ISF_SaISF_EEEENS_17__normal_iteratorIT_T0_E15difference_typeERKSM_SP_ @6945
    _ZN9__gnu_cxxmiIPSt4pairIKNSt7__cxx1112basic_stringIcSt11char_traitsIcESaIcEEEN8nlohmann10basic_jsonINS9_11ordered_mapESt6vectorS7_bxydSaNS9_14adl_serializerESC_IhSaIhEEEEESC_ISH_SaISH_EEEENS_17__normal_iteratorIT_T0_E15difference_typeERKSO_SR_ @6946
    _ZN9__gnu_cxxmiIPSt6vectorI16LteSummaryBufferSaIS2_EES1_IS4_SaIS4_EEEENS_17__normal_iteratorIT_T0_E15difference_typeERKSB_SE_ @6947
    _ZN9__gnu_cxxmiIPSt6vectorIS1_I16UeAllocationInfoSaIS2_EESaIS4_EES1_IS6_SaIS6_EEEENS_17__normal_iteratorIT_T0_E15difference_typeERKSD_SG_ @6948
    _ZN9__gnu_cxxmiIPSt6vectorItSaItEES1_IS3_SaIS3_EEEENS_17__normal_iteratorIT_T0_E15difference_typeERKSA_SD_ @6949
    _ZN9__gnu_cxxmiIPcNSt7__cxx1112basic_stringIcSt11char_traitsIcESaIcEEEEENS_17__normal_iteratorIT_T0_E15difference_typeERKSB_SE_ @6950
    _ZN9__gnu_cxxmiIPcSt6vectorIcSaIcEEEENS_17__normal_iteratorIT_T0_E15difference_typeERKS8_SB_ @6951
    _ZN9__gnu_cxxmiIPdSt6vectorIdSaIdEEEENS_17__normal_iteratorIT_T0_E15difference_typeERKS8_SB_ @6952
    _ZN9__gnu_cxxmiIPhSt6vectorIhSaIhEEEENS_17__normal_iteratorIT_T0_E15difference_typeERKS8_SB_ @6953
    _ZN9__gnu_cxxmiIPiSt6vectorIiSaIiEEEENS_17__normal_iteratorIT_T0_E15difference_typeERKS8_SB_ @6954
    _ZN9__gnu_cxxmiIPjSt6vectorIjSaIjEEEENS_17__normal_iteratorIT_T0_E15difference_typeERKS8_SB_ @6955
    _ZN9__gnu_cxxmiIPsSt6vectorIsSaIsEEEENS_17__normal_iteratorIT_T0_E15difference_typeERKS8_SB_ @6956
    _ZN9__gnu_cxxmiIPtSt6vectorItSaItEEEENS_17__normal_iteratorIT_T0_E15difference_typeERKS8_SB_ @6957
    _ZN9__gnu_cxxmiIPxSt6vectorIxSaIxEEEENS_17__normal_iteratorIT_T0_E15difference_typeERKS8_SB_ @6958
    _ZN9__gnu_cxxneIP11LteFeedbackSt6vectorIS1_SaIS1_EEEEbRKNS_17__normal_iteratorIT_T0_EESB_ @6959
    _ZN9__gnu_cxxneIP11ServiceInfoSt6vectorIS1_SaIS1_EEEEbRKNS_17__normal_iteratorIT_T0_EESB_ @6960
    _ZN9__gnu_cxxneIP12CompRbStatusSt6vectorIS1_SaIS1_EEEEbRKNS_17__normal_iteratorIT_T0_EESB_ @6961
    _ZN9__gnu_cxxneIP12UserTxParamsSt6vectorIS1_SaIS1_EEEEbRKNS_17__normal_iteratorIT_T0_EESB_ @6962
    _ZN9__gnu_cxxneIP15TxHarqPduStatusSt6vectorIS1_SaIS1_EEEEbRKNS_17__normal_iteratorIT_T0_EESB_ @6963
    _ZN9__gnu_cxxneIP16LteSummaryBufferSt6vectorIS1_SaIS1_EEEEbRKNS_17__normal_iteratorIT_T0_EESB_ @6964
    _ZN9__gnu_cxxneIP16TerminalLocationSt6vectorIS1_SaIS1_EEEEbRKNS_17__normal_iteratorIT_T0_EESB_ @6965
    _ZN9__gnu_cxxneIP16UeAllocationInfoSt6vectorIS1_SaIS1_EEEEbRKNS_17__normal_iteratorIT_T0_EESB_ @6966
    _ZN9__gnu_cxxneIP9BandLimitSt6vectorIS1_SaIS1_EEEEbRKNS_17__normal_iteratorIT_T0_EESB_ @6967
    _ZN9__gnu_cxxneIPK11LteFeedbackSt6vectorIS1_SaIS1_EEEEbRKNS_17__normal_iteratorIT_T0_EESC_ @6968
    _ZN9__gnu_cxxneIPK11ServiceInfoSt6vectorIS1_SaIS1_EEEEbRKNS_17__normal_iteratorIT_T0_EESC_ @6969
    _ZN9__gnu_cxxneIPK12UserTxParamsSt6vectorIS1_SaIS1_EEEEbRKNS_17__normal_iteratorIT_T0_EESC_ @6970
    _ZN9__gnu_cxxneIPK16LteSummaryBufferSt6vectorIS1_SaIS1_EEEEbRKNS_17__normal_iteratorIT_T0_EESC_ @6971
    _ZN9__gnu_cxxneIPK16TerminalLocationSt6vectorIS1_SaIS1_EEEEbRKNS_17__normal_iteratorIT_T0_EESC_ @6972
    _ZN9__gnu_cxxneIPK16UeAllocationInfoSt6vectorIS1_SaIS1_EEEEbRKNS_17__normal_iteratorIT_T0_EESC_ @6973
    _ZN9__gnu_cxxneIPK17RemoteUnitPhyDataSt6vectorIS1_SaIS1_EEEEbRKNS_17__normal_iteratorIT_T0_EESC_ @6974
    _ZN9__gnu_cxxneIPK8CGVertexSt6vectorIS1_SaIS1_EEEEbRKNS_17__normal_iteratorIT_T0_EESC_ @6975
    _ZN9__gnu_cxxneIPK9BandLimitSt6vectorIS1_SaIS1_EEEEbRKNS_17__normal_iteratorIT_T0_EESC_ @6976
    _ZN9__gnu_cxxneIPKN4inet11Ipv4AddressEPS2_St6vectorIS2_SaIS2_EEEEbRKNS_17__normal_iteratorIT_T1_EERKNS9_IT0_SB_EE @6977
    _ZN9__gnu_cxxneIPKN4inet14MulticastGroupESt6vectorIS2_SaIS2_EEEEbRKNS_17__normal_iteratorIT_T0_EESD_ @6978
    _ZN9__gnu_cxxneIPKN7omnetpp7SimTimeESt6vectorIS2_SaIS2_EEEEbRKNS_17__normal_iteratorIT_T0_EESD_ @6979
    _ZN9__gnu_cxxneIPKN8nlohmann10basic_jsonINS1_11ordered_mapESt6vectorNSt7__cxx1112basic_stringIcSt11char_traitsIcESaIcEEEbxydSaNS1_14adl_serializerES4_IhSaIhEEEES4_ISE_SaISE_EEEEbRKNS_17__normal_iteratorIT_T0_EESO_ @6980
    _ZN9__gnu_cxxneIPKN8nlohmann10basic_jsonISt3mapSt6vectorNSt7__cxx1112basic_stringIcSt11char_traitsIcESaIcEEEbxydSaNS1_14adl_serializerES4_IhSaIhEEEES4_ISE_SaISE_EEEEbRKNS_17__normal_iteratorIT_T0_EESO_ @6981
    _ZN9__gnu_cxxneIPKNSt7__cxx1112basic_stringIcSt11char_traitsIcESaIcEEESt6vectorIS6_SaIS6_EEEEbRKNS_17__normal_iteratorIT_T0_EESH_ @6982
    _ZN9__gnu_cxxneIPKP16LteHarqProcessRxSt6vectorIS2_SaIS2_EEEEbRKNS_17__normal_iteratorIT_T0_EESD_ @6983
    _ZN9__gnu_cxxneIPKP16LteHarqProcessTxSt6vectorIS2_SaIS2_EEEEbRKNS_17__normal_iteratorIT_T0_EESD_ @6984
    _ZN9__gnu_cxxneIPKP20TrafficGeneratorBaseSt6vectorIS2_SaIS2_EEEEbRKNS_17__normal_iteratorIT_T0_EESD_ @6985
    _ZN9__gnu_cxxneIPKPN7omnetpp11cXMLElementEPS3_St6vectorIS3_SaIS3_EEEEbRKNS_17__normal_iteratorIT_T1_EERKNSA_IT0_SC_EE @6986
    _ZN9__gnu_cxxneIPKPN7omnetpp7cModuleESt6vectorIS3_SaIS3_EEEEbRKNS_17__normal_iteratorIT_T0_EESE_ @6987
    _ZN9__gnu_cxxneIPKSt3mapIt23AllocatedRbsPerBandInfoSt4lessItESaISt4pairIKtS2_EEESt6vectorIS9_SaIS9_EEEEbRKNS_17__normal_iteratorIT_T0_EESK_ @6988
    _ZN9__gnu_cxxneIPKSt3mapItN19LteAllocationModule23AllocatedRbsPerBandInfoESt4lessItESaISt4pairIKtS3_EEESt6vectorISA_SaISA_EEEEbRKNS_17__normal_iteratorIT_T0_EESL_ @6989
    _ZN9__gnu_cxxneIPKSt4pairIKNSt7__cxx1112basic_stringIcSt11char_traitsIcESaIcEEEN8nlohmann10basic_jsonINS9_11ordered_mapESt6vectorS7_bxydSaNS9_14adl_serializerESC_IhSaIhEEEEESC_ISH_SaISH_EEEEbRKNS_17__normal_iteratorIT_T0_EESR_ @6990
    _ZN9__gnu_cxxneIPKSt4pairIh15RxHarqPduStatusESt6vectorIS3_SaIS3_EEEEbRKNS_17__normal_iteratorIT_T0_EESE_ @6991
    _ZN9__gnu_cxxneIPKSt4pairIh15TxHarqPduStatusESt6vectorIS3_SaIS3_EEEEbRKNS_17__normal_iteratorIT_T0_EESE_ @6992
    _ZN9__gnu_cxxneIPKSt6vectorI11LteFeedbackSaIS2_EES1_IS4_SaIS4_EEEEbRKNS_17__normal_iteratorIT_T0_EESE_ @6993
    _ZN9__gnu_cxxneIPKSt6vectorI16LteSummaryBufferSaIS2_EES1_IS4_SaIS4_EEEEbRKNS_17__normal_iteratorIT_T0_EESE_ @6994
    _ZN9__gnu_cxxneIPKSt6vectorIN7omnetpp7SimTimeESaIS3_EES1_IS5_SaIS5_EEEEbRKNS_17__normal_iteratorIT_T0_EESF_ @6995
    _ZN9__gnu_cxxneIPKSt6vectorISt3mapIt23AllocatedRbsPerBandInfoSt4lessItESaISt4pairIKtS3_EEESaISA_EES1_ISC_SaISC_EEEEbRKNS_17__normal_iteratorIT_T0_EESM_ @6996
    _ZN9__gnu_cxxneIPKSt6vectorISt3mapItN19LteAllocationModule23AllocatedRbsPerBandInfoESt4lessItESaISt4pairIKtS4_EEESaISB_EES1_ISD_SaISD_EEEEbRKNS_17__normal_iteratorIT_T0_EESN_ @6997
    _ZN9__gnu_cxxneIPKSt6vectorItSaItEES1_IS3_SaIS3_EEEEbRKNS_17__normal_iteratorIT_T0_EESD_ @6998
    _ZN9__gnu_cxxneIPKcNSt7__cxx1112basic_stringIcSt11char_traitsIcESaIcEEEEEbRKNS_17__normal_iteratorIT_T0_EESE_ @6999
    _ZN9__gnu_cxxneIPKcSt6vectorIcSaIcEEEEbRKNS_17__normal_iteratorIT_T0_EESB_ @7000
    _ZN9__gnu_cxxneIPKhSt6vectorIhSaIhEEEEbRKNS_17__normal_iteratorIT_T0_EESB_ @7001
    _ZN9__gnu_cxxneIPKjSt6vectorIjSaIjEEEEbRKNS_17__normal_iteratorIT_T0_EESB_ @7002
    _ZN9__gnu_cxxneIPKtPtSt6vectorItSaItEEEEbRKNS_17__normal_iteratorIT_T1_EERKNS7_IT0_S9_EE @7003
    _ZN9__gnu_cxxneIPN20PacketFlowManagerEnb5GrantESt6vectorIS2_SaIS2_EEEEbRKNS_17__normal_iteratorIT_T0_EESC_ @7004
    _ZN9__gnu_cxxneIPN4inet11Ipv4AddressESt6vectorIS2_SaIS2_EEEEbRKNS_17__normal_iteratorIT_T0_EESC_ @7005
    _ZN9__gnu_cxxneIPN7omnetpp7SimTimeESt6vectorIS2_SaIS2_EEEEbRKNS_17__normal_iteratorIT_T0_EESC_ @7006
    _ZN9__gnu_cxxneIPN8nlohmann10basic_jsonISt3mapSt6vectorNSt7__cxx1112basic_stringIcSt11char_traitsIcESaIcEEEbxydSaNS1_14adl_serializerES4_IhSaIhEEEES4_ISE_SaISE_EEEEbRKNS_17__normal_iteratorIT_T0_EESN_ @7007
    _ZN9__gnu_cxxneIPNSt7__cxx1112basic_stringIcSt11char_traitsIcESaIcEEESt6vectorIS6_SaIS6_EEEEbRKNS_17__normal_iteratorIT_T0_EESG_ @7008
    _ZN9__gnu_cxxneIPP11MultihopD2DSt6vectorIS2_SaIS2_EEEEbRKNS_17__normal_iteratorIT_T0_EESC_ @7009
    _ZN9__gnu_cxxneIPP12LteSchedulerSt6vectorIS2_SaIS2_EEEEbRKNS_17__normal_iteratorIT_T0_EESC_ @7010
    _ZN9__gnu_cxxneIPP13LteHarqUnitTxSt6vectorIS2_SaIS2_EEEEbRKNS_17__normal_iteratorIT_T0_EESC_ @7011
    _ZN9__gnu_cxxneIPP16LteHarqProcessRxSt6vectorIS2_SaIS2_EEEEbRKNS_17__normal_iteratorIT_T0_EESC_ @7012
    _ZN9__gnu_cxxneIPP16LteHarqProcessTxSt6vectorIS2_SaIS2_EEEEbRKNS_17__normal_iteratorIT_T0_EESC_ @7013
    _ZN9__gnu_cxxneIPP19BackgroundSchedulerSt6vectorIS2_SaIS2_EEEEbRKNS_17__normal_iteratorIT_T0_EESC_ @7014
    _ZN9__gnu_cxxneIPP22TrafficLightControllerSt6vectorIS2_SaIS2_EEEEbRKNS_17__normal_iteratorIT_T0_EESC_ @7015
    _ZN9__gnu_cxxneIPP6UeInfoSt6vectorIS2_SaIS2_EEEEbRKNS_17__normal_iteratorIT_T0_EESC_ @7016
    _ZN9__gnu_cxxneIPP7EnbInfoSt6vectorIS2_SaIS2_EEEEbRKNS_17__normal_iteratorIT_T0_EESC_ @7017
    _ZN9__gnu_cxxneIPP7ExtCellSt6vectorIS2_SaIS2_EEEEbRKNS_17__normal_iteratorIT_T0_EESC_ @7018
    _ZN9__gnu_cxxneIPPN7omnetpp7cModuleESt6vectorIS3_SaIS3_EEEEbRKNS_17__normal_iteratorIT_T0_EESD_ @7019
    _ZN9__gnu_cxxneIPSt3mapItN19LteAllocationModule23AllocatedRbsPerBandInfoESt4lessItESaISt4pairIKtS3_EEESt6vectorISA_SaISA_EEEEbRKNS_17__normal_iteratorIT_T0_EESK_ @7020
    _ZN9__gnu_cxxneIPSt4pairIKNSt7__cxx1112basic_stringIcSt11char_traitsIcESaIcEEEN8nlohmann10basic_jsonINS9_11ordered_mapESt6vectorS7_bxydSaNS9_14adl_serializerESC_IhSaIhEEEEESC_ISH_SaISH_EEEEbRKNS_17__normal_iteratorIT_T0_EESQ_ @7021
    _ZN9__gnu_cxxneIPSt4pairIh15RxHarqPduStatusESt6vectorIS3_SaIS3_EEEEbRKNS_17__normal_iteratorIT_T0_EESD_ @7022
    _ZN9__gnu_cxxneIPSt6vectorI11LteFeedbackSaIS2_EES1_IS4_SaIS4_EEEEbRKNS_17__normal_iteratorIT_T0_EESD_ @7023
    _ZN9__gnu_cxxneIPSt6vectorI16UeAllocationInfoSaIS2_EES1_IS4_SaIS4_EEEEbRKNS_17__normal_iteratorIT_T0_EESD_ @7024
    _ZN9__gnu_cxxneIPSt6vectorIN7omnetpp7SimTimeESaIS3_EES1_IS5_SaIS5_EEEEbRKNS_17__normal_iteratorIT_T0_EESE_ @7025
    _ZN9__gnu_cxxneIPSt6vectorIS1_I16UeAllocationInfoSaIS2_EESaIS4_EES1_IS6_SaIS6_EEEEbRKNS_17__normal_iteratorIT_T0_EESF_ @7026
    _ZN9__gnu_cxxneIPSt6vectorIS1_IjSaIjEESaIS3_EES1_IS5_SaIS5_EEEEbRKNS_17__normal_iteratorIT_T0_EESE_ @7027
    _ZN9__gnu_cxxneIPSt6vectorISt3mapItN19LteAllocationModule23AllocatedRbsPerBandInfoESt4lessItESaISt4pairIKtS4_EEESaISB_EES1_ISD_SaISD_EEEEbRKNS_17__normal_iteratorIT_T0_EESM_ @7028
    _ZN9__gnu_cxxneIPSt6vectorISt4pairIh15TxHarqPduStatusESaIS4_EES1_IS6_SaIS6_EEEEbRKNS_17__normal_iteratorIT_T0_EESF_ @7029
    _ZN9__gnu_cxxneIPSt6vectorIjSaIjEES1_IS3_SaIS3_EEEEbRKNS_17__normal_iteratorIT_T0_EESC_ @7030
    _ZN9__gnu_cxxneIPSt6vectorItSaItEES1_IS3_SaIS3_EEEEbRKNS_17__normal_iteratorIT_T0_EESC_ @7031
    _ZN9__gnu_cxxneIPdSt6vectorIdSaIdEEEEbRKNS_17__normal_iteratorIT_T0_EESA_ @7032
    _ZN9__gnu_cxxneIPhSt6vectorIhSaIhEEEEbRKNS_17__normal_iteratorIT_T0_EESA_ @7033
    _ZN9__gnu_cxxneIPiSt6vectorIiSaIiEEEEbRKNS_17__normal_iteratorIT_T0_EESA_ @7034
    _ZN9__gnu_cxxneIPjSt6vectorIjSaIjEEEEbRKNS_17__normal_iteratorIT_T0_EESA_ @7035
    _ZN9__gnu_cxxneIPsSt6vectorIsSaIsEEEEbRKNS_17__normal_iteratorIT_T0_EESA_ @7036
    _ZN9__gnu_cxxneIPtSt6vectorItSaItEEEEbRKNS_17__normal_iteratorIT_T0_EESA_ @7037
    _ZNK10CellUEInfo6toJsonB5cxx11Ev @7038
    _ZNK10GtpUserMsg10parsimPackEPN7omnetpp11cCommBufferE @7039
    _ZNK10GtpUserMsg3dupEv @7040
    _ZNK10GtpUserMsg7getTeidEv @7041
    _ZNK10LteMacBase13numInitStagesEv @7042
    _ZNK10LteMacBase14refreshDisplayEv @7043
    _ZNK10LteMacBase6muMimoEv @7044
    _ZNK10LtePdcpPdu10parsimPackEPN7omnetpp11cCommBufferE @7045
    _ZNK10LtePdcpPdu3dupEv @7046
    _ZNK10LtePhyBase13numInitStagesEv @7047
    _ZNK10LtePhyBase20getReceiverGateIndexEPKN7omnetpp7cModuleEb @7048
    _ZNK10LteRohcPdu10parsimPackEPN7omnetpp11cCommBufferE @7049
    _ZNK10LteRohcPdu19getOrigSizeIpHeaderEv @7050
    _ZNK10LteRohcPdu26getOrigSizeTransportHeaderEv @7051
    _ZNK10LteRohcPdu3dupEv @7052
    _ZNK10MecAppBase13numInitStagesEv @7053
    _ZNK10SortedDescIjdEltERKS0_ @7054
    _ZNK10SortedDescIjjEltERKS0_ @7055
    _ZNK10UmRxEntity7isEmptyEv @7056
    _ZNK10VoIPSender13numInitStagesEv @7057
    _ZNK10VoipPacket10getIDframeEv @7058
    _ZNK10VoipPacket10getNframesEv @7059
    _ZNK10VoipPacket10parsimPackEPN7omnetpp11cCommBufferE @7060
    _ZNK10VoipPacket14getArrivalTimeEv @7061
    _ZNK10VoipPacket14getPayloadSizeEv @7062
    _ZNK10VoipPacket14getPlayoutTimeEv @7063
    _ZNK10VoipPacket19getPayloadTimestampEv @7064
    _ZNK10VoipPacket3dupEv @7065
    _ZNK10VoipPacket9getIDtalkEv @7066
    _ZNK11AlertPacket10parsimPackEPN7omnetpp11cCommBufferE @7067
    _ZNK11AlertPacket19getPayloadTimestampEv @7068
    _ZNK11AlertPacket3dupEv @7069
    _ZNK11AlertPacket6getSnoEv @7070
    _ZNK11AlertSender13numInitStagesEv @7071
    _ZNK11AlertSender14refreshDisplayEv @7072
    _ZNK11AssociateId6toJsonB5cxx11Ev @7073
    _ZNK11AssociateId7getTypeB5cxx11Ev @7074
    _ZNK11AssociateId8getValueB5cxx11Ev @7075
    _ZNK11BurstPacket10parsimPackEPN7omnetpp11cCommBufferE @7076
    _ZNK11BurstPacket14getArrivalTimeEv @7077
    _ZNK11BurstPacket14getPayloadSizeEv @7078
    _ZNK11BurstPacket19getPayloadTimestampEv @7079
    _ZNK11BurstPacket3dupEv @7080
    _ZNK11BurstPacket8getMsgIdEv @7081
    _ZNK11BurstSender13numInitStagesEv @7082
    _ZNK11CategoryRef6toJsonB5cxx11Ev @7083
    _ZNK11CbrReceiver13numInitStagesEv @7084
    _ZNK11LteAirFrame3dupEv @7085
    _ZNK11LteFeedback10getBandCqiEv @7086
    _ZNK11LteFeedback10getBandPmiEv @7087
    _ZNK11LteFeedback10hasBandCqiEv @7088
    _ZNK11LteFeedback10hasBandPmiEv @7089
    _ZNK11LteFeedback12getAntennaIdEv @7090
    _ZNK11LteFeedback15getPreferredCqiEv @7091
    _ZNK11LteFeedback15getPreferredPmiEv @7092
    _ZNK11LteFeedback15hasPreferredCqiEv @7093
    _ZNK11LteFeedback15hasPreferredPmiEv @7094
    _ZNK11LteFeedback15isEmptyFeedbackEv @7095
    _ZNK11LteFeedback16getRankIndicatorEv @7096
    _ZNK11LteFeedback16hasRankIndicatorEv @7097
    _ZNK11LteFeedback17getPreferredBandsEv @7098
    _ZNK11LteFeedback18isPeriodicFeedbackEv @7099
    _ZNK11LteFeedback5printEtt9DirectionPKc @7100
    _ZNK11LteFeedback8getWbCqiEv @7101
    _ZNK11LteFeedback8getWbPmiEv @7102
    _ZNK11LteFeedback8hasWbCqiEv @7103
    _ZNK11LteFeedback8hasWbPmiEv @7104
    _ZNK11LteFeedback9getTxModeEv @7105
    _ZNK11LteMacQueue12getQueueSizeEv @7106
    _ZNK11LteMacQueue14getQueueLengthEv @7107
    _ZNK11LteMacQueue15getHolTimestampEv @7108
    _ZNK11LteMacQueue17getQueueOccupancyEv @7109
    _ZNK11LteMacQueue3dupEv @7110
    _ZNK11LteRlcAmPdu18getBitmapArraySizeEv @7111
    _ZNK11LteRlcAmPdu3dupEv @7112
    _ZNK11LteRlcAmPdu6isLastEv @7113
    _ZNK11LteRlcAmPdu7isFirstEv @7114
    _ZNK11LteRlcAmPdu7isWholeEv @7115
    _ZNK11LteRlcAmPdu8isMiddleEv @7116
    _ZNK11LteRlcAmPdu9getBitmapEy @7117
    _ZNK11LteRlcAmSdu10parsimPackEPN7omnetpp11cCommBufferE @7118
    _ZNK11LteRlcAmSdu3dupEv @7119
    _ZNK11LteRlcUmD2D13numInitStagesEv @7120
    _ZNK11MEAppPacket10getUeAppIDEv @7121
    _ZNK11MEAppPacket10parsimPackEPN7omnetpp11cCommBufferE @7122
    _ZNK11MEAppPacket12getTimestampEv @7123
    _ZNK11MEAppPacket13getSourcePortEv @7124
    _ZNK11MEAppPacket14getRequiredCpuEv @7125
    _ZNK11MEAppPacket14getRequiredRamEv @7126
    _ZNK11MEAppPacket15getMEModuleNameEv @7127
    _ZNK11MEAppPacket15getMEModuleTypeEv @7128
    _ZNK11MEAppPacket15getRequiredDiskEv @7129
    _ZNK11MEAppPacket16getSourceAddressEv @7130
    _ZNK11MEAppPacket18getDestinationPortEv @7131
    _ZNK11MEAppPacket18getRequiredServiceEv @7132
    _ZNK11MEAppPacket21getDestinationAddressEv @7133
    _ZNK11MEAppPacket24getDestinationMecAppPortEv @7134
    _ZNK11MEAppPacket27getDestinationMecAppAddressEv @7135
    _ZNK11MEAppPacket3dupEv @7136
    _ZNK11MEAppPacket6getSnoEv @7137
    _ZNK11MEAppPacket7getTypeEv @7138
    _ZNK11MultihopD2D13numInitStagesEv @7139
    _ZNK11RNICellInfo10toJsonCellB5cxx11Ev @7140
    _ZNK11RNICellInfo15getCollectorMapEv @7141
    _ZNK11RNICellInfo6toJsonB5cxx11Ev @7142
    _ZNK11RNICellInfo7getEcgiEv @7143
    _ZNK11ServiceInfo10getMecHostB5cxx11Ev @7144
    _ZNK11ServiceInfo6toJsonB5cxx11Ev @7145
    _ZNK11ServiceInfo7getNameB5cxx11Ev @7146
    _ZNK11TMultiTimer4busyEj @7147
    _ZNK11TMultiTimer4busyEv @7148
    _ZNK11TMultiTimer4idleEv @7149
    _ZNK11X2AppClient13numInitStagesEv @7150
    _ZNK12EndPointInfo6toJsonB5cxx11Ev @7151
    _ZNK12LocationInfo6toJsonB5cxx11Ev @7152
    _ZNK12LteMacBuffer12getProcessedEv @7153
    _ZNK12LteMacBuffer13getPacketlistB5cxx11Ev @7154
    _ZNK12LteMacBuffer14getQueueLengthEv @7155
    _ZNK12LteMacBuffer15getHolTimestampEv @7156
    _ZNK12LteMacBuffer17getQueueOccupancyEv @7157
    _ZNK12LteMacBuffer3dupEv @7158
    _ZNK12LteMacBuffer4backEv @7159
    _ZNK12LteMacBuffer7isEmptyEv @7160
    _ZNK12LteX2Manager13numInitStagesEv @7161
    _ZNK12LteX2Message13getByteLengthEv @7162
    _ZNK12LteX2Message3dupEv @7163
    _ZNK12LteX2Message5hasIeEv @7164
    _ZNK12LteX2Message7getTypeEv @7165
    _ZNK12LteX2Message9getIeListB5cxx11Ev @7166
    _ZNK12UERequestApp13numInitStagesEv @7167
    _ZNK12UserTxParams10readTxModeEv @7168
    _ZNK12UserTxParams13readCqiVectorEv @7169
    _ZNK12UserTxParams14readAntennaSetEv @7170
    _ZNK12UserTxParams15getCwModulationEt @7171
    _ZNK12UserTxParams3dupEv @7172
    _ZNK12UserTxParams5printEPKc @7173
    _ZNK12UserTxParams9getLayersEv @7174
    _ZNK12UserTxParams9readBandsEv @7175
    _ZNK12VoDUDPClient13numInitStagesEv @7176
    _ZNK12VoDUDPServer13numInitStagesEv @7177
    _ZNK12VoIPReceiver13numInitStagesEv @7178
    _ZNK13AlertReceiver13numInitStagesEv @7179
    _ZNK13AlertReceiver14refreshDisplayEv @7180
    _ZNK13BurstReceiver13numInitStagesEv @7181
    _ZNK13ChannelAccess13numInitStagesEv @7182
    _ZNK13ChannelAccess16getRadioPositionEv @7183
    _ZNK13LteRlcDataPdu14getFramingInfoEv @7184
    _ZNK13LteRlcDataPdu20getPduSequenceNumberEv @7185
    _ZNK13LteRlcDataPdu3dupEv @7186
    _ZNK13LteRlcDataPdu9getNumSduEv @7187
    _ZNK13MecRequestApp13numInitStagesEv @7188
    _ZNK13TransportInfo6toJsonB5cxx11Ev @7189
    _ZNK13UALCMPMessage10parsimPackEPN7omnetpp11cCommBufferE @7190
    _ZNK13UALCMPMessage12getRequestIdEv @7191
    _ZNK13UALCMPMessage15getConnectionIdEv @7192
    _ZNK13UALCMPMessage3dupEv @7193
    _ZNK13UALCMPMessage7getTypeEv @7194
    _ZNK13X2CompReplyIE3dupEv @7195
